Archive member included because of file (symbol)

contiki-srf06-cc26xx.a(contiki-main.o)
                              obj_srf06-cc26xx/startup_gcc.o (main)
contiki-srf06-cc26xx.a(sensors.o)
                              contiki-srf06-cc26xx.a(contiki-main.o) (sensors_process)
contiki-srf06-cc26xx.a(leds.o)
                              contiki-srf06-cc26xx.a(contiki-main.o) (leds_init)
contiki-srf06-cc26xx.a(leds-arch.o)
                              contiki-srf06-cc26xx.a(leds.o) (leds_arch_init)
contiki-srf06-cc26xx.a(srf06-sensors.o)
                              contiki-srf06-cc26xx.a(sensors.o) (sensors_flags)
contiki-srf06-cc26xx.a(button-sensor.o)
                              contiki-srf06-cc26xx.a(srf06-sensors.o) (button_down_sensor)
contiki-srf06-cc26xx.a(board.o)
                              contiki-srf06-cc26xx.a(contiki-main.o) (board_init)
contiki-srf06-cc26xx.a(als-sensor.o)
                              contiki-srf06-cc26xx.a(srf06-sensors.o) (als_sensor)
contiki-srf06-cc26xx.a(prop-mode.o)
                              udp-server.co (prop_mode_driver)
contiki-srf06-cc26xx.a(clock.o)
                              contiki-srf06-cc26xx.a(contiki-main.o) (clock_init)
contiki-srf06-cc26xx.a(rtimer-arch.o)
                              contiki-srf06-cc26xx.a(prop-mode.o) (rtimer_arch_now)
contiki-srf06-cc26xx.a(soc-rtc.o)
                              contiki-srf06-cc26xx.a(contiki-main.o) (soc_rtc_init)
contiki-srf06-cc26xx.a(contiki-watchdo)
                              contiki-srf06-cc26xx.a(contiki-main.o) (watchdog_init)
contiki-srf06-cc26xx.a(aux-ctrl.o)
                              contiki-srf06-cc26xx.a(als-sensor.o) (aux_ctrl_register_consumer)
contiki-srf06-cc26xx.a(putchar.o)
                              udp-server.co (putchar)
contiki-srf06-cc26xx.a(ieee-addr.o)
                              contiki-srf06-cc26xx.a(contiki-main.o) (ieee_addr_cpy_to)
contiki-srf06-cc26xx.a(cc26xx-uart.o)
                              contiki-srf06-cc26xx.a(contiki-main.o) (cc26xx_uart_init)
contiki-srf06-cc26xx.a(lpm.o)
                              contiki-srf06-cc26xx.a(button-sensor.o) (lpm_shutdown)
contiki-srf06-cc26xx.a(gpio-interrupt.)
                              contiki-srf06-cc26xx.a(button-sensor.o) (gpio_interrupt_register_handler)
contiki-srf06-cc26xx.a(oscillators.o)
                              contiki-srf06-cc26xx.a(contiki-main.o) (oscillators_select_lf_xosc)
contiki-srf06-cc26xx.a(rf-core.o)
                              contiki-srf06-cc26xx.a(prop-mode.o) (rf_core_is_accessible)
contiki-srf06-cc26xx.a(rf-ble.o)
                              contiki-srf06-cc26xx.a(prop-mode.o) (rf_ble_is_active)
contiki-srf06-cc26xx.a(random.o)
                              contiki-srf06-cc26xx.a(contiki-main.o) (random_init)
contiki-srf06-cc26xx.a(soc-trng.o)
                              contiki-srf06-cc26xx.a(random.o) (soc_trng_rand_synchronous)
contiki-srf06-cc26xx.a(dbg-printf.o)
                              udp-server.co (printf)
contiki-srf06-cc26xx.a(strformat.o)
                              contiki-srf06-cc26xx.a(dbg-printf.o) (format_str_v)
contiki-srf06-cc26xx.a(autostart.o)
                              contiki-srf06-cc26xx.a(contiki-main.o) (autostart_start)
contiki-srf06-cc26xx.a(ctimer.o)
                              contiki-srf06-cc26xx.a(contiki-main.o) (ctimer_init)
contiki-srf06-cc26xx.a(energest.o)
                              contiki-srf06-cc26xx.a(contiki-main.o) (energest_init)
contiki-srf06-cc26xx.a(etimer.o)
                              contiki-srf06-cc26xx.a(clock.o) (etimer_request_poll)
contiki-srf06-cc26xx.a(process.o)
                              contiki-srf06-cc26xx.a(sensors.o) (process_alloc_event)
contiki-srf06-cc26xx.a(rtimer.o)
                              contiki-srf06-cc26xx.a(contiki-main.o) (rtimer_init)
contiki-srf06-cc26xx.a(timer.o)
                              contiki-srf06-cc26xx.a(button-sensor.o) (timer_set)
contiki-srf06-cc26xx.a(serial-line.o)
                              udp-server.co (serial_line_event_message)
contiki-srf06-cc26xx.a(list.o)
                              contiki-srf06-cc26xx.a(lpm.o) (list_init)
contiki-srf06-cc26xx.a(ringbuf.o)
                              contiki-srf06-cc26xx.a(serial-line.o) (ringbuf_init)
contiki-srf06-cc26xx.a(sicslowpan.o)
                              contiki-srf06-cc26xx.a(contiki-main.o) (sicslowpan_driver)
contiki-srf06-cc26xx.a(uip6.o)
                              contiki-srf06-cc26xx.a(sicslowpan.o) (uip_aligned_buf)
contiki-srf06-cc26xx.a(uip-ds6.o)
                              contiki-srf06-cc26xx.a(uip6.o) (uip_ds6_is_addr_onlink)
contiki-srf06-cc26xx.a(uip-ds6-nbr.o)
                              contiki-srf06-cc26xx.a(uip-ds6.o) (uip_ds6_neighbors_init)
contiki-srf06-cc26xx.a(uip-ds6-route.o)
                              contiki-srf06-cc26xx.a(uip-ds6.o) (uip_ds6_route_init)
contiki-srf06-cc26xx.a(uip-icmp6.o)
                              contiki-srf06-cc26xx.a(uip6.o) (uip_icmp6_input)
contiki-srf06-cc26xx.a(uip-nd6.o)
                              contiki-srf06-cc26xx.a(uip6.o) (uip_nd6_init)
contiki-srf06-cc26xx.a(tcpip.o)
                              contiki-srf06-cc26xx.a(sicslowpan.o) (tcpip_set_outputfunc)
contiki-srf06-cc26xx.a(uip-debug.o)
                              udp-server.co (uip_debug_ipaddr_print)
contiki-srf06-cc26xx.a(uip-udp-packet.)
                              udp-server.co (uip_udp_packet_sendto)
contiki-srf06-cc26xx.a(rpl.o)
                              contiki-srf06-cc26xx.a(uip-ds6-nbr.o) (rpl_link_neighbor_callback)
contiki-srf06-cc26xx.a(rpl-dag.o)
                              contiki-srf06-cc26xx.a(rpl.o) (rpl_dag_init)
contiki-srf06-cc26xx.a(rpl-ext-header.)
                              contiki-srf06-cc26xx.a(uip6.o) (rpl_verify_hbh_header)
contiki-srf06-cc26xx.a(rpl-icmp6.o)
                              contiki-srf06-cc26xx.a(rpl-dag.o) (rpl_icmp6_update_nbr_table)
contiki-srf06-cc26xx.a(rpl-mrhof.o)
                              contiki-srf06-cc26xx.a(rpl-dag.o) (rpl_mrhof)
contiki-srf06-cc26xx.a(rpl-timers.o)
                              contiki-srf06-cc26xx.a(rpl.o) (rpl_reset_periodic_timer)
contiki-srf06-cc26xx.a(adi.o)
                              contiki-srf06-cc26xx.a(oscillators.o) (SafeHapiVoid)
contiki-srf06-cc26xx.a(aon_rtc.o)
                              contiki-srf06-cc26xx.a(rtimer-arch.o) (NOROM_AONRTCCurrentCompareValueGet)
contiki-srf06-cc26xx.a(aux_adc.o)
                              contiki-srf06-cc26xx.a(als-sensor.o) (NOROM_AUXADCDisable)
contiki-srf06-cc26xx.a(chipinfo.o)
                              contiki-srf06-cc26xx.a(contiki-main.o) (NOROM_ChipInfo_GetSupportedProtocol_BV)
contiki-srf06-cc26xx.a(cpu.o)
                              contiki-srf06-cc26xx.a(contiki-main.o) (NOROM_CPUcpsid)
contiki-srf06-cc26xx.a(osc.o)
                              contiki-srf06-cc26xx.a(oscillators.o) (NOROM_OSCClockSourceSet)
contiki-srf06-cc26xx.a(pwr_ctrl.o)
                              contiki-srf06-cc26xx.a(lpm.o) (NOROM_PowerCtrlSourceSet)
contiki-srf06-cc26xx.a(setup.o)
                              obj_srf06-cc26xx/startup_gcc.o (NOROM_SetupTrimDevice)
contiki-srf06-cc26xx.a(setup_rom.o)
                              contiki-srf06-cc26xx.a(setup.o) (NOROM_SetupAfterColdResetWakeupFromShutDownCfg1)
contiki-srf06-cc26xx.a(sys_ctrl.o)
                              contiki-srf06-cc26xx.a(lpm.o) (NOROM_SysCtrlSetRechargeBeforePowerDown)
contiki-srf06-cc26xx.a(trng.o)
                              contiki-srf06-cc26xx.a(soc-trng.o) (NOROM_TRNGConfigure)
contiki-srf06-cc26xx.a(linkaddr.o)
                              udp-server.co (linkaddr_copy)
contiki-srf06-cc26xx.a(link-stats.o)
                              contiki-srf06-cc26xx.a(rpl-dag.o) (link_stats_from_lladdr)
contiki-srf06-cc26xx.a(nbr-table.o)
                              contiki-srf06-cc26xx.a(uip-ds6-nbr.o) (nbr_table_register)
contiki-srf06-cc26xx.a(netstack.o)
                              contiki-srf06-cc26xx.a(contiki-main.o) (netstack_init)
contiki-srf06-cc26xx.a(packetbuf.o)
                              udp-server.co (packetbuf_hdralloc)
contiki-srf06-cc26xx.a(queuebuf.o)
                              contiki-srf06-cc26xx.a(contiki-main.o) (queuebuf_init)
contiki-srf06-cc26xx.a(csma.o)
                              udp-server.co (csma_driver)
contiki-srf06-cc26xx.a(frame802154.o)
                              udp-server.co (frame802154_get_pan_id)
contiki-srf06-cc26xx.a(mac.o)
                              contiki-srf06-cc26xx.a(csma.o) (mac_call_sent_callback)
contiki-srf06-cc26xx.a(nullrdc.o)
                              contiki-srf06-cc26xx.a(contiki-main.o) (nullrdc_driver)
contiki-srf06-cc26xx.a(noncoresec.o)
                              contiki-srf06-cc26xx.a(sicslowpan.o) (noncoresec_framer)
contiki-srf06-cc26xx.a(smartrf-setting)
                              contiki-srf06-cc26xx.a(prop-mode.o) (smartrf_settings_cmd_prop_rx_adv)
contiki-srf06-cc26xx.a(stimer.o)
                              contiki-srf06-cc26xx.a(uip-ds6.o) (stimer_set)
contiki-srf06-cc26xx.a(ccm-star.o)
                              contiki-srf06-cc26xx.a(noncoresec.o) (ccm_star_driver)
contiki-srf06-cc26xx.a(memb.o)
                              contiki-srf06-cc26xx.a(uip-ds6-route.o) (memb_init)
contiki-srf06-cc26xx.a(rpl-nbr-policy.)
                              contiki-srf06-cc26xx.a(nbr-table.o) (rpl_nbr_policy_find_removable)
contiki-srf06-cc26xx.a(aon_batmon.o)
                              contiki-srf06-cc26xx.a(osc.o) (NOROM_AONBatMonTemperatureGetDegC)
contiki-srf06-cc26xx.a(ddi.o)
                              contiki-srf06-cc26xx.a(setup_rom.o) (NOROM_DDI32RegWrite)
contiki-srf06-cc26xx.a(framer-802154.o)
                              contiki-srf06-cc26xx.a(noncoresec.o) (framer_802154_set_seqno)
contiki-srf06-cc26xx.a(anti-replay.o)
                              contiki-srf06-cc26xx.a(noncoresec.o) (anti_replay_set_counter)
contiki-srf06-cc26xx.a(ccm-star-packet)
                              contiki-srf06-cc26xx.a(noncoresec.o) (ccm_star_packetbuf_set_nonce)
contiki-srf06-cc26xx.a(aes-128.o)
                              contiki-srf06-cc26xx.a(ccm-star.o) (aes_128_driver)
/usr/lib/gcc/arm-none-eabi/4.8.2/armv7-m/libgcc.a(_aeabi_uldivmod.o)
                              contiki-srf06-cc26xx.a(strformat.o) (__aeabi_uldivmod)
/usr/lib/gcc/arm-none-eabi/4.8.2/armv7-m/libgcc.a(bpabi.o)
                              /usr/lib/gcc/arm-none-eabi/4.8.2/armv7-m/libgcc.a(_aeabi_uldivmod.o) (__gnu_uldivmod_helper)
/usr/lib/gcc/arm-none-eabi/4.8.2/armv7-m/libgcc.a(_dvmd_tls.o)
                              /usr/lib/gcc/arm-none-eabi/4.8.2/armv7-m/libgcc.a(_aeabi_uldivmod.o) (__aeabi_ldiv0)
/usr/lib/gcc/arm-none-eabi/4.8.2/armv7-m/libgcc.a(_divdi3.o)
                              /usr/lib/gcc/arm-none-eabi/4.8.2/armv7-m/libgcc.a(bpabi.o) (__divdi3)
/usr/lib/gcc/arm-none-eabi/4.8.2/armv7-m/libgcc.a(_udivdi3.o)
                              /usr/lib/gcc/arm-none-eabi/4.8.2/armv7-m/libgcc.a(bpabi.o) (__udivdi3)
/usr/lib/gcc/arm-none-eabi/4.8.2/../../../arm-none-eabi/lib/armv7-m/libc.a(lib_a-memcmp.o)
                              contiki-srf06-cc26xx.a(sicslowpan.o) (memcmp)
/usr/lib/gcc/arm-none-eabi/4.8.2/../../../arm-none-eabi/lib/armv7-m/libc.a(lib_a-memcpy.o)
                              udp-server.co (memcpy)
/usr/lib/gcc/arm-none-eabi/4.8.2/../../../arm-none-eabi/lib/armv7-m/libc.a(lib_a-memmove.o)
                              contiki-srf06-cc26xx.a(sicslowpan.o) (memmove)
/usr/lib/gcc/arm-none-eabi/4.8.2/../../../arm-none-eabi/lib/armv7-m/libc.a(lib_a-memset.o)
                              udp-server.co (memset)
/usr/lib/gcc/arm-none-eabi/4.8.2/../../../arm-none-eabi/lib/armv7-m/libc.a(lib_a-strlen.o)
                              contiki-srf06-cc26xx.a(sensors.o) (strlen)
/usr/lib/gcc/arm-none-eabi/4.8.2/../../../arm-none-eabi/lib/armv7-m/libc.a(lib_a-strncmp.o)
                              udp-server.co (strncmp)

Allocating common symbols
Common symbol       size              file

uip_ds6_timer_ra    0x8               contiki-srf06-cc26xx.a(uip-ds6.o)
csma_noack          0x4               contiki-srf06-cc26xx.a(csma.o)
uip_ds6_if          0xf8              contiki-srf06-cc26xx.a(uip-ds6.o)
uip_ds6_netif_addr_list_offset
                    0x1               contiki-srf06-cc26xx.a(uip-ds6.o)
uip_len             0x2               contiki-srf06-cc26xx.a(uip6.o)
uip_ds6_addr_size   0x1               contiki-srf06-cc26xx.a(uip-ds6.o)
uip_sappdata        0x4               contiki-srf06-cc26xx.a(uip6.o)
packetbuf_addrs     0x10              contiki-srf06-cc26xx.a(packetbuf.o)
uip_acc32           0x4               contiki-srf06-cc26xx.a(uip6.o)
uip_ds6_prefix_list
                    0x60              contiki-srf06-cc26xx.a(uip-ds6.o)
noncoresec_reboot   0x4               contiki-srf06-cc26xx.a(noncoresec.o)
neighbor_overflow   0x4               contiki-srf06-cc26xx.a(csma.o)
uip_lladdr          0x8               contiki-srf06-cc26xx.a(uip6.o)
uip_aligned_buf     0x3e8             contiki-srf06-cc26xx.a(uip6.o)
uip_flags           0x1               contiki-srf06-cc26xx.a(uip6.o)
packet_overflow     0x4               contiki-srf06-cc26xx.a(csma.o)
periodic_timer      0x20              contiki-srf06-cc26xx.a(link-stats.o)
csma_retransmissions
                    0x4               contiki-srf06-cc26xx.a(csma.o)
uip_ds6_timer_periodic
                    0x10              contiki-srf06-cc26xx.a(uip-ds6.o)
uip_next_hdr        0x4               contiki-srf06-cc26xx.a(uip6.o)
linkaddr_node_addr  0x8               contiki-srf06-cc26xx.a(linkaddr.o)
default_instance    0x4               contiki-srf06-cc26xx.a(rpl-dag.o)
csma_received_packets
                    0x4               contiki-srf06-cc26xx.a(csma.o)
noncoresec_replayed
                    0x4               contiki-srf06-cc26xx.a(noncoresec.o)
uip_udp_conn        0x4               contiki-srf06-cc26xx.a(uip6.o)
addr_contexts       0xa               contiki-srf06-cc26xx.a(sicslowpan.o)
packetbuf_attrs     0x24              contiki-srf06-cc26xx.a(packetbuf.o)
csma_dropped        0x4               contiki-srf06-cc26xx.a(csma.o)
instance_table      0x178             contiki-srf06-cc26xx.a(rpl-dag.o)
uip_appdata         0x4               contiki-srf06-cc26xx.a(uip6.o)
uip_conn            0x4               contiki-srf06-cc26xx.a(uip6.o)
tcpip_event         0x1               contiki-srf06-cc26xx.a(tcpip.o)
Mac_id              0x10              udp-server.co
uip_conns           0x1e0             contiki-srf06-cc26xx.a(uip6.o)
uip_icmp6_conns     0x8               contiki-srf06-cc26xx.a(uip6.o)
noncoresec_nonauthentic
                    0x4               contiki-srf06-cc26xx.a(noncoresec.o)
noncoresec_invalid_level
                    0x4               contiki-srf06-cc26xx.a(noncoresec.o)
csma_deferred       0x4               contiki-srf06-cc26xx.a(csma.o)
uip_listenports     0x28              contiki-srf06-cc26xx.a(uip6.o)
csma_collisions     0x4               contiki-srf06-cc26xx.a(csma.o)
paired_node_addr    0x10              udp-server.co
sensors_flags       0x7               contiki-srf06-cc26xx.a(srf06-sensors.o)
serial_line_event_message
                    0x1               contiki-srf06-cc26xx.a(serial-line.o)
sensors_event       0x1               contiki-srf06-cc26xx.a(sensors.o)
tcpip_icmp6_event   0x1               contiki-srf06-cc26xx.a(tcpip.o)
csma_sent_packets   0x4               contiki-srf06-cc26xx.a(csma.o)
uip_slen            0x2               contiki-srf06-cc26xx.a(uip6.o)
uip_udp_conns       0x140             contiki-srf06-cc26xx.a(uip6.o)

Discarded input sections

 .text          0x0000000000000000        0x0 obj_srf06-cc26xx/fault-handlers.o
 .data          0x0000000000000000        0x0 obj_srf06-cc26xx/fault-handlers.o
 .bss           0x0000000000000000        0x0 obj_srf06-cc26xx/fault-handlers.o
 .text          0x0000000000000000        0x0 obj_srf06-cc26xx/ccfg.o
 .data          0x0000000000000000        0x0 obj_srf06-cc26xx/ccfg.o
 .bss           0x0000000000000000        0x0 obj_srf06-cc26xx/ccfg.o
 .text          0x0000000000000000        0x0 obj_srf06-cc26xx/startup_gcc.o
 .data          0x0000000000000000        0x0 obj_srf06-cc26xx/startup_gcc.o
 .bss           0x0000000000000000        0x0 obj_srf06-cc26xx/startup_gcc.o
 .text.FaultISRHandler
                0x0000000000000000        0x4 obj_srf06-cc26xx/startup_gcc.o
 .text          0x0000000000000000        0x0 udp-server.co
 .data          0x0000000000000000        0x0 udp-server.co
 .bss           0x0000000000000000        0x0 udp-server.co
 .text          0x0000000000000000        0x0 contiki-srf06-cc26xx.a(contiki-main.o)
 .data          0x0000000000000000        0x0 contiki-srf06-cc26xx.a(contiki-main.o)
 .bss           0x0000000000000000        0x0 contiki-srf06-cc26xx.a(contiki-main.o)
 .text          0x0000000000000000        0x0 contiki-srf06-cc26xx.a(sensors.o)
 .data          0x0000000000000000        0x0 contiki-srf06-cc26xx.a(sensors.o)
 .bss           0x0000000000000000        0x0 contiki-srf06-cc26xx.a(sensors.o)
 .text.sensors_first
                0x0000000000000000        0xc contiki-srf06-cc26xx.a(sensors.o)
 .text.sensors_next
                0x0000000000000000       0x40 contiki-srf06-cc26xx.a(sensors.o)
 .text.sensors_find
                0x0000000000000000       0x50 contiki-srf06-cc26xx.a(sensors.o)
 .text          0x0000000000000000        0x0 contiki-srf06-cc26xx.a(leds.o)
 .data          0x0000000000000000        0x0 contiki-srf06-cc26xx.a(leds.o)
 .bss           0x0000000000000000        0x0 contiki-srf06-cc26xx.a(leds.o)
 .text.leds_blink
                0x0000000000000000       0x34 contiki-srf06-cc26xx.a(leds.o)
 .text.leds_get
                0x0000000000000000        0x4 contiki-srf06-cc26xx.a(leds.o)
 .text.leds_set
                0x0000000000000000       0x10 contiki-srf06-cc26xx.a(leds.o)
 .text.leds_toggle
                0x0000000000000000       0x14 contiki-srf06-cc26xx.a(leds.o)
 .text          0x0000000000000000        0x0 contiki-srf06-cc26xx.a(leds-arch.o)
 .data          0x0000000000000000        0x0 contiki-srf06-cc26xx.a(leds-arch.o)
 .bss           0x0000000000000000        0x0 contiki-srf06-cc26xx.a(leds-arch.o)
 .text.leds_arch_get
                0x0000000000000000        0xc contiki-srf06-cc26xx.a(leds-arch.o)
 .text          0x0000000000000000        0x0 contiki-srf06-cc26xx.a(srf06-sensors.o)
 .data          0x0000000000000000        0x0 contiki-srf06-cc26xx.a(srf06-sensors.o)
 .bss           0x0000000000000000        0x0 contiki-srf06-cc26xx.a(srf06-sensors.o)
 .text          0x0000000000000000        0x0 contiki-srf06-cc26xx.a(button-sensor.o)
 .data          0x0000000000000000        0x0 contiki-srf06-cc26xx.a(button-sensor.o)
 .bss           0x0000000000000000        0x0 contiki-srf06-cc26xx.a(button-sensor.o)
 .text          0x0000000000000000        0x0 contiki-srf06-cc26xx.a(board.o)
 .data          0x0000000000000000        0x0 contiki-srf06-cc26xx.a(board.o)
 .bss           0x0000000000000000        0x0 contiki-srf06-cc26xx.a(board.o)
 .text          0x0000000000000000        0x0 contiki-srf06-cc26xx.a(als-sensor.o)
 .data          0x0000000000000000        0x0 contiki-srf06-cc26xx.a(als-sensor.o)
 .bss           0x0000000000000000        0x0 contiki-srf06-cc26xx.a(als-sensor.o)
 .text          0x0000000000000000        0x0 contiki-srf06-cc26xx.a(prop-mode.o)
 .data          0x0000000000000000        0x0 contiki-srf06-cc26xx.a(prop-mode.o)
 .bss           0x0000000000000000        0x0 contiki-srf06-cc26xx.a(prop-mode.o)
 .text          0x0000000000000000        0x0 contiki-srf06-cc26xx.a(clock.o)
 .data          0x0000000000000000        0x0 contiki-srf06-cc26xx.a(clock.o)
 .bss           0x0000000000000000        0x0 contiki-srf06-cc26xx.a(clock.o)
 .text.clock_wait
                0x0000000000000000       0x6c contiki-srf06-cc26xx.a(clock.o)
 .text.clock_delay
                0x0000000000000000        0x8 contiki-srf06-cc26xx.a(clock.o)
 .text          0x0000000000000000        0x0 contiki-srf06-cc26xx.a(rtimer-arch.o)
 .data          0x0000000000000000        0x0 contiki-srf06-cc26xx.a(rtimer-arch.o)
 .bss           0x0000000000000000        0x0 contiki-srf06-cc26xx.a(rtimer-arch.o)
 .text          0x0000000000000000        0x0 contiki-srf06-cc26xx.a(soc-rtc.o)
 .data          0x0000000000000000        0x0 contiki-srf06-cc26xx.a(soc-rtc.o)
 .bss           0x0000000000000000        0x0 contiki-srf06-cc26xx.a(soc-rtc.o)
 .text.soc_rtc_get_next_trigger
                0x0000000000000000       0x30 contiki-srf06-cc26xx.a(soc-rtc.o)
 .text          0x0000000000000000        0x0 contiki-srf06-cc26xx.a(contiki-watchdo)
 .data          0x0000000000000000        0x0 contiki-srf06-cc26xx.a(contiki-watchdo)
 .bss           0x0000000000000000        0x0 contiki-srf06-cc26xx.a(contiki-watchdo)
 .text.watchdog_stop
                0x0000000000000000       0x1c contiki-srf06-cc26xx.a(contiki-watchdo)
 .text.watchdog_reboot
                0x0000000000000000        0x8 contiki-srf06-cc26xx.a(contiki-watchdo)
 .text          0x0000000000000000        0x0 contiki-srf06-cc26xx.a(aux-ctrl.o)
 .data          0x0000000000000000        0x0 contiki-srf06-cc26xx.a(aux-ctrl.o)
 .bss           0x0000000000000000        0x0 contiki-srf06-cc26xx.a(aux-ctrl.o)
 .text          0x0000000000000000        0x0 contiki-srf06-cc26xx.a(putchar.o)
 .data          0x0000000000000000        0x0 contiki-srf06-cc26xx.a(putchar.o)
 .bss           0x0000000000000000        0x0 contiki-srf06-cc26xx.a(putchar.o)
 .text          0x0000000000000000        0x0 contiki-srf06-cc26xx.a(ieee-addr.o)
 .data          0x0000000000000000        0x0 contiki-srf06-cc26xx.a(ieee-addr.o)
 .bss           0x0000000000000000        0x0 contiki-srf06-cc26xx.a(ieee-addr.o)
 .text          0x0000000000000000        0x0 contiki-srf06-cc26xx.a(cc26xx-uart.o)
 .data          0x0000000000000000        0x0 contiki-srf06-cc26xx.a(cc26xx-uart.o)
 .bss           0x0000000000000000        0x0 contiki-srf06-cc26xx.a(cc26xx-uart.o)
 .text          0x0000000000000000        0x0 contiki-srf06-cc26xx.a(lpm.o)
 .data          0x0000000000000000        0x0 contiki-srf06-cc26xx.a(lpm.o)
 .bss           0x0000000000000000        0x0 contiki-srf06-cc26xx.a(lpm.o)
 .text          0x0000000000000000        0x0 contiki-srf06-cc26xx.a(gpio-interrupt.)
 .data          0x0000000000000000        0x0 contiki-srf06-cc26xx.a(gpio-interrupt.)
 .bss           0x0000000000000000        0x0 contiki-srf06-cc26xx.a(gpio-interrupt.)
 .text          0x0000000000000000        0x0 contiki-srf06-cc26xx.a(oscillators.o)
 .data          0x0000000000000000        0x0 contiki-srf06-cc26xx.a(oscillators.o)
 .bss           0x0000000000000000        0x0 contiki-srf06-cc26xx.a(oscillators.o)
 .text          0x0000000000000000        0x0 contiki-srf06-cc26xx.a(rf-core.o)
 .data          0x0000000000000000        0x0 contiki-srf06-cc26xx.a(rf-core.o)
 .bss           0x0000000000000000        0x0 contiki-srf06-cc26xx.a(rf-core.o)
 .text.rf_core_boot
                0x0000000000000000       0x1c contiki-srf06-cc26xx.a(rf-core.o)
 .text.rf_core_restart_rat
                0x0000000000000000       0x20 contiki-srf06-cc26xx.a(rf-core.o)
 .text.rf_core_init_radio_op
                0x0000000000000000       0x1c contiki-srf06-cc26xx.a(rf-core.o)
 .text.rf_core_primary_mode_abort
                0x0000000000000000       0x18 contiki-srf06-cc26xx.a(rf-core.o)
 .text.rf_core_primary_mode_restore
                0x0000000000000000       0x18 contiki-srf06-cc26xx.a(rf-core.o)
 .text          0x0000000000000000        0x0 contiki-srf06-cc26xx.a(rf-ble.o)
 .data          0x0000000000000000        0x0 contiki-srf06-cc26xx.a(rf-ble.o)
 .bss           0x0000000000000000        0x0 contiki-srf06-cc26xx.a(rf-ble.o)
 .text.process_thread_rf_ble_beacon_process
                0x0000000000000000      0x298 contiki-srf06-cc26xx.a(rf-ble.o)
 .text.rf_ble_beacond_config
                0x0000000000000000        0x4 contiki-srf06-cc26xx.a(rf-ble.o)
 .text.rf_ble_beacond_start
                0x0000000000000000        0x4 contiki-srf06-cc26xx.a(rf-ble.o)
 .text.rf_ble_beacond_stop
                0x0000000000000000        0xc contiki-srf06-cc26xx.a(rf-ble.o)
 .data.rf_ble_beacon_process
                0x0000000000000000       0x10 contiki-srf06-cc26xx.a(rf-ble.o)
 .bss.p         0x0000000000000000        0x4 contiki-srf06-cc26xx.a(rf-ble.o)
 .bss.ble_params_buf
                0x0000000000000000       0x20 contiki-srf06-cc26xx.a(rf-ble.o)
 .rodata.str1.4
                0x0000000000000000       0x28 contiki-srf06-cc26xx.a(rf-ble.o)
 .bss.ble_adv_et
                0x0000000000000000       0x10 contiki-srf06-cc26xx.a(rf-ble.o)
 .bss.i         0x0000000000000000        0x4 contiki-srf06-cc26xx.a(rf-ble.o)
 .bss.payload   0x0000000000000000       0x40 contiki-srf06-cc26xx.a(rf-ble.o)
 .data.beacond_config
                0x0000000000000000       0x24 contiki-srf06-cc26xx.a(rf-ble.o)
 .data.ble_overrides
                0x0000000000000000       0x1c contiki-srf06-cc26xx.a(rf-ble.o)
 .text          0x0000000000000000        0x0 contiki-srf06-cc26xx.a(random.o)
 .data          0x0000000000000000        0x0 contiki-srf06-cc26xx.a(random.o)
 .bss           0x0000000000000000        0x0 contiki-srf06-cc26xx.a(random.o)
 .text          0x0000000000000000        0x0 contiki-srf06-cc26xx.a(soc-trng.o)
 .data          0x0000000000000000        0x0 contiki-srf06-cc26xx.a(soc-trng.o)
 .bss           0x0000000000000000        0x0 contiki-srf06-cc26xx.a(soc-trng.o)
 .text.soc_trng_rand_asynchronous
                0x0000000000000000      0x190 contiki-srf06-cc26xx.a(soc-trng.o)
 .text          0x0000000000000000        0x0 contiki-srf06-cc26xx.a(dbg-printf.o)
 .data          0x0000000000000000        0x0 contiki-srf06-cc26xx.a(dbg-printf.o)
 .bss           0x0000000000000000        0x0 contiki-srf06-cc26xx.a(dbg-printf.o)
 .text          0x0000000000000000        0x0 contiki-srf06-cc26xx.a(strformat.o)
 .data          0x0000000000000000        0x0 contiki-srf06-cc26xx.a(strformat.o)
 .bss           0x0000000000000000        0x0 contiki-srf06-cc26xx.a(strformat.o)
 .text.format_str
                0x0000000000000000       0x20 contiki-srf06-cc26xx.a(strformat.o)
 .text          0x0000000000000000        0x0 contiki-srf06-cc26xx.a(autostart.o)
 .data          0x0000000000000000        0x0 contiki-srf06-cc26xx.a(autostart.o)
 .bss           0x0000000000000000        0x0 contiki-srf06-cc26xx.a(autostart.o)
 .text.autostart_exit
                0x0000000000000000       0x18 contiki-srf06-cc26xx.a(autostart.o)
 .text          0x0000000000000000        0x0 contiki-srf06-cc26xx.a(ctimer.o)
 .data          0x0000000000000000        0x0 contiki-srf06-cc26xx.a(ctimer.o)
 .bss           0x0000000000000000        0x0 contiki-srf06-cc26xx.a(ctimer.o)
 .text          0x0000000000000000        0x0 contiki-srf06-cc26xx.a(energest.o)
 .data          0x0000000000000000        0x0 contiki-srf06-cc26xx.a(energest.o)
 .bss           0x0000000000000000        0x0 contiki-srf06-cc26xx.a(energest.o)
 .text.energest_type_set
                0x0000000000000000        0x4 contiki-srf06-cc26xx.a(energest.o)
 .text.energest_type_time
                0x0000000000000000        0x4 contiki-srf06-cc26xx.a(energest.o)
 .text.energest_flush
                0x0000000000000000        0x4 contiki-srf06-cc26xx.a(energest.o)
 .text          0x0000000000000000        0x0 contiki-srf06-cc26xx.a(etimer.o)
 .data          0x0000000000000000        0x0 contiki-srf06-cc26xx.a(etimer.o)
 .bss           0x0000000000000000        0x0 contiki-srf06-cc26xx.a(etimer.o)
 .text.etimer_reset_with_new_interval
                0x0000000000000000       0x18 contiki-srf06-cc26xx.a(etimer.o)
 .text.etimer_adjust
                0x0000000000000000        0xc contiki-srf06-cc26xx.a(etimer.o)
 .text.etimer_start_time
                0x0000000000000000        0x4 contiki-srf06-cc26xx.a(etimer.o)
 .text          0x0000000000000000        0x0 contiki-srf06-cc26xx.a(process.o)
 .data          0x0000000000000000        0x0 contiki-srf06-cc26xx.a(process.o)
 .bss           0x0000000000000000        0x0 contiki-srf06-cc26xx.a(process.o)
 .text.process_exit
                0x0000000000000000       0x10 contiki-srf06-cc26xx.a(process.o)
 .text.process_is_running
                0x0000000000000000        0xc contiki-srf06-cc26xx.a(process.o)
 .text          0x0000000000000000        0x0 contiki-srf06-cc26xx.a(rtimer.o)
 .data          0x0000000000000000        0x0 contiki-srf06-cc26xx.a(rtimer.o)
 .bss           0x0000000000000000        0x0 contiki-srf06-cc26xx.a(rtimer.o)
 .text.rtimer_set
                0x0000000000000000       0x2c contiki-srf06-cc26xx.a(rtimer.o)
 .text          0x0000000000000000        0x0 contiki-srf06-cc26xx.a(timer.o)
 .data          0x0000000000000000        0x0 contiki-srf06-cc26xx.a(timer.o)
 .bss           0x0000000000000000        0x0 contiki-srf06-cc26xx.a(timer.o)
 .text.timer_remaining
                0x0000000000000000       0x10 contiki-srf06-cc26xx.a(timer.o)
 .text          0x0000000000000000        0x0 contiki-srf06-cc26xx.a(serial-line.o)
 .data          0x0000000000000000        0x0 contiki-srf06-cc26xx.a(serial-line.o)
 .bss           0x0000000000000000        0x0 contiki-srf06-cc26xx.a(serial-line.o)
 .text          0x0000000000000000        0x0 contiki-srf06-cc26xx.a(list.o)
 .data          0x0000000000000000        0x0 contiki-srf06-cc26xx.a(list.o)
 .bss           0x0000000000000000        0x0 contiki-srf06-cc26xx.a(list.o)
 .text.list_copy
                0x0000000000000000        0x8 contiki-srf06-cc26xx.a(list.o)
 .text.list_tail
                0x0000000000000000       0x10 contiki-srf06-cc26xx.a(list.o)
 .text.list_chop
                0x0000000000000000       0x24 contiki-srf06-cc26xx.a(list.o)
 .text.list_pop
                0x0000000000000000        0xc contiki-srf06-cc26xx.a(list.o)
 .text.list_insert
                0x0000000000000000       0x10 contiki-srf06-cc26xx.a(list.o)
 .text          0x0000000000000000        0x0 contiki-srf06-cc26xx.a(ringbuf.o)
 .data          0x0000000000000000        0x0 contiki-srf06-cc26xx.a(ringbuf.o)
 .bss           0x0000000000000000        0x0 contiki-srf06-cc26xx.a(ringbuf.o)
 .text.ringbuf_size
                0x0000000000000000        0x8 contiki-srf06-cc26xx.a(ringbuf.o)
 .text.ringbuf_elements
                0x0000000000000000        0xc contiki-srf06-cc26xx.a(ringbuf.o)
 .text          0x0000000000000000        0x0 contiki-srf06-cc26xx.a(sicslowpan.o)
 .data          0x0000000000000000        0x0 contiki-srf06-cc26xx.a(sicslowpan.o)
 .bss           0x0000000000000000        0x0 contiki-srf06-cc26xx.a(sicslowpan.o)
 .text.rime_sniffer_add
                0x0000000000000000        0xc contiki-srf06-cc26xx.a(sicslowpan.o)
 .text.rime_sniffer_remove
                0x0000000000000000       0x10 contiki-srf06-cc26xx.a(sicslowpan.o)
 .text.sicslowpan_get_last_rssi
                0x0000000000000000        0xc contiki-srf06-cc26xx.a(sicslowpan.o)
 .text          0x0000000000000000        0x0 contiki-srf06-cc26xx.a(uip6.o)
 .data          0x0000000000000000        0x0 contiki-srf06-cc26xx.a(uip6.o)
 .bss           0x0000000000000000        0x0 contiki-srf06-cc26xx.a(uip6.o)
 .text.uip_chksum
                0x0000000000000000       0x14 contiki-srf06-cc26xx.a(uip6.o)
 .text.uip_ipchksum
                0x0000000000000000       0x20 contiki-srf06-cc26xx.a(uip6.o)
 .text.uip_tcpchksum
                0x0000000000000000        0x8 contiki-srf06-cc26xx.a(uip6.o)
 .text.uip_udpchksum
                0x0000000000000000        0x8 contiki-srf06-cc26xx.a(uip6.o)
 .text.uip_connect
                0x0000000000000000      0x104 contiki-srf06-cc26xx.a(uip6.o)
 .text.uip_listen
                0x0000000000000000       0x24 contiki-srf06-cc26xx.a(uip6.o)
 .text.uip_htons
                0x0000000000000000        0x8 contiki-srf06-cc26xx.a(uip6.o)
 .text.uip_send
                0x0000000000000000       0x60 contiki-srf06-cc26xx.a(uip6.o)
 .text          0x0000000000000000        0x0 contiki-srf06-cc26xx.a(uip-ds6.o)
 .data          0x0000000000000000        0x0 contiki-srf06-cc26xx.a(uip-ds6.o)
 .bss           0x0000000000000000        0x0 contiki-srf06-cc26xx.a(uip-ds6.o)
 .text.uip_ds6_prefix_rm
                0x0000000000000000        0x8 contiki-srf06-cc26xx.a(uip-ds6.o)
 .text.uip_ds6_prefix_lookup
                0x0000000000000000       0x30 contiki-srf06-cc26xx.a(uip-ds6.o)
 .text.uip_ds6_get_global
                0x0000000000000000       0x50 contiki-srf06-cc26xx.a(uip-ds6.o)
 .text.uip_ds6_get_addr_number
                0x0000000000000000       0x4c contiki-srf06-cc26xx.a(uip-ds6.o)
 .text.uip_ds6_maddr_rm
                0x0000000000000000        0x8 contiki-srf06-cc26xx.a(uip-ds6.o)
 .text.uip_ds6_aaddr_add
                0x0000000000000000       0x50 contiki-srf06-cc26xx.a(uip-ds6.o)
 .text.uip_ds6_aaddr_rm
                0x0000000000000000        0x8 contiki-srf06-cc26xx.a(uip-ds6.o)
 .text.uip_ds6_aaddr_lookup
                0x0000000000000000       0x30 contiki-srf06-cc26xx.a(uip-ds6.o)
 .text.get_match_length
                0x0000000000000000       0x44 contiki-srf06-cc26xx.a(uip-ds6.o)
 .bss.locaaddr  0x0000000000000000        0x4 contiki-srf06-cc26xx.a(uip-ds6.o)
 .text          0x0000000000000000        0x0 contiki-srf06-cc26xx.a(uip-ds6-nbr.o)
 .data          0x0000000000000000        0x0 contiki-srf06-cc26xx.a(uip-ds6-nbr.o)
 .bss           0x0000000000000000        0x0 contiki-srf06-cc26xx.a(uip-ds6-nbr.o)
 .text.uip_ds6_nbr_get_ipaddr
                0x0000000000000000        0x4 contiki-srf06-cc26xx.a(uip-ds6-nbr.o)
 .text.uip_ds6_nbr_num
                0x0000000000000000       0x2c contiki-srf06-cc26xx.a(uip-ds6-nbr.o)
 .text.uip_ds6_nbr_ll_lookup
                0x0000000000000000       0x10 contiki-srf06-cc26xx.a(uip-ds6-nbr.o)
 .text          0x0000000000000000        0x0 contiki-srf06-cc26xx.a(uip-ds6-route.o)
 .data          0x0000000000000000        0x0 contiki-srf06-cc26xx.a(uip-ds6-route.o)
 .bss           0x0000000000000000        0x0 contiki-srf06-cc26xx.a(uip-ds6-route.o)
 .text.uip_ds6_notification_add
                0x0000000000000000       0x1c contiki-srf06-cc26xx.a(uip-ds6-route.o)
 .text.uip_ds6_notification_rm
                0x0000000000000000       0x10 contiki-srf06-cc26xx.a(uip-ds6-route.o)
 .text.uip_ds6_route_num_routes
                0x0000000000000000        0xc contiki-srf06-cc26xx.a(uip-ds6-route.o)
 .text.uip_ds6_route_rm_by_nexthop
                0x0000000000000000       0x20 contiki-srf06-cc26xx.a(uip-ds6-route.o)
 .text.uip_ds6_defrt_head
                0x0000000000000000        0xc contiki-srf06-cc26xx.a(uip-ds6-route.o)
 .text          0x0000000000000000        0x0 contiki-srf06-cc26xx.a(uip-icmp6.o)
 .data          0x0000000000000000        0x0 contiki-srf06-cc26xx.a(uip-icmp6.o)
 .bss           0x0000000000000000        0x0 contiki-srf06-cc26xx.a(uip-icmp6.o)
 .text.uip_icmp6_echo_reply_callback_add
                0x0000000000000000       0x1c contiki-srf06-cc26xx.a(uip-icmp6.o)
 .text.uip_icmp6_echo_reply_callback_rm
                0x0000000000000000       0x10 contiki-srf06-cc26xx.a(uip-icmp6.o)
 .text          0x0000000000000000        0x0 contiki-srf06-cc26xx.a(uip-nd6.o)
 .data          0x0000000000000000        0x0 contiki-srf06-cc26xx.a(uip-nd6.o)
 .bss           0x0000000000000000        0x0 contiki-srf06-cc26xx.a(uip-nd6.o)
 .text          0x0000000000000000        0x0 contiki-srf06-cc26xx.a(tcpip.o)
 .data          0x0000000000000000        0x0 contiki-srf06-cc26xx.a(tcpip.o)
 .bss           0x0000000000000000        0x0 contiki-srf06-cc26xx.a(tcpip.o)
 .text.tcpip_output
                0x0000000000000000       0x18 contiki-srf06-cc26xx.a(tcpip.o)
 .text.tcpip_get_outputfunc
                0x0000000000000000        0xc contiki-srf06-cc26xx.a(tcpip.o)
 .text.tcpip_set_inputfunc
                0x0000000000000000        0xc contiki-srf06-cc26xx.a(tcpip.o)
 .text.tcpip_get_inputfunc
                0x0000000000000000        0xc contiki-srf06-cc26xx.a(tcpip.o)
 .text.tcp_connect
                0x0000000000000000       0x30 contiki-srf06-cc26xx.a(tcpip.o)
 .text.tcp_unlisten
                0x0000000000000000       0x40 contiki-srf06-cc26xx.a(tcpip.o)
 .text.tcp_listen
                0x0000000000000000       0x38 contiki-srf06-cc26xx.a(tcpip.o)
 .text.tcp_attach
                0x0000000000000000       0x10 contiki-srf06-cc26xx.a(tcpip.o)
 .text.udp_attach
                0x0000000000000000       0x10 contiki-srf06-cc26xx.a(tcpip.o)
 .text.udp_broadcast_new
                0x0000000000000000       0x50 contiki-srf06-cc26xx.a(tcpip.o)
 .text.icmp6_new
                0x0000000000000000       0x24 contiki-srf06-cc26xx.a(tcpip.o)
 .text.tcpip_poll_udp
                0x0000000000000000       0x10 contiki-srf06-cc26xx.a(tcpip.o)
 .text.tcpip_poll_tcp
                0x0000000000000000       0x10 contiki-srf06-cc26xx.a(tcpip.o)
 .text          0x0000000000000000        0x0 contiki-srf06-cc26xx.a(uip-debug.o)
 .data          0x0000000000000000        0x0 contiki-srf06-cc26xx.a(uip-debug.o)
 .bss           0x0000000000000000        0x0 contiki-srf06-cc26xx.a(uip-debug.o)
 .text.uip_debug_lladdr_print
                0x0000000000000000       0x4c contiki-srf06-cc26xx.a(uip-debug.o)
 .text          0x0000000000000000        0x0 contiki-srf06-cc26xx.a(uip-udp-packet.)
 .data          0x0000000000000000        0x0 contiki-srf06-cc26xx.a(uip-udp-packet.)
 .bss           0x0000000000000000        0x0 contiki-srf06-cc26xx.a(uip-udp-packet.)
 .text          0x0000000000000000        0x0 contiki-srf06-cc26xx.a(rpl.o)
 .data          0x0000000000000000        0x0 contiki-srf06-cc26xx.a(rpl.o)
 .bss           0x0000000000000000        0x0 contiki-srf06-cc26xx.a(rpl.o)
 .text.rpl_set_mode
                0x0000000000000000       0x54 contiki-srf06-cc26xx.a(rpl.o)
 .text          0x0000000000000000        0x0 contiki-srf06-cc26xx.a(rpl-dag.o)
 .data          0x0000000000000000        0x0 contiki-srf06-cc26xx.a(rpl-dag.o)
 .bss           0x0000000000000000        0x0 contiki-srf06-cc26xx.a(rpl-dag.o)
 .text.rpl_get_nbr
                0x0000000000000000       0x2c contiki-srf06-cc26xx.a(rpl-dag.o)
 .text.rpl_get_parent_rank
                0x0000000000000000       0x20 contiki-srf06-cc26xx.a(rpl-dag.o)
 .text.rpl_get_parent_link_metric
                0x0000000000000000       0x20 contiki-srf06-cc26xx.a(rpl-dag.o)
 .text.rpl_print_neighbor_list
                0x0000000000000000      0x11c contiki-srf06-cc26xx.a(rpl-dag.o)
 .text.rpl_set_default_instance
                0x0000000000000000        0xc contiki-srf06-cc26xx.a(rpl-dag.o)
 .text.rpl_get_default_instance
                0x0000000000000000        0xc contiki-srf06-cc26xx.a(rpl-dag.o)
 .text.rpl_free_instance
                0x0000000000000000       0x74 contiki-srf06-cc26xx.a(rpl-dag.o)
 .text.rpl_has_downward_route
                0x0000000000000000       0x1c contiki-srf06-cc26xx.a(rpl-dag.o)
 .text.rpl_get_dag
                0x0000000000000000       0x3c contiki-srf06-cc26xx.a(rpl-dag.o)
 .text.rpl_find_of
                0x0000000000000000       0x14 contiki-srf06-cc26xx.a(rpl-dag.o)
 .rodata.str1.4
                0x0000000000000000       0x88 contiki-srf06-cc26xx.a(rpl-dag.o)
 .text          0x0000000000000000        0x0 contiki-srf06-cc26xx.a(rpl-ext-header.)
 .data          0x0000000000000000        0x0 contiki-srf06-cc26xx.a(rpl-ext-header.)
 .bss           0x0000000000000000        0x0 contiki-srf06-cc26xx.a(rpl-ext-header.)
 .text          0x0000000000000000        0x0 contiki-srf06-cc26xx.a(rpl-icmp6.o)
 .data          0x0000000000000000        0x0 contiki-srf06-cc26xx.a(rpl-icmp6.o)
 .bss           0x0000000000000000        0x0 contiki-srf06-cc26xx.a(rpl-icmp6.o)
 .text          0x0000000000000000        0x0 contiki-srf06-cc26xx.a(rpl-mrhof.o)
 .data          0x0000000000000000        0x0 contiki-srf06-cc26xx.a(rpl-mrhof.o)
 .bss           0x0000000000000000        0x0 contiki-srf06-cc26xx.a(rpl-mrhof.o)
 .text          0x0000000000000000        0x0 contiki-srf06-cc26xx.a(rpl-timers.o)
 .data          0x0000000000000000        0x0 contiki-srf06-cc26xx.a(rpl-timers.o)
 .bss           0x0000000000000000        0x0 contiki-srf06-cc26xx.a(rpl-timers.o)
 .text.rpl_schedule_dao_immediately
                0x0000000000000000        0x8 contiki-srf06-cc26xx.a(rpl-timers.o)
 .text.rpl_cancel_dao
                0x0000000000000000       0x18 contiki-srf06-cc26xx.a(rpl-timers.o)
 .text          0x0000000000000000        0x0 contiki-srf06-cc26xx.a(adi.o)
 .data          0x0000000000000000        0x0 contiki-srf06-cc26xx.a(adi.o)
 .bss           0x0000000000000000        0x0 contiki-srf06-cc26xx.a(adi.o)
 .text          0x0000000000000000        0x0 contiki-srf06-cc26xx.a(aon_rtc.o)
 .data          0x0000000000000000        0x0 contiki-srf06-cc26xx.a(aon_rtc.o)
 .bss           0x0000000000000000        0x0 contiki-srf06-cc26xx.a(aon_rtc.o)
 .text.NOROM_AONRTCCurrent64BitValueGet
                0x0000000000000000       0x24 contiki-srf06-cc26xx.a(aon_rtc.o)
 .text          0x0000000000000000        0x0 contiki-srf06-cc26xx.a(aux_adc.o)
 .data          0x0000000000000000        0x0 contiki-srf06-cc26xx.a(aux_adc.o)
 .bss           0x0000000000000000        0x0 contiki-srf06-cc26xx.a(aux_adc.o)
 .text.NOROM_AUXADCEnableAsync
                0x0000000000000000       0xdc contiki-srf06-cc26xx.a(aux_adc.o)
 .text.NOROM_AUXADCDisableInputScaling
                0x0000000000000000       0x38 contiki-srf06-cc26xx.a(aux_adc.o)
 .text.NOROM_AUXADCFlushFifo
                0x0000000000000000       0x14 contiki-srf06-cc26xx.a(aux_adc.o)
 .text.NOROM_AUXADCPopFifo
                0x0000000000000000        0xc contiki-srf06-cc26xx.a(aux_adc.o)
 .text.NOROM_AUXADCGetAdjustmentGain
                0x0000000000000000       0x20 contiki-srf06-cc26xx.a(aux_adc.o)
 .text.NOROM_AUXADCGetAdjustmentOffset
                0x0000000000000000       0x1c contiki-srf06-cc26xx.a(aux_adc.o)
 .text.NOROM_AUXADCValueToMicrovolts
                0x0000000000000000       0x20 contiki-srf06-cc26xx.a(aux_adc.o)
 .text.NOROM_AUXADCMicrovoltsToValue
                0x0000000000000000       0x18 contiki-srf06-cc26xx.a(aux_adc.o)
 .text.NOROM_AUXADCAdjustValueForGainAndOffset
                0x0000000000000000       0x20 contiki-srf06-cc26xx.a(aux_adc.o)
 .text.NOROM_AUXADCUnadjustValueForGainAndOffset
                0x0000000000000000       0x18 contiki-srf06-cc26xx.a(aux_adc.o)
 .text          0x0000000000000000        0x0 contiki-srf06-cc26xx.a(chipinfo.o)
 .data          0x0000000000000000        0x0 contiki-srf06-cc26xx.a(chipinfo.o)
 .bss           0x0000000000000000        0x0 contiki-srf06-cc26xx.a(chipinfo.o)
 .text.NOROM_ChipInfo_GetPackageType
                0x0000000000000000       0x18 contiki-srf06-cc26xx.a(chipinfo.o)
 .text          0x0000000000000000        0x0 contiki-srf06-cc26xx.a(cpu.o)
 .data          0x0000000000000000        0x0 contiki-srf06-cc26xx.a(cpu.o)
 .bss           0x0000000000000000        0x0 contiki-srf06-cc26xx.a(cpu.o)
 .text.NOROM_CPUprimask
                0x0000000000000000        0x8 contiki-srf06-cc26xx.a(cpu.o)
 .text.NOROM_CPUbasepriGet
                0x0000000000000000        0x8 contiki-srf06-cc26xx.a(cpu.o)
 .text.NOROM_CPUdelay
                0x0000000000000000        0x8 contiki-srf06-cc26xx.a(cpu.o)
 .text          0x0000000000000000        0x0 contiki-srf06-cc26xx.a(osc.o)
 .data          0x0000000000000000        0x0 contiki-srf06-cc26xx.a(osc.o)
 .bss           0x0000000000000000        0x0 contiki-srf06-cc26xx.a(osc.o)
 .text.NOROM_OSCHF_GetStartupTime
                0x0000000000000000       0xa4 contiki-srf06-cc26xx.a(osc.o)
 .text.NOROM_OSCHF_TurnOnXosc
                0x0000000000000000       0x1c contiki-srf06-cc26xx.a(osc.o)
 .text.NOROM_OSCHF_AttemptToSwitchToXosc
                0x0000000000000000       0x6c contiki-srf06-cc26xx.a(osc.o)
 .text.NOROM_OSCHF_SwitchToRcOscTurnOffXosc
                0x0000000000000000       0x34 contiki-srf06-cc26xx.a(osc.o)
 .text.NOROM_OSC_HPOSCRelativeFrequencyOffsetGet
                0x0000000000000000       0x48 contiki-srf06-cc26xx.a(osc.o)
 .text.NOROM_OSC_HPOSCRelativeFrequencyOffsetToRFCoreFormatConvert
                0x0000000000000000        0xc contiki-srf06-cc26xx.a(osc.o)
 .text.NOROM_OSCHF_DebugGetCrystalAmplitude
                0x0000000000000000       0x40 contiki-srf06-cc26xx.a(osc.o)
 .text.NOROM_OSCHF_DebugGetExpectedAverageCrystalAmplitude
                0x0000000000000000       0x1c contiki-srf06-cc26xx.a(osc.o)
 .bss.oscHfGlobals
                0x0000000000000000       0x14 contiki-srf06-cc26xx.a(osc.o)
 .text          0x0000000000000000        0x0 contiki-srf06-cc26xx.a(pwr_ctrl.o)
 .data          0x0000000000000000        0x0 contiki-srf06-cc26xx.a(pwr_ctrl.o)
 .bss           0x0000000000000000        0x0 contiki-srf06-cc26xx.a(pwr_ctrl.o)
 .text          0x0000000000000000        0x0 contiki-srf06-cc26xx.a(setup.o)
 .data          0x0000000000000000        0x0 contiki-srf06-cc26xx.a(setup.o)
 .bss           0x0000000000000000        0x0 contiki-srf06-cc26xx.a(setup.o)
 .text          0x0000000000000000        0x0 contiki-srf06-cc26xx.a(setup_rom.o)
 .data          0x0000000000000000        0x0 contiki-srf06-cc26xx.a(setup_rom.o)
 .bss           0x0000000000000000        0x0 contiki-srf06-cc26xx.a(setup_rom.o)
 .text.NOROM_SetupGetTrimForRcOscLfRtuneCtuneTrim
                0x0000000000000000       0x1c contiki-srf06-cc26xx.a(setup_rom.o)
 .text.NOROM_SetupGetTrimForXoscHfIbiastherm
                0x0000000000000000       0x10 contiki-srf06-cc26xx.a(setup_rom.o)
 .text.NOROM_SetupGetTrimForAmpcompTh2
                0x0000000000000000       0x10 contiki-srf06-cc26xx.a(setup_rom.o)
 .text.NOROM_SetupGetTrimForAmpcompTh1
                0x0000000000000000       0x14 contiki-srf06-cc26xx.a(setup_rom.o)
 .text.NOROM_SetupGetTrimForDblrLoopFilterResetVoltage
                0x0000000000000000       0x18 contiki-srf06-cc26xx.a(setup_rom.o)
 .text.NOROM_SetupGetTrimForAdcShModeEn
                0x0000000000000000       0x18 contiki-srf06-cc26xx.a(setup_rom.o)
 .text.NOROM_SetupGetTrimForAdcShVbufEn
                0x0000000000000000       0x18 contiki-srf06-cc26xx.a(setup_rom.o)
 .text.NOROM_SetupGetTrimForXoscHfCtl
                0x0000000000000000       0x28 contiki-srf06-cc26xx.a(setup_rom.o)
 .text.NOROM_SetupGetTrimForXoscHfFastStart
                0x0000000000000000       0x10 contiki-srf06-cc26xx.a(setup_rom.o)
 .text.NOROM_SetupGetTrimForRadcExtCfg
                0x0000000000000000       0x30 contiki-srf06-cc26xx.a(setup_rom.o)
 .text.NOROM_SetupGetTrimForRcOscLfIBiasTrim
                0x0000000000000000       0x18 contiki-srf06-cc26xx.a(setup_rom.o)
 .text.NOROM_SetupGetTrimForXoscLfRegulatorAndCmirrwrRatio
                0x0000000000000000       0x18 contiki-srf06-cc26xx.a(setup_rom.o)
 .text.NOROM_SetupSetAonRtcSubSecInc
                0x0000000000000000       0x48 contiki-srf06-cc26xx.a(setup_rom.o)
 .text          0x0000000000000000        0x0 contiki-srf06-cc26xx.a(sys_ctrl.o)
 .data          0x0000000000000000        0x0 contiki-srf06-cc26xx.a(sys_ctrl.o)
 .bss           0x0000000000000000        0x0 contiki-srf06-cc26xx.a(sys_ctrl.o)
 .text.NOROM_SysCtrlPowerEverything
                0x0000000000000000      0x120 contiki-srf06-cc26xx.a(sys_ctrl.o)
 .text.NOROM_SysCtrlResetSourceGet
                0x0000000000000000       0x18 contiki-srf06-cc26xx.a(sys_ctrl.o)
 .rodata.g_pui32ModuleCG
                0x0000000000000000       0x34 contiki-srf06-cc26xx.a(sys_ctrl.o)
 .text          0x0000000000000000        0x0 contiki-srf06-cc26xx.a(trng.o)
 .data          0x0000000000000000        0x0 contiki-srf06-cc26xx.a(trng.o)
 .bss           0x0000000000000000        0x0 contiki-srf06-cc26xx.a(trng.o)
 .text.NOROM_TRNGNumberGet
                0x0000000000000000       0x20 contiki-srf06-cc26xx.a(trng.o)
 .text          0x0000000000000000        0x0 contiki-srf06-cc26xx.a(linkaddr.o)
 .data          0x0000000000000000        0x0 contiki-srf06-cc26xx.a(linkaddr.o)
 .bss           0x0000000000000000        0x0 contiki-srf06-cc26xx.a(linkaddr.o)
 .text.linkaddr_set_node_addr
                0x0000000000000000       0x14 contiki-srf06-cc26xx.a(linkaddr.o)
 .text          0x0000000000000000        0x0 contiki-srf06-cc26xx.a(link-stats.o)
 .data          0x0000000000000000        0x0 contiki-srf06-cc26xx.a(link-stats.o)
 .bss           0x0000000000000000        0x0 contiki-srf06-cc26xx.a(link-stats.o)
 .text.guess_etx_from_rssi
                0x0000000000000000       0x40 contiki-srf06-cc26xx.a(link-stats.o)
 .text          0x0000000000000000        0x0 contiki-srf06-cc26xx.a(nbr-table.o)
 .data          0x0000000000000000        0x0 contiki-srf06-cc26xx.a(nbr-table.o)
 .bss           0x0000000000000000        0x0 contiki-srf06-cc26xx.a(nbr-table.o)
 .text.nbr_table_update_lladdr
                0x0000000000000000       0x5c contiki-srf06-cc26xx.a(nbr-table.o)
 .text          0x0000000000000000        0x0 contiki-srf06-cc26xx.a(netstack.o)
 .data          0x0000000000000000        0x0 contiki-srf06-cc26xx.a(netstack.o)
 .bss           0x0000000000000000        0x0 contiki-srf06-cc26xx.a(netstack.o)
 .text          0x0000000000000000        0x0 contiki-srf06-cc26xx.a(packetbuf.o)
 .data          0x0000000000000000        0x0 contiki-srf06-cc26xx.a(packetbuf.o)
 .bss           0x0000000000000000        0x0 contiki-srf06-cc26xx.a(packetbuf.o)
 .text.packetbuf_compact
                0x0000000000000000       0x50 contiki-srf06-cc26xx.a(packetbuf.o)
 .text.packetbuf_hdrlen
                0x0000000000000000       0x1c contiki-srf06-cc26xx.a(packetbuf.o)
 .text.packetbuf_remaininglen
                0x0000000000000000       0x2c contiki-srf06-cc26xx.a(packetbuf.o)
 .text          0x0000000000000000        0x0 contiki-srf06-cc26xx.a(queuebuf.o)
 .data          0x0000000000000000        0x0 contiki-srf06-cc26xx.a(queuebuf.o)
 .bss           0x0000000000000000        0x0 contiki-srf06-cc26xx.a(queuebuf.o)
 .text.queuebuf_update_from_packetbuf
                0x0000000000000000       0x1c contiki-srf06-cc26xx.a(queuebuf.o)
 .text.queuebuf_dataptr
                0x0000000000000000       0x18 contiki-srf06-cc26xx.a(queuebuf.o)
 .text.queuebuf_datalen
                0x0000000000000000        0x8 contiki-srf06-cc26xx.a(queuebuf.o)
 .text.queuebuf_addr
                0x0000000000000000        0xc contiki-srf06-cc26xx.a(queuebuf.o)
 .text.queuebuf_debug_print
                0x0000000000000000        0x4 contiki-srf06-cc26xx.a(queuebuf.o)
 .text          0x0000000000000000        0x0 contiki-srf06-cc26xx.a(csma.o)
 .data          0x0000000000000000        0x0 contiki-srf06-cc26xx.a(csma.o)
 .bss           0x0000000000000000        0x0 contiki-srf06-cc26xx.a(csma.o)
 .text.csma_allocated_packets
                0x0000000000000000       0x14 contiki-srf06-cc26xx.a(csma.o)
 .text.csma_allocated_neighbors
                0x0000000000000000       0x14 contiki-srf06-cc26xx.a(csma.o)
 .text          0x0000000000000000        0x0 contiki-srf06-cc26xx.a(frame802154.o)
 .data          0x0000000000000000        0x0 contiki-srf06-cc26xx.a(frame802154.o)
 .bss           0x0000000000000000        0x0 contiki-srf06-cc26xx.a(frame802154.o)
 .text.frame802154_set_pan_id
                0x0000000000000000        0xc contiki-srf06-cc26xx.a(frame802154.o)
 .text.frame802154_check_dest_panid
                0x0000000000000000       0x3c contiki-srf06-cc26xx.a(frame802154.o)
 .text.frame802154_extract_linkaddr
                0x0000000000000000       0xa0 contiki-srf06-cc26xx.a(frame802154.o)
 .text          0x0000000000000000        0x0 contiki-srf06-cc26xx.a(mac.o)
 .data          0x0000000000000000        0x0 contiki-srf06-cc26xx.a(mac.o)
 .bss           0x0000000000000000        0x0 contiki-srf06-cc26xx.a(mac.o)
 .text          0x0000000000000000        0x0 contiki-srf06-cc26xx.a(nullrdc.o)
 .data          0x0000000000000000        0x0 contiki-srf06-cc26xx.a(nullrdc.o)
 .bss           0x0000000000000000        0x0 contiki-srf06-cc26xx.a(nullrdc.o)
 .text          0x0000000000000000        0x0 contiki-srf06-cc26xx.a(noncoresec.o)
 .data          0x0000000000000000        0x0 contiki-srf06-cc26xx.a(noncoresec.o)
 .bss           0x0000000000000000        0x0 contiki-srf06-cc26xx.a(noncoresec.o)
 .text          0x0000000000000000        0x0 contiki-srf06-cc26xx.a(smartrf-setting)
 .data          0x0000000000000000        0x0 contiki-srf06-cc26xx.a(smartrf-setting)
 .bss           0x0000000000000000        0x0 contiki-srf06-cc26xx.a(smartrf-setting)
 .text          0x0000000000000000        0x0 contiki-srf06-cc26xx.a(stimer.o)
 .data          0x0000000000000000        0x0 contiki-srf06-cc26xx.a(stimer.o)
 .bss           0x0000000000000000        0x0 contiki-srf06-cc26xx.a(stimer.o)
 .text.stimer_reset
                0x0000000000000000        0xc contiki-srf06-cc26xx.a(stimer.o)
 .text.stimer_restart
                0x0000000000000000        0xc contiki-srf06-cc26xx.a(stimer.o)
 .text.stimer_remaining
                0x0000000000000000       0x10 contiki-srf06-cc26xx.a(stimer.o)
 .text.stimer_elapsed
                0x0000000000000000       0x10 contiki-srf06-cc26xx.a(stimer.o)
 .text          0x0000000000000000        0x0 contiki-srf06-cc26xx.a(ccm-star.o)
 .data          0x0000000000000000        0x0 contiki-srf06-cc26xx.a(ccm-star.o)
 .bss           0x0000000000000000        0x0 contiki-srf06-cc26xx.a(ccm-star.o)
 .text          0x0000000000000000        0x0 contiki-srf06-cc26xx.a(memb.o)
 .data          0x0000000000000000        0x0 contiki-srf06-cc26xx.a(memb.o)
 .bss           0x0000000000000000        0x0 contiki-srf06-cc26xx.a(memb.o)
 .text          0x0000000000000000        0x0 contiki-srf06-cc26xx.a(rpl-nbr-policy.)
 .data          0x0000000000000000        0x0 contiki-srf06-cc26xx.a(rpl-nbr-policy.)
 .bss           0x0000000000000000        0x0 contiki-srf06-cc26xx.a(rpl-nbr-policy.)
 .text.find_removable_dis
                0x0000000000000000       0x24 contiki-srf06-cc26xx.a(rpl-nbr-policy.)
 .text          0x0000000000000000        0x0 contiki-srf06-cc26xx.a(aon_batmon.o)
 .data          0x0000000000000000        0x0 contiki-srf06-cc26xx.a(aon_batmon.o)
 .bss           0x0000000000000000        0x0 contiki-srf06-cc26xx.a(aon_batmon.o)
 .text          0x0000000000000000        0x0 contiki-srf06-cc26xx.a(ddi.o)
 .data          0x0000000000000000        0x0 contiki-srf06-cc26xx.a(ddi.o)
 .bss           0x0000000000000000        0x0 contiki-srf06-cc26xx.a(ddi.o)
 .text.NOROM_DDI16BitWrite
                0x0000000000000000       0x50 contiki-srf06-cc26xx.a(ddi.o)
 .text.NOROM_DDI16BitfieldWrite
                0x0000000000000000       0x50 contiki-srf06-cc26xx.a(ddi.o)
 .text.NOROM_DDI16BitRead
                0x0000000000000000       0x40 contiki-srf06-cc26xx.a(ddi.o)
 .text.NOROM_DDI16BitfieldRead
                0x0000000000000000       0x54 contiki-srf06-cc26xx.a(ddi.o)
 .text          0x0000000000000000        0x0 contiki-srf06-cc26xx.a(framer-802154.o)
 .data          0x0000000000000000        0x0 contiki-srf06-cc26xx.a(framer-802154.o)
 .bss           0x0000000000000000        0x0 contiki-srf06-cc26xx.a(framer-802154.o)
 .text          0x0000000000000000        0x0 contiki-srf06-cc26xx.a(anti-replay.o)
 .data          0x0000000000000000        0x0 contiki-srf06-cc26xx.a(anti-replay.o)
 .bss           0x0000000000000000        0x0 contiki-srf06-cc26xx.a(anti-replay.o)
 .text.anti_replay_parse_counter
                0x0000000000000000       0x18 contiki-srf06-cc26xx.a(anti-replay.o)
 .text          0x0000000000000000        0x0 contiki-srf06-cc26xx.a(ccm-star-packet)
 .data          0x0000000000000000        0x0 contiki-srf06-cc26xx.a(ccm-star-packet)
 .bss           0x0000000000000000        0x0 contiki-srf06-cc26xx.a(ccm-star-packet)
 .text          0x0000000000000000        0x0 contiki-srf06-cc26xx.a(aes-128.o)
 .data          0x0000000000000000        0x0 contiki-srf06-cc26xx.a(aes-128.o)
 .bss           0x0000000000000000        0x0 contiki-srf06-cc26xx.a(aes-128.o)
 .text.aes_128_set_padded_key
                0x0000000000000000       0x24 contiki-srf06-cc26xx.a(aes-128.o)
 .data          0x0000000000000000        0x0 /usr/lib/gcc/arm-none-eabi/4.8.2/armv7-m/libgcc.a(_aeabi_uldivmod.o)
 .bss           0x0000000000000000        0x0 /usr/lib/gcc/arm-none-eabi/4.8.2/armv7-m/libgcc.a(_aeabi_uldivmod.o)
 .data          0x0000000000000000        0x0 /usr/lib/gcc/arm-none-eabi/4.8.2/armv7-m/libgcc.a(bpabi.o)
 .bss           0x0000000000000000        0x0 /usr/lib/gcc/arm-none-eabi/4.8.2/armv7-m/libgcc.a(bpabi.o)
 .data          0x0000000000000000        0x0 /usr/lib/gcc/arm-none-eabi/4.8.2/armv7-m/libgcc.a(_dvmd_tls.o)
 .bss           0x0000000000000000        0x0 /usr/lib/gcc/arm-none-eabi/4.8.2/armv7-m/libgcc.a(_dvmd_tls.o)
 .data          0x0000000000000000        0x0 /usr/lib/gcc/arm-none-eabi/4.8.2/armv7-m/libgcc.a(_divdi3.o)
 .bss           0x0000000000000000        0x0 /usr/lib/gcc/arm-none-eabi/4.8.2/armv7-m/libgcc.a(_divdi3.o)
 .ARM.extab     0x0000000000000000        0x0 /usr/lib/gcc/arm-none-eabi/4.8.2/armv7-m/libgcc.a(_divdi3.o)
 .data          0x0000000000000000        0x0 /usr/lib/gcc/arm-none-eabi/4.8.2/armv7-m/libgcc.a(_udivdi3.o)
 .bss           0x0000000000000000        0x0 /usr/lib/gcc/arm-none-eabi/4.8.2/armv7-m/libgcc.a(_udivdi3.o)
 .ARM.extab     0x0000000000000000        0x0 /usr/lib/gcc/arm-none-eabi/4.8.2/armv7-m/libgcc.a(_udivdi3.o)
 .text          0x0000000000000000        0x0 /usr/lib/gcc/arm-none-eabi/4.8.2/../../../arm-none-eabi/lib/armv7-m/libc.a(lib_a-memcmp.o)
 .data          0x0000000000000000        0x0 /usr/lib/gcc/arm-none-eabi/4.8.2/../../../arm-none-eabi/lib/armv7-m/libc.a(lib_a-memcmp.o)
 .bss           0x0000000000000000        0x0 /usr/lib/gcc/arm-none-eabi/4.8.2/../../../arm-none-eabi/lib/armv7-m/libc.a(lib_a-memcmp.o)
 .data          0x0000000000000000        0x0 /usr/lib/gcc/arm-none-eabi/4.8.2/../../../arm-none-eabi/lib/armv7-m/libc.a(lib_a-memcpy.o)
 .bss           0x0000000000000000        0x0 /usr/lib/gcc/arm-none-eabi/4.8.2/../../../arm-none-eabi/lib/armv7-m/libc.a(lib_a-memcpy.o)
 .text          0x0000000000000000        0x0 /usr/lib/gcc/arm-none-eabi/4.8.2/../../../arm-none-eabi/lib/armv7-m/libc.a(lib_a-memmove.o)
 .data          0x0000000000000000        0x0 /usr/lib/gcc/arm-none-eabi/4.8.2/../../../arm-none-eabi/lib/armv7-m/libc.a(lib_a-memmove.o)
 .bss           0x0000000000000000        0x0 /usr/lib/gcc/arm-none-eabi/4.8.2/../../../arm-none-eabi/lib/armv7-m/libc.a(lib_a-memmove.o)
 .text          0x0000000000000000        0x0 /usr/lib/gcc/arm-none-eabi/4.8.2/../../../arm-none-eabi/lib/armv7-m/libc.a(lib_a-memset.o)
 .data          0x0000000000000000        0x0 /usr/lib/gcc/arm-none-eabi/4.8.2/../../../arm-none-eabi/lib/armv7-m/libc.a(lib_a-memset.o)
 .bss           0x0000000000000000        0x0 /usr/lib/gcc/arm-none-eabi/4.8.2/../../../arm-none-eabi/lib/armv7-m/libc.a(lib_a-memset.o)
 .text          0x0000000000000000        0x0 /usr/lib/gcc/arm-none-eabi/4.8.2/../../../arm-none-eabi/lib/armv7-m/libc.a(lib_a-strlen.o)
 .data          0x0000000000000000        0x0 /usr/lib/gcc/arm-none-eabi/4.8.2/../../../arm-none-eabi/lib/armv7-m/libc.a(lib_a-strlen.o)
 .bss           0x0000000000000000        0x0 /usr/lib/gcc/arm-none-eabi/4.8.2/../../../arm-none-eabi/lib/armv7-m/libc.a(lib_a-strlen.o)
 .text          0x0000000000000000        0x0 /usr/lib/gcc/arm-none-eabi/4.8.2/../../../arm-none-eabi/lib/armv7-m/libc.a(lib_a-strncmp.o)
 .data          0x0000000000000000        0x0 /usr/lib/gcc/arm-none-eabi/4.8.2/../../../arm-none-eabi/lib/armv7-m/libc.a(lib_a-strncmp.o)
 .bss           0x0000000000000000        0x0 /usr/lib/gcc/arm-none-eabi/4.8.2/../../../arm-none-eabi/lib/armv7-m/libc.a(lib_a-strncmp.o)

Memory Configuration

Name             Origin             Length             Attributes
FLASH            0x0000000000000000 0x000000000001ffa8 xr
FLASH_CCFG       0x000000000001ffa8 0x0000000000000058 xr
SRAM             0x0000000020000000 0x0000000000005000 xrw
GPRAM            0x0000000011000000 0x0000000000002000 xrw
*default*        0x0000000000000000 0xffffffffffffffff

Linker script and memory map

LOAD obj_srf06-cc26xx/fault-handlers.o
LOAD obj_srf06-cc26xx/ccfg.o
LOAD obj_srf06-cc26xx/startup_gcc.o
LOAD udp-server.co
LOAD contiki-srf06-cc26xx.a
LOAD /usr/lib/gcc/arm-none-eabi/4.8.2/../../../arm-none-eabi/lib/armv7-m/libm.a
START GROUP
LOAD /usr/lib/gcc/arm-none-eabi/4.8.2/armv7-m/libgcc.a
LOAD /usr/lib/gcc/arm-none-eabi/4.8.2/../../../arm-none-eabi/lib/armv7-m/libc.a
END GROUP
                0x0000000020005000                _estack = (ORIGIN (SRAM) + 0x5000)
                0x0000000000000000                _Min_Heap_Size = 0x0
                0x0000000000000100                _Min_Stack_Size = 0x100

.text           0x0000000000000000    0x10484
                0x0000000000000000                _text = .
 *(SORT(.vectors))
 .vectors       0x0000000000000000       0xc8 obj_srf06-cc26xx/startup_gcc.o
                0x0000000000000000                g_pfnVectors
 *(SORT(.text*))
 .text.FaultISR
                0x00000000000000c8       0x1c obj_srf06-cc26xx/fault-handlers.o
                0x00000000000000c8                FaultISR
 .text.NmiSRHandler
                0x00000000000000e4        0x4 obj_srf06-cc26xx/startup_gcc.o
                0x00000000000000e4                NmiSR
 .text.IntDefaultHandler
                0x00000000000000e8        0x4 obj_srf06-cc26xx/startup_gcc.o
                0x00000000000000e8                SSI0IntHandler
                0x00000000000000e8                SWEvent0IntHandler
                0x00000000000000e8                uDMAIntHandler
                0x00000000000000e8                WatchdogIntHandler
                0x00000000000000e8                RFCHardwareIntHandler
                0x00000000000000e8                Timer1BIntHandler
                0x00000000000000e8                I2SIntHandler
                0x00000000000000e8                Timer2BIntHandler
                0x00000000000000e8                Timer2AIntHandler
                0x00000000000000e8                Timer1AIntHandler
                0x00000000000000e8                AONIntHandler
                0x00000000000000e8                AUXSWEvent0IntHandler
                0x00000000000000e8                AUXADCIntHandler
                0x00000000000000e8                PendSVIntHandler
                0x00000000000000e8                AUXSWEvent1IntHandler
                0x00000000000000e8                SVCallIntHandler
                0x00000000000000e8                MPUFaultIntHandler
                0x00000000000000e8                SysTickIntHandler
                0x00000000000000e8                BusFaultIntHandler
                0x00000000000000e8                AONProgIntHandler
                0x00000000000000e8                AUXCompAIntHandler
                0x00000000000000e8                SSI1IntHandler
                0x00000000000000e8                FlashIntHandler
                0x00000000000000e8                uDMAErrIntHandler
                0x00000000000000e8                UsageFaultIntHandler
                0x00000000000000e8                RFCCmdAckIntHandler
                0x00000000000000e8                CryptoIntHandler
                0x00000000000000e8                Timer0AIntHandler
                0x00000000000000e8                I2CIntHandler
                0x00000000000000e8                DebugMonIntHandler
                0x00000000000000e8                Timer0BIntHandler
                0x00000000000000e8                AUXCombEventIntHandler
                0x00000000000000e8                Timer3AIntHandler
                0x00000000000000e8                DynProgIntHandler
                0x00000000000000e8                Timer3BIntHandler
 .text.ResetISR
                0x00000000000000ec       0x5c obj_srf06-cc26xx/startup_gcc.o
                0x00000000000000ec                ResetISR
 .text.nbr_lookup_add
                0x0000000000000148       0x2c udp-server.co
                0x0000000000000148                nbr_lookup_add
 .text.process_thread_udp_server_process
                0x0000000000000174      0x578 udp-server.co
 .text.fade     0x00000000000006ec       0x64 contiki-srf06-cc26xx.a(contiki-main.o)
 .text.startup.main
                0x0000000000000750      0x28c contiki-srf06-cc26xx.a(contiki-main.o)
                0x0000000000000750                main
 .text.process_thread_sensors_process
                0x00000000000009dc      0x138 contiki-srf06-cc26xx.a(sensors.o)
 .text.sensors_changed
                0x0000000000000b14       0x54 contiki-srf06-cc26xx.a(sensors.o)
                0x0000000000000b14                sensors_changed
 .text.leds_init
                0x0000000000000b68       0x14 contiki-srf06-cc26xx.a(leds.o)
                0x0000000000000b68                leds_init
 .text.leds_on  0x0000000000000b7c       0x14 contiki-srf06-cc26xx.a(leds.o)
                0x0000000000000b7c                leds_on
 .text.leds_off
                0x0000000000000b90       0x18 contiki-srf06-cc26xx.a(leds.o)
                0x0000000000000b90                leds_off
 .text.leds_arch_init
                0x0000000000000ba8       0x4c contiki-srf06-cc26xx.a(leds-arch.o)
                0x0000000000000ba8                leds_arch_init
 .text.leds_arch_set
                0x0000000000000bf4       0x68 contiki-srf06-cc26xx.a(leds-arch.o)
                0x0000000000000bf4                leds_arch_set
 .text.button_press_handler
                0x0000000000000c5c      0x148 contiki-srf06-cc26xx.a(button-sensor.o)
 .text.value_select
                0x0000000000000da4       0x28 contiki-srf06-cc26xx.a(button-sensor.o)
 .text.value_left
                0x0000000000000dcc       0x28 contiki-srf06-cc26xx.a(button-sensor.o)
 .text.value_right
                0x0000000000000df4       0x1c contiki-srf06-cc26xx.a(button-sensor.o)
 .text.value_up
                0x0000000000000e10       0x28 contiki-srf06-cc26xx.a(button-sensor.o)
 .text.value_down
                0x0000000000000e38       0x28 contiki-srf06-cc26xx.a(button-sensor.o)
 .text.status.part.5
                0x0000000000000e60       0x18 contiki-srf06-cc26xx.a(button-sensor.o)
 .text.status_select
                0x0000000000000e78       0x10 contiki-srf06-cc26xx.a(button-sensor.o)
 .text.status_left
                0x0000000000000e88       0x10 contiki-srf06-cc26xx.a(button-sensor.o)
 .text.status_right
                0x0000000000000e98       0x10 contiki-srf06-cc26xx.a(button-sensor.o)
 .text.status_up
                0x0000000000000ea8       0x10 contiki-srf06-cc26xx.a(button-sensor.o)
 .text.status_down
                0x0000000000000eb8       0x10 contiki-srf06-cc26xx.a(button-sensor.o)
 .text.config_buttons
                0x0000000000000ec8       0xa0 contiki-srf06-cc26xx.a(button-sensor.o)
 .text.config_select
                0x0000000000000f68        0xc contiki-srf06-cc26xx.a(button-sensor.o)
 .text.config_left
                0x0000000000000f74        0xc contiki-srf06-cc26xx.a(button-sensor.o)
 .text.config_right
                0x0000000000000f80        0xc contiki-srf06-cc26xx.a(button-sensor.o)
 .text.config_up
                0x0000000000000f8c        0xc contiki-srf06-cc26xx.a(button-sensor.o)
 .text.config_down
                0x0000000000000f98        0xc contiki-srf06-cc26xx.a(button-sensor.o)
 .text.lpm_handler
                0x0000000000000fa4       0x38 contiki-srf06-cc26xx.a(board.o)
 .text.wakeup_handler
                0x0000000000000fdc       0x20 contiki-srf06-cc26xx.a(board.o)
 .text.board_init
                0x0000000000000ffc       0x7c contiki-srf06-cc26xx.a(board.o)
                0x0000000000000ffc                board_init
 .text.status   0x0000000000001078        0x4 contiki-srf06-cc26xx.a(als-sensor.o)
 .text.value    0x000000000000107c       0x28 contiki-srf06-cc26xx.a(als-sensor.o)
 .text.config   0x00000000000010a4       0x9c contiki-srf06-cc26xx.a(als-sensor.o)
 .text.get_object
                0x0000000000001140        0x4 contiki-srf06-cc26xx.a(prop-mode.o)
 .text.set_object
                0x0000000000001144        0x4 contiki-srf06-cc26xx.a(prop-mode.o)
 .text.set_channel
                0x0000000000001148       0x64 contiki-srf06-cc26xx.a(prop-mode.o)
 .text.request  0x00000000000011ac       0x20 contiki-srf06-cc26xx.a(prop-mode.o)
 .text.soft_off_prop
                0x00000000000011cc       0x4c contiki-srf06-cc26xx.a(prop-mode.o)
 .text.prop_div_radio_setup
                0x0000000000001218       0x64 contiki-srf06-cc26xx.a(prop-mode.o)
 .text.prop_fs  0x000000000000127c       0x50 contiki-srf06-cc26xx.a(prop-mode.o)
 .text.prepare  0x00000000000012cc       0x1c contiki-srf06-cc26xx.a(prop-mode.o)
 .text.pending_packet
                0x00000000000012e8       0x38 contiki-srf06-cc26xx.a(prop-mode.o)
 .text.read_frame
                0x0000000000001320       0x54 contiki-srf06-cc26xx.a(prop-mode.o)
 .text.rx_off_prop
                0x0000000000001374       0x6c contiki-srf06-cc26xx.a(prop-mode.o)
 .text.rx_on_prop
                0x00000000000013e0       0xbc contiki-srf06-cc26xx.a(prop-mode.o)
 .text.soft_on_prop
                0x000000000000149c       0x3c contiki-srf06-cc26xx.a(prop-mode.o)
 .text.off      0x00000000000014d8       0x3c contiki-srf06-cc26xx.a(prop-mode.o)
 .text.on       0x0000000000001514      0x160 contiki-srf06-cc26xx.a(prop-mode.o)
 .text.set_value
                0x0000000000001674      0x16c contiki-srf06-cc26xx.a(prop-mode.o)
 .text.get_value
                0x00000000000017e0      0x144 contiki-srf06-cc26xx.a(prop-mode.o)
 .text.transmit
                0x0000000000001924       0xf0 contiki-srf06-cc26xx.a(prop-mode.o)
 .text.send     0x0000000000001a14       0x24 contiki-srf06-cc26xx.a(prop-mode.o)
 .text.channel_clear
                0x0000000000001a38       0x94 contiki-srf06-cc26xx.a(prop-mode.o)
 .text.receiving_packet
                0x0000000000001acc       0x28 contiki-srf06-cc26xx.a(prop-mode.o)
 .text.init     0x0000000000001af4       0xe0 contiki-srf06-cc26xx.a(prop-mode.o)
 .text.power_domain_on
                0x0000000000001bd4       0x20 contiki-srf06-cc26xx.a(clock.o)
 .text.clock_init
                0x0000000000001bf4       0xac contiki-srf06-cc26xx.a(clock.o)
                0x0000000000001bf4                clock_init
 .text.clock_time
                0x0000000000001ca0       0x38 contiki-srf06-cc26xx.a(clock.o)
                0x0000000000001ca0                clock_time
 .text.clock_update
                0x0000000000001cd8       0x40 contiki-srf06-cc26xx.a(clock.o)
                0x0000000000001cd8                clock_update
 .text.clock_seconds
                0x0000000000001d18       0x1c contiki-srf06-cc26xx.a(clock.o)
                0x0000000000001d18                clock_seconds
 .text.clock_delay_usec
                0x0000000000001d34       0xa4 contiki-srf06-cc26xx.a(clock.o)
                0x0000000000001d34                clock_delay_usec
 .text.rtimer_arch_init
                0x0000000000001dd8        0x4 contiki-srf06-cc26xx.a(rtimer-arch.o)
                0x0000000000001dd8                rtimer_arch_init
 .text.rtimer_arch_schedule
                0x0000000000001ddc        0x8 contiki-srf06-cc26xx.a(rtimer-arch.o)
                0x0000000000001ddc                rtimer_arch_schedule
 .text.rtimer_arch_now
                0x0000000000001de4        0x4 contiki-srf06-cc26xx.a(rtimer-arch.o)
                0x0000000000001de4                rtimer_arch_now
 .text.soc_rtc_init
                0x0000000000001de8       0xac contiki-srf06-cc26xx.a(soc-rtc.o)
                0x0000000000001de8                soc_rtc_init
 .text.soc_rtc_schedule_one_shot
                0x0000000000001e94       0x6c contiki-srf06-cc26xx.a(soc-rtc.o)
                0x0000000000001e94                soc_rtc_schedule_one_shot
 .text.soc_rtc_last_isr_time
                0x0000000000001f00        0xc contiki-srf06-cc26xx.a(soc-rtc.o)
                0x0000000000001f00                soc_rtc_last_isr_time
 .text.AONRTCIntHandler
                0x0000000000001f0c       0xa0 contiki-srf06-cc26xx.a(soc-rtc.o)
                0x0000000000001f0c                AONRTCIntHandler
 .text.lock_config
                0x0000000000001fac       0x1c contiki-srf06-cc26xx.a(contiki-watchdo)
 .text.unlock_config
                0x0000000000001fc8       0x30 contiki-srf06-cc26xx.a(contiki-watchdo)
 .text.watchdog_init
                0x0000000000001ff8       0x20 contiki-srf06-cc26xx.a(contiki-watchdo)
                0x0000000000001ff8                watchdog_init
 .text.watchdog_start
                0x0000000000002018       0x34 contiki-srf06-cc26xx.a(contiki-watchdo)
                0x0000000000002018                watchdog_start
 .text.watchdog_periodic
                0x000000000000204c       0x1c contiki-srf06-cc26xx.a(contiki-watchdo)
                0x000000000000204c                watchdog_periodic
 .text.aux_ctrl_power_up
                0x0000000000002068       0x2c contiki-srf06-cc26xx.a(aux-ctrl.o)
                0x0000000000002068                aux_ctrl_power_up
 .text.aux_ctrl_register_consumer
                0x0000000000002094       0x44 contiki-srf06-cc26xx.a(aux-ctrl.o)
                0x0000000000002094                aux_ctrl_register_consumer
 .text.aux_ctrl_power_down
                0x00000000000020d8       0x80 contiki-srf06-cc26xx.a(aux-ctrl.o)
                0x00000000000020d8                aux_ctrl_power_down
 .text.aux_ctrl_unregister_consumer
                0x0000000000002158       0x2c contiki-srf06-cc26xx.a(aux-ctrl.o)
                0x0000000000002158                aux_ctrl_unregister_consumer
 .text.putchar  0x0000000000002184       0x10 contiki-srf06-cc26xx.a(putchar.o)
                0x0000000000002184                putchar
 .text.puts     0x0000000000002194       0x2c contiki-srf06-cc26xx.a(putchar.o)
                0x0000000000002194                puts
 .text.dbg_send_bytes
                0x00000000000021c0       0x40 contiki-srf06-cc26xx.a(putchar.o)
                0x00000000000021c0                dbg_send_bytes
 .text.ieee_addr_cpy_to
                0x0000000000002200       0x4c contiki-srf06-cc26xx.a(ieee-addr.o)
                0x0000000000002200                ieee_addr_cpy_to
 .text.power_and_clock
                0x000000000000224c       0x4c contiki-srf06-cc26xx.a(cc26xx-uart.o)
 .text.enable   0x0000000000002298      0x108 contiki-srf06-cc26xx.a(cc26xx-uart.o)
 .text.accessible
                0x00000000000023a0       0x2c contiki-srf06-cc26xx.a(cc26xx-uart.o)
 .text.lpm_drop_handler
                0x00000000000023cc       0xe0 contiki-srf06-cc26xx.a(cc26xx-uart.o)
 .text.cc26xx_uart_init
                0x00000000000024ac       0x2c contiki-srf06-cc26xx.a(cc26xx-uart.o)
                0x00000000000024ac                cc26xx_uart_init
 .text.cc26xx_uart_write_byte
                0x00000000000024d8       0x28 contiki-srf06-cc26xx.a(cc26xx-uart.o)
                0x00000000000024d8                cc26xx_uart_write_byte
 .text.cc26xx_uart_set_input
                0x0000000000002500       0x78 contiki-srf06-cc26xx.a(cc26xx-uart.o)
                0x0000000000002500                cc26xx_uart_set_input
 .text.cc26xx_uart_busy
                0x0000000000002578       0x18 contiki-srf06-cc26xx.a(cc26xx-uart.o)
                0x0000000000002578                cc26xx_uart_busy
 .text.UART0IntHandler
                0x0000000000002590       0x60 contiki-srf06-cc26xx.a(cc26xx-uart.o)
                0x0000000000002590                UART0IntHandler
 .text.lpm_shutdown
                0x00000000000025f0      0x1bc contiki-srf06-cc26xx.a(lpm.o)
                0x00000000000025f0                lpm_shutdown
 .text.lpm_sleep
                0x00000000000027ac       0x14 contiki-srf06-cc26xx.a(lpm.o)
                0x00000000000027ac                lpm_sleep
 .text.lpm_drop
                0x00000000000027c0      0x2a4 contiki-srf06-cc26xx.a(lpm.o)
                0x00000000000027c0                lpm_drop
 .text.lpm_register_module
                0x0000000000002a64       0x10 contiki-srf06-cc26xx.a(lpm.o)
                0x0000000000002a64                lpm_register_module
 .text.lpm_unregister_module
                0x0000000000002a74       0x10 contiki-srf06-cc26xx.a(lpm.o)
                0x0000000000002a74                lpm_unregister_module
 .text.lpm_init
                0x0000000000002a84       0x24 contiki-srf06-cc26xx.a(lpm.o)
                0x0000000000002a84                lpm_init
 .text.lpm_pin_set_default_state
                0x0000000000002aa8       0x30 contiki-srf06-cc26xx.a(lpm.o)
                0x0000000000002aa8                lpm_pin_set_default_state
 .text.gpio_interrupt_register_handler
                0x0000000000002ad8       0x30 contiki-srf06-cc26xx.a(gpio-interrupt.)
                0x0000000000002ad8                gpio_interrupt_register_handler
 .text.gpio_interrupt_init
                0x0000000000002b08       0x28 contiki-srf06-cc26xx.a(gpio-interrupt.)
                0x0000000000002b08                gpio_interrupt_init
 .text.GPIOIntHandler
                0x0000000000002b30       0x34 contiki-srf06-cc26xx.a(gpio-interrupt.)
                0x0000000000002b30                GPIOIntHandler
 .text.oscillators_select_lf_xosc
                0x0000000000002b64       0x5c contiki-srf06-cc26xx.a(oscillators.o)
                0x0000000000002b64                oscillators_select_lf_xosc
 .text.oscillators_select_lf_rcosc
                0x0000000000002bc0       0x3c contiki-srf06-cc26xx.a(oscillators.o)
                0x0000000000002bc0                oscillators_select_lf_rcosc
 .text.oscillators_request_hf_xosc
                0x0000000000002bfc       0x30 contiki-srf06-cc26xx.a(oscillators.o)
                0x0000000000002bfc                oscillators_request_hf_xosc
 .text.oscillators_switch_to_hf_xosc
                0x0000000000002c2c       0x34 contiki-srf06-cc26xx.a(oscillators.o)
                0x0000000000002c2c                oscillators_switch_to_hf_xosc
 .text.oscillators_switch_to_hf_rc
                0x0000000000002c60       0x38 contiki-srf06-cc26xx.a(oscillators.o)
                0x0000000000002c60                oscillators_switch_to_hf_rc
 .text.process_thread_rf_core_process
                0x0000000000002c98       0x5c contiki-srf06-cc26xx.a(rf-core.o)
 .text.rf_core_is_accessible
                0x0000000000002cf4       0x10 contiki-srf06-cc26xx.a(rf-core.o)
                0x0000000000002cf4                rf_core_is_accessible
 .text.rf_core_send_cmd
                0x0000000000002d04       0xac contiki-srf06-cc26xx.a(rf-core.o)
                0x0000000000002d04                rf_core_send_cmd
 .text.rf_core_wait_cmd_done
                0x0000000000002db0       0x34 contiki-srf06-cc26xx.a(rf-core.o)
                0x0000000000002db0                rf_core_wait_cmd_done
 .text.rf_core_power_up
                0x0000000000002de4       0xc8 contiki-srf06-cc26xx.a(rf-core.o)
                0x0000000000002de4                rf_core_power_up
 .text.rf_core_start_rat
                0x0000000000002eac       0x6c contiki-srf06-cc26xx.a(rf-core.o)
                0x0000000000002eac                rf_core_start_rat
 .text.rf_core_stop_rat
                0x0000000000002f18       0x80 contiki-srf06-cc26xx.a(rf-core.o)
                0x0000000000002f18                rf_core_stop_rat
 .text.rf_core_power_down
                0x0000000000002f98      0x104 contiki-srf06-cc26xx.a(rf-core.o)
                0x0000000000002f98                rf_core_power_down
 .text.rf_core_set_modesel
                0x000000000000309c       0x54 contiki-srf06-cc26xx.a(rf-core.o)
                0x000000000000309c                rf_core_set_modesel
 .text.rf_core_setup_interrupts
                0x00000000000030f0       0x80 contiki-srf06-cc26xx.a(rf-core.o)
                0x00000000000030f0                rf_core_setup_interrupts
 .text.rf_core_cmd_done_en
                0x0000000000003170       0x2c contiki-srf06-cc26xx.a(rf-core.o)
                0x0000000000003170                rf_core_cmd_done_en
 .text.rf_core_cmd_done_dis
                0x000000000000319c       0x18 contiki-srf06-cc26xx.a(rf-core.o)
                0x000000000000319c                rf_core_cmd_done_dis
 .text.rf_core_get_last_radio_op
                0x00000000000031b4        0xc contiki-srf06-cc26xx.a(rf-core.o)
                0x00000000000031b4                rf_core_get_last_radio_op
 .text.rf_core_primary_mode_register
                0x00000000000031c0        0xc contiki-srf06-cc26xx.a(rf-core.o)
                0x00000000000031c0                rf_core_primary_mode_register
 .text.RFCCPE1IntHandler
                0x00000000000031cc       0x2c contiki-srf06-cc26xx.a(rf-core.o)
                0x00000000000031cc                RFCCPE1IntHandler
 .text.RFCCPE0IntHandler
                0x00000000000031f8       0x6c contiki-srf06-cc26xx.a(rf-core.o)
                0x00000000000031f8                RFCCPE0IntHandler
 .text.rf_ble_is_active
                0x0000000000003264        0xc contiki-srf06-cc26xx.a(rf-ble.o)
                0x0000000000003264                rf_ble_is_active
 .text.random_rand
                0x0000000000003270        0xc contiki-srf06-cc26xx.a(random.o)
                0x0000000000003270                random_rand
 .text.random_init
                0x000000000000327c        0x4 contiki-srf06-cc26xx.a(random.o)
                0x000000000000327c                random_init
 .text.power_up
                0x0000000000003280       0x4c contiki-srf06-cc26xx.a(soc-trng.o)
 .text.request  0x00000000000032cc       0x14 contiki-srf06-cc26xx.a(soc-trng.o)
 .text.process_thread_soc_trng_process
                0x00000000000032e0       0xb0 contiki-srf06-cc26xx.a(soc-trng.o)
 .text.accessible
                0x0000000000003390       0x2c contiki-srf06-cc26xx.a(soc-trng.o)
 .text.soc_trng_rand_synchronous
                0x00000000000033bc       0xd8 contiki-srf06-cc26xx.a(soc-trng.o)
                0x00000000000033bc                soc_trng_rand_synchronous
 .text.TRNGIntHandler
                0x0000000000003494       0x5c contiki-srf06-cc26xx.a(soc-trng.o)
                0x0000000000003494                TRNGIntHandler
 .text.soc_trng_init
                0x00000000000034f0       0x2c contiki-srf06-cc26xx.a(soc-trng.o)
                0x00000000000034f0                soc_trng_init
 .text.write_str
                0x000000000000351c       0x10 contiki-srf06-cc26xx.a(dbg-printf.o)
 .text.printf   0x000000000000352c       0x28 contiki-srf06-cc26xx.a(dbg-printf.o)
                0x000000000000352c                printf
 .text.fill_space
                0x0000000000003554       0x38 contiki-srf06-cc26xx.a(strformat.o)
 .text.format_str_v
                0x000000000000358c      0x904 contiki-srf06-cc26xx.a(strformat.o)
                0x000000000000358c                format_str_v
 .text.autostart_start
                0x0000000000003e90       0x18 contiki-srf06-cc26xx.a(autostart.o)
                0x0000000000003e90                autostart_start
 .text.process_thread_ctimer_process
                0x0000000000003ea8       0xa4 contiki-srf06-cc26xx.a(ctimer.o)
 .text.ctimer_init
                0x0000000000003f4c       0x2c contiki-srf06-cc26xx.a(ctimer.o)
                0x0000000000003f4c                ctimer_init
 .text.ctimer_set_with_process
                0x0000000000003f78       0x4c contiki-srf06-cc26xx.a(ctimer.o)
                0x0000000000003f78                ctimer_set_with_process
 .text.ctimer_set
                0x0000000000003fc4       0x18 contiki-srf06-cc26xx.a(ctimer.o)
                0x0000000000003fc4                ctimer_set
 .text.ctimer_reset
                0x0000000000003fdc       0x40 contiki-srf06-cc26xx.a(ctimer.o)
                0x0000000000003fdc                ctimer_reset
 .text.ctimer_restart
                0x000000000000401c       0x40 contiki-srf06-cc26xx.a(ctimer.o)
                0x000000000000401c                ctimer_restart
 .text.ctimer_stop
                0x000000000000405c       0x30 contiki-srf06-cc26xx.a(ctimer.o)
                0x000000000000405c                ctimer_stop
 .text.ctimer_expired
                0x000000000000408c       0x3c contiki-srf06-cc26xx.a(ctimer.o)
                0x000000000000408c                ctimer_expired
 .text.energest_init
                0x00000000000040c8        0x4 contiki-srf06-cc26xx.a(energest.o)
                0x00000000000040c8                energest_init
 .text.update_time
                0x00000000000040cc       0x50 contiki-srf06-cc26xx.a(etimer.o)
 .text.process_thread_etimer_process
                0x000000000000411c       0xd8 contiki-srf06-cc26xx.a(etimer.o)
 .text.add_timer
                0x00000000000041f4       0x60 contiki-srf06-cc26xx.a(etimer.o)
 .text.etimer_request_poll
                0x0000000000004254        0xc contiki-srf06-cc26xx.a(etimer.o)
                0x0000000000004254                etimer_request_poll
 .text.etimer_set
                0x0000000000004260       0x14 contiki-srf06-cc26xx.a(etimer.o)
                0x0000000000004260                etimer_set
 .text.etimer_reset
                0x0000000000004274       0x14 contiki-srf06-cc26xx.a(etimer.o)
                0x0000000000004274                etimer_reset
 .text.etimer_restart
                0x0000000000004288       0x14 contiki-srf06-cc26xx.a(etimer.o)
                0x0000000000004288                etimer_restart
 .text.etimer_expired
                0x000000000000429c        0xc contiki-srf06-cc26xx.a(etimer.o)
                0x000000000000429c                etimer_expired
 .text.etimer_expiration_time
                0x00000000000042a8        0x8 contiki-srf06-cc26xx.a(etimer.o)
                0x00000000000042a8                etimer_expiration_time
 .text.etimer_pending
                0x00000000000042b0       0x14 contiki-srf06-cc26xx.a(etimer.o)
                0x00000000000042b0                etimer_pending
 .text.etimer_next_expiration_time
                0x00000000000042c4       0x18 contiki-srf06-cc26xx.a(etimer.o)
                0x00000000000042c4                etimer_next_expiration_time
 .text.etimer_stop
                0x00000000000042dc       0x4c contiki-srf06-cc26xx.a(etimer.o)
                0x00000000000042dc                etimer_stop
 .text.exit_process
                0x0000000000004328       0xac contiki-srf06-cc26xx.a(process.o)
 .text.call_process.part.0
                0x00000000000043d4       0x3c contiki-srf06-cc26xx.a(process.o)
 .text.do_poll  0x0000000000004410       0x40 contiki-srf06-cc26xx.a(process.o)
 .text.process_alloc_event
                0x0000000000004450       0x10 contiki-srf06-cc26xx.a(process.o)
                0x0000000000004450                process_alloc_event
 .text.process_init
                0x0000000000004460       0x3c contiki-srf06-cc26xx.a(process.o)
                0x0000000000004460                process_init
 .text.process_run
                0x000000000000449c       0xbc contiki-srf06-cc26xx.a(process.o)
                0x000000000000449c                process_run
 .text.process_nevents
                0x0000000000004558       0x18 contiki-srf06-cc26xx.a(process.o)
                0x0000000000004558                process_nevents
 .text.process_post
                0x0000000000004570       0x48 contiki-srf06-cc26xx.a(process.o)
                0x0000000000004570                process_post
 .text.process_post_synch
                0x00000000000045b8       0x1c contiki-srf06-cc26xx.a(process.o)
                0x00000000000045b8                process_post_synch
 .text.process_start
                0x00000000000045d4       0x44 contiki-srf06-cc26xx.a(process.o)
                0x00000000000045d4                process_start
 .text.process_poll
                0x0000000000004618       0x20 contiki-srf06-cc26xx.a(process.o)
                0x0000000000004618                process_poll
 .text.rtimer_init
                0x0000000000004638        0x4 contiki-srf06-cc26xx.a(rtimer.o)
                0x0000000000004638                rtimer_init
 .text.rtimer_run_next
                0x000000000000463c       0x2c contiki-srf06-cc26xx.a(rtimer.o)
                0x000000000000463c                rtimer_run_next
 .text.timer_set
                0x0000000000004668       0x10 contiki-srf06-cc26xx.a(timer.o)
                0x0000000000004668                timer_set
 .text.timer_reset
                0x0000000000004678        0xc contiki-srf06-cc26xx.a(timer.o)
                0x0000000000004678                timer_reset
 .text.timer_restart
                0x0000000000004684        0xc contiki-srf06-cc26xx.a(timer.o)
                0x0000000000004684                timer_restart
 .text.timer_expired
                0x0000000000004690       0x1c contiki-srf06-cc26xx.a(timer.o)
                0x0000000000004690                timer_expired
 .text.process_thread_serial_line_process
                0x00000000000046ac      0x158 contiki-srf06-cc26xx.a(serial-line.o)
 .text.timeout_postdata
                0x0000000000004804       0x4c contiki-srf06-cc26xx.a(serial-line.o)
 .text.serial_line_input_byte
                0x0000000000004850       0x40 contiki-srf06-cc26xx.a(serial-line.o)
                0x0000000000004850                serial_line_input_byte
 .text.serial_line_init
                0x0000000000004890       0x2c contiki-srf06-cc26xx.a(serial-line.o)
                0x0000000000004890                serial_line_init
 .text.list_init
                0x00000000000048bc        0x8 contiki-srf06-cc26xx.a(list.o)
                0x00000000000048bc                list_init
 .text.list_head
                0x00000000000048c4        0x4 contiki-srf06-cc26xx.a(list.o)
                0x00000000000048c4                list_head
 .text.list_add
                0x00000000000048c8       0x60 contiki-srf06-cc26xx.a(list.o)
                0x00000000000048c8                list_add
 .text.list_push
                0x0000000000004928       0x48 contiki-srf06-cc26xx.a(list.o)
                0x0000000000004928                list_push
 .text.list_remove
                0x0000000000004970       0x40 contiki-srf06-cc26xx.a(list.o)
                0x0000000000004970                list_remove
 .text.list_length
                0x00000000000049b0       0x14 contiki-srf06-cc26xx.a(list.o)
                0x00000000000049b0                list_length
 .text.list_item_next
                0x00000000000049c4        0x8 contiki-srf06-cc26xx.a(list.o)
                0x00000000000049c4                list_item_next
 .text.ringbuf_init
                0x00000000000049cc       0x10 contiki-srf06-cc26xx.a(ringbuf.o)
                0x00000000000049cc                ringbuf_init
 .text.ringbuf_put
                0x00000000000049dc       0x30 contiki-srf06-cc26xx.a(ringbuf.o)
                0x00000000000049dc                ringbuf_put
 .text.ringbuf_get
                0x0000000000004a0c       0x28 contiki-srf06-cc26xx.a(ringbuf.o)
                0x0000000000004a0c                ringbuf_get
 .text.sicslowpan_init
                0x0000000000004a34       0x28 contiki-srf06-cc26xx.a(sicslowpan.o)
                0x0000000000004a34                sicslowpan_init
 .text.compress_addr_64
                0x0000000000004a5c       0xa4 contiki-srf06-cc26xx.a(sicslowpan.o)
 .text.set_packet_attrs
                0x0000000000004b00       0x4c contiki-srf06-cc26xx.a(sicslowpan.o)
 .text.addr_context_lookup_by_prefix
                0x0000000000004b4c       0x28 contiki-srf06-cc26xx.a(sicslowpan.o)
 .text.send_packet
                0x0000000000004b74       0x28 contiki-srf06-cc26xx.a(sicslowpan.o)
 .text.packet_sent
                0x0000000000004b9c       0x2c contiki-srf06-cc26xx.a(sicslowpan.o)
 .text.store_fragment
                0x0000000000004bc8       0x78 contiki-srf06-cc26xx.a(sicslowpan.o)
 .text.add_fragment
                0x0000000000004c40      0x1cc contiki-srf06-cc26xx.a(sicslowpan.o)
 .text.uncompress_addr
                0x0000000000004e0c       0x8c contiki-srf06-cc26xx.a(sicslowpan.o)
 .text.input    0x0000000000004e98      0x704 contiki-srf06-cc26xx.a(sicslowpan.o)
 .text.output   0x000000000000559c      0x7dc contiki-srf06-cc26xx.a(sicslowpan.o)
 .text.chksum   0x0000000000005d78       0x50 contiki-srf06-cc26xx.a(uip6.o)
 .text.upper_layer_chksum
                0x0000000000005dc8       0x5c contiki-srf06-cc26xx.a(uip6.o)
 .text.ext_hdr_options_process
                0x0000000000005e24       0xd4 contiki-srf06-cc26xx.a(uip6.o)
 .text.uip_add32
                0x0000000000005ef8       0x60 contiki-srf06-cc26xx.a(uip6.o)
                0x0000000000005ef8                uip_add32
 .text.unlikely.uip_add_rcv_nxt
                0x0000000000005f58       0x34 contiki-srf06-cc26xx.a(uip6.o)
 .text.uip_icmp6chksum
                0x0000000000005f8c        0x8 contiki-srf06-cc26xx.a(uip6.o)
                0x0000000000005f8c                uip_icmp6chksum
 .text.uip_init
                0x0000000000005f94       0x60 contiki-srf06-cc26xx.a(uip6.o)
                0x0000000000005f94                uip_init
 .text.remove_ext_hdr
                0x0000000000005ff4       0x68 contiki-srf06-cc26xx.a(uip6.o)
                0x0000000000005ff4                remove_ext_hdr
 .text.uip_udp_new
                0x000000000000605c       0xac contiki-srf06-cc26xx.a(uip6.o)
                0x000000000000605c                uip_udp_new
 .text.uip_unlisten
                0x0000000000006108       0x28 contiki-srf06-cc26xx.a(uip6.o)
                0x0000000000006108                uip_unlisten
 .text.uip_process
                0x0000000000006130     0x1278 contiki-srf06-cc26xx.a(uip6.o)
                0x0000000000006130                uip_process
 .text.uip_htonl
                0x00000000000073a8       0x14 contiki-srf06-cc26xx.a(uip6.o)
                0x00000000000073a8                uip_htonl
 .text.uip_ds6_list_loop
                0x00000000000073bc       0x68 contiki-srf06-cc26xx.a(uip-ds6.o)
                0x00000000000073bc                uip_ds6_list_loop
 .text.uip_ds6_prefix_add
                0x0000000000007424       0x70 contiki-srf06-cc26xx.a(uip-ds6.o)
                0x0000000000007424                uip_ds6_prefix_add
 .text.uip_ds6_is_addr_onlink
                0x0000000000007494       0x4c contiki-srf06-cc26xx.a(uip-ds6.o)
                0x0000000000007494                uip_ds6_is_addr_onlink
 .text.uip_ds6_addr_lookup
                0x00000000000074e0       0x30 contiki-srf06-cc26xx.a(uip-ds6.o)
                0x00000000000074e0                uip_ds6_addr_lookup
 .text.uip_ds6_get_link_local
                0x0000000000007510       0x50 contiki-srf06-cc26xx.a(uip-ds6.o)
                0x0000000000007510                uip_ds6_get_link_local
 .text.uip_ds6_maddr_add
                0x0000000000007560       0x50 contiki-srf06-cc26xx.a(uip-ds6.o)
                0x0000000000007560                uip_ds6_maddr_add
 .text.uip_ds6_addr_add
                0x00000000000075b0       0xac contiki-srf06-cc26xx.a(uip-ds6.o)
                0x00000000000075b0                uip_ds6_addr_add
 .text.uip_ds6_maddr_lookup
                0x000000000000765c       0x30 contiki-srf06-cc26xx.a(uip-ds6.o)
                0x000000000000765c                uip_ds6_maddr_lookup
 .text.uip_ds6_addr_rm
                0x000000000000768c       0x4c contiki-srf06-cc26xx.a(uip-ds6.o)
                0x000000000000768c                uip_ds6_addr_rm
 .text.uip_ds6_periodic
                0x00000000000076d8       0x60 contiki-srf06-cc26xx.a(uip-ds6.o)
                0x00000000000076d8                uip_ds6_periodic
 .text.uip_ds6_select_src
                0x0000000000007738      0x104 contiki-srf06-cc26xx.a(uip-ds6.o)
                0x0000000000007738                uip_ds6_select_src
 .text.uip_ds6_set_addr_iid
                0x000000000000783c       0x14 contiki-srf06-cc26xx.a(uip-ds6.o)
                0x000000000000783c                uip_ds6_set_addr_iid
 .text.uip_ds6_compute_reachable_time
                0x0000000000007850       0x2c contiki-srf06-cc26xx.a(uip-ds6.o)
                0x0000000000007850                uip_ds6_compute_reachable_time
 .text.uip_ds6_init
                0x000000000000787c      0x100 contiki-srf06-cc26xx.a(uip-ds6.o)
                0x000000000000787c                uip_ds6_init
 .text.uip_ds6_nbr_rm
                0x000000000000797c       0x20 contiki-srf06-cc26xx.a(uip-ds6-nbr.o)
                0x000000000000797c                uip_ds6_nbr_rm
 .text.uip_ds6_neighbors_init
                0x000000000000799c       0x20 contiki-srf06-cc26xx.a(uip-ds6-nbr.o)
                0x000000000000799c                uip_ds6_neighbors_init
 .text.uip_ds6_nbr_add
                0x00000000000079bc       0x38 contiki-srf06-cc26xx.a(uip-ds6-nbr.o)
                0x00000000000079bc                uip_ds6_nbr_add
 .text.uip_ds6_nbr_update_lladdr
                0x00000000000079f4       0x80 contiki-srf06-cc26xx.a(uip-ds6-nbr.o)
                0x00000000000079f4                uip_ds6_nbr_update_lladdr
 .text.uip_ds6_nbr_get_ll
                0x0000000000007a74       0x10 contiki-srf06-cc26xx.a(uip-ds6-nbr.o)
                0x0000000000007a74                uip_ds6_nbr_get_ll
 .text.uip_ds6_nbr_lookup
                0x0000000000007a84       0x3c contiki-srf06-cc26xx.a(uip-ds6-nbr.o)
                0x0000000000007a84                uip_ds6_nbr_lookup
 .text.uip_ds6_nbr_ipaddr_from_lladdr
                0x0000000000007ac0       0x10 contiki-srf06-cc26xx.a(uip-ds6-nbr.o)
                0x0000000000007ac0                uip_ds6_nbr_ipaddr_from_lladdr
 .text.uip_ds6_nbr_lladdr_from_ipaddr
                0x0000000000007ad0       0x20 contiki-srf06-cc26xx.a(uip-ds6-nbr.o)
                0x0000000000007ad0                uip_ds6_nbr_lladdr_from_ipaddr
 .text.uip_ds6_link_neighbor_callback
                0x0000000000007af0       0x38 contiki-srf06-cc26xx.a(uip-ds6-nbr.o)
                0x0000000000007af0                uip_ds6_link_neighbor_callback
 .text.call_route_callback
                0x0000000000007b28       0x54 contiki-srf06-cc26xx.a(uip-ds6-route.o)
 .text.uip_ds6_route_init
                0x0000000000007b7c       0x58 contiki-srf06-cc26xx.a(uip-ds6-route.o)
                0x0000000000007b7c                uip_ds6_route_init
 .text.uip_ds6_route_nexthop
                0x0000000000007bd4       0x20 contiki-srf06-cc26xx.a(uip-ds6-route.o)
                0x0000000000007bd4                uip_ds6_route_nexthop
 .text.uip_ds6_route_head
                0x0000000000007bf4        0xc contiki-srf06-cc26xx.a(uip-ds6-route.o)
                0x0000000000007bf4                uip_ds6_route_head
 .text.uip_ds6_route_next
                0x0000000000007c00        0x8 contiki-srf06-cc26xx.a(uip-ds6-route.o)
                0x0000000000007c00                uip_ds6_route_next
 .text.uip_ds6_route_is_nexthop
                0x0000000000007c08       0x20 contiki-srf06-cc26xx.a(uip-ds6-route.o)
                0x0000000000007c08                uip_ds6_route_is_nexthop
 .text.uip_ds6_route_lookup
                0x0000000000007c28       0x88 contiki-srf06-cc26xx.a(uip-ds6-route.o)
                0x0000000000007c28                uip_ds6_route_lookup
 .text.uip_ds6_route_rm
                0x0000000000007cb0       0xb4 contiki-srf06-cc26xx.a(uip-ds6-route.o)
                0x0000000000007cb0                uip_ds6_route_rm
 .text.rm_routelist
                0x0000000000007d64       0x34 contiki-srf06-cc26xx.a(uip-ds6-route.o)
 .text.rm_routelist_callback
                0x0000000000007d98        0x4 contiki-srf06-cc26xx.a(uip-ds6-route.o)
 .text.uip_ds6_route_add
                0x0000000000007d9c      0x13c contiki-srf06-cc26xx.a(uip-ds6-route.o)
                0x0000000000007d9c                uip_ds6_route_add
 .text.uip_ds6_defrt_rm
                0x0000000000007ed8       0x50 contiki-srf06-cc26xx.a(uip-ds6-route.o)
                0x0000000000007ed8                uip_ds6_defrt_rm
 .text.uip_ds6_defrt_lookup
                0x0000000000007f28       0x38 contiki-srf06-cc26xx.a(uip-ds6-route.o)
                0x0000000000007f28                uip_ds6_defrt_lookup
 .text.uip_ds6_defrt_add
                0x0000000000007f60       0x60 contiki-srf06-cc26xx.a(uip-ds6-route.o)
                0x0000000000007f60                uip_ds6_defrt_add
 .text.uip_ds6_defrt_choose
                0x0000000000007fc0       0x38 contiki-srf06-cc26xx.a(uip-ds6-route.o)
                0x0000000000007fc0                uip_ds6_defrt_choose
 .text.uip_ds6_defrt_periodic
                0x0000000000007ff8       0x44 contiki-srf06-cc26xx.a(uip-ds6-route.o)
                0x0000000000007ff8                uip_ds6_defrt_periodic
 .text.echo_reply_input
                0x000000000000803c       0xb0 contiki-srf06-cc26xx.a(uip-icmp6.o)
 .text.echo_request_input
                0x00000000000080ec       0xc0 contiki-srf06-cc26xx.a(uip-icmp6.o)
 .text.uip_icmp6_input
                0x00000000000081ac       0x44 contiki-srf06-cc26xx.a(uip-icmp6.o)
                0x00000000000081ac                uip_icmp6_input
 .text.uip_icmp6_register_input_handler
                0x00000000000081f0       0x10 contiki-srf06-cc26xx.a(uip-icmp6.o)
                0x00000000000081f0                uip_icmp6_register_input_handler
 .text.uip_icmp6_error_output
                0x0000000000008200      0x198 contiki-srf06-cc26xx.a(uip-icmp6.o)
                0x0000000000008200                uip_icmp6_error_output
 .text.uip_icmp6_send
                0x0000000000008398       0x94 contiki-srf06-cc26xx.a(uip-icmp6.o)
                0x0000000000008398                uip_icmp6_send
 .text.uip_icmp6_init
                0x000000000000842c       0x2c contiki-srf06-cc26xx.a(uip-icmp6.o)
                0x000000000000842c                uip_icmp6_init
 .text.ns_input
                0x0000000000008458      0x2c8 contiki-srf06-cc26xx.a(uip-nd6.o)
 .text.uip_nd6_init
                0x0000000000008720        0xc contiki-srf06-cc26xx.a(uip-nd6.o)
                0x0000000000008720                uip_nd6_init
 .text.start_periodic_tcp_timer
                0x000000000000872c       0x24 contiki-srf06-cc26xx.a(tcpip.o)
 .text.tcpip_inputfunc
                0x0000000000008750       0x2c contiki-srf06-cc26xx.a(tcpip.o)
                0x0000000000008750                tcpip_inputfunc
 .text.tcpip_set_outputfunc
                0x000000000000877c        0xc contiki-srf06-cc26xx.a(tcpip.o)
                0x000000000000877c                tcpip_set_outputfunc
 .text.tcpip_input
                0x0000000000008788       0x14 contiki-srf06-cc26xx.a(tcpip.o)
                0x0000000000008788                tcpip_input
 .text.udp_new  0x000000000000879c       0x1c contiki-srf06-cc26xx.a(tcpip.o)
                0x000000000000879c                udp_new
 .text.tcpip_icmp6_call
                0x00000000000087b8       0x30 contiki-srf06-cc26xx.a(tcpip.o)
                0x00000000000087b8                tcpip_icmp6_call
 .text.tcpip_ipv6_output
                0x00000000000087e8       0xd8 contiki-srf06-cc26xx.a(tcpip.o)
                0x00000000000087e8                tcpip_ipv6_output
 .text.process_thread_tcpip_process
                0x00000000000088c0      0x214 contiki-srf06-cc26xx.a(tcpip.o)
 .text.tcpip_uipcall
                0x0000000000008ad4       0x78 contiki-srf06-cc26xx.a(tcpip.o)
                0x0000000000008ad4                tcpip_uipcall
 .text.uip_debug_ipaddr_print
                0x0000000000008b4c       0xbc contiki-srf06-cc26xx.a(uip-debug.o)
                0x0000000000008b4c                uip_debug_ipaddr_print
 .text.uip_udp_packet_send
                0x0000000000008c08       0x50 contiki-srf06-cc26xx.a(uip-udp-packet.)
                0x0000000000008c08                uip_udp_packet_send
 .text.uip_udp_packet_sendto
                0x0000000000008c58       0x4c contiki-srf06-cc26xx.a(uip-udp-packet.)
                0x0000000000008c58                uip_udp_packet_sendto
 .text.rpl_get_mode
                0x0000000000008ca4        0xc contiki-srf06-cc26xx.a(rpl.o)
                0x0000000000008ca4                rpl_get_mode
 .text.rpl_purge_routes
                0x0000000000008cb0       0x80 contiki-srf06-cc26xx.a(rpl.o)
                0x0000000000008cb0                rpl_purge_routes
 .text.rpl_remove_routes
                0x0000000000008d30       0x2c contiki-srf06-cc26xx.a(rpl.o)
                0x0000000000008d30                rpl_remove_routes
 .text.rpl_remove_routes_by_nexthop
                0x0000000000008d5c       0x38 contiki-srf06-cc26xx.a(rpl.o)
                0x0000000000008d5c                rpl_remove_routes_by_nexthop
 .text.rpl_add_route
                0x0000000000008d94       0x6c contiki-srf06-cc26xx.a(rpl.o)
                0x0000000000008d94                rpl_add_route
 .text.rpl_link_neighbor_callback
                0x0000000000008e00       0x60 contiki-srf06-cc26xx.a(rpl.o)
                0x0000000000008e00                rpl_link_neighbor_callback
 .text.rpl_ipv6_neighbor_callback
                0x0000000000008e60       0x30 contiki-srf06-cc26xx.a(rpl.o)
                0x0000000000008e60                rpl_ipv6_neighbor_callback
 .text.rpl_purge_dags
                0x0000000000008e90       0x44 contiki-srf06-cc26xx.a(rpl.o)
                0x0000000000008e90                rpl_purge_dags
 .text.rpl_init
                0x0000000000008ed4       0x50 contiki-srf06-cc26xx.a(rpl.o)
                0x0000000000008ed4                rpl_init
 .text.rpl_set_preferred_parent
                0x0000000000008f24       0x28 contiki-srf06-cc26xx.a(rpl-dag.o)
 .text.set_ip_from_prefix
                0x0000000000008f4c       0x30 contiki-srf06-cc26xx.a(rpl-dag.o)
 .text.check_prefix
                0x0000000000008f7c       0x70 contiki-srf06-cc26xx.a(rpl-dag.o)
 .text.find_parent_any_dag_any_instance
                0x0000000000008fec       0x20 contiki-srf06-cc26xx.a(rpl-dag.o)
 .text.lollipop_greater_than
                0x000000000000900c       0x3c contiki-srf06-cc26xx.a(rpl-dag.o)
 .text.rpl_dag_init
                0x0000000000009048       0x18 contiki-srf06-cc26xx.a(rpl-dag.o)
                0x0000000000009048                rpl_dag_init
 .text.rpl_get_parent
                0x0000000000009060       0x10 contiki-srf06-cc26xx.a(rpl-dag.o)
                0x0000000000009060                rpl_get_parent
 .text.rpl_rank_via_parent
                0x0000000000009070       0x20 contiki-srf06-cc26xx.a(rpl-dag.o)
                0x0000000000009070                rpl_rank_via_parent
 .text.rpl_get_parent_lladdr
                0x0000000000009090       0x10 contiki-srf06-cc26xx.a(rpl-dag.o)
                0x0000000000009090                rpl_get_parent_lladdr
 .text.rpl_get_parent_ipaddr
                0x00000000000090a0       0x1c contiki-srf06-cc26xx.a(rpl-dag.o)
                0x00000000000090a0                rpl_get_parent_ipaddr
 .text.rpl_get_parent_link_stats
                0x00000000000090bc       0x1c contiki-srf06-cc26xx.a(rpl-dag.o)
                0x00000000000090bc                rpl_get_parent_link_stats
 .text.best_parent
                0x00000000000090d8       0x88 contiki-srf06-cc26xx.a(rpl-dag.o)
 .text.rpl_parent_is_fresh
                0x0000000000009160       0x10 contiki-srf06-cc26xx.a(rpl-dag.o)
                0x0000000000009160                rpl_parent_is_fresh
 .text.rpl_parent_is_reachable
                0x0000000000009170       0x40 contiki-srf06-cc26xx.a(rpl-dag.o)
                0x0000000000009170                rpl_parent_is_reachable
 .text.rpl_repair_root
                0x00000000000091b0       0x68 contiki-srf06-cc26xx.a(rpl-dag.o)
                0x00000000000091b0                rpl_repair_root
 .text.rpl_set_prefix
                0x0000000000009218       0xac contiki-srf06-cc26xx.a(rpl-dag.o)
                0x0000000000009218                rpl_set_prefix
 .text.rpl_set_default_route
                0x00000000000092c4       0x30 contiki-srf06-cc26xx.a(rpl-dag.o)
                0x00000000000092c4                rpl_set_default_route
 .text.rpl_alloc_instance
                0x00000000000092f4       0x34 contiki-srf06-cc26xx.a(rpl-dag.o)
                0x00000000000092f4                rpl_alloc_instance
 .text.rpl_alloc_dag
                0x0000000000009328       0x64 contiki-srf06-cc26xx.a(rpl-dag.o)
                0x0000000000009328                rpl_alloc_dag
 .text.rpl_add_parent
                0x000000000000938c       0x30 contiki-srf06-cc26xx.a(rpl-dag.o)
                0x000000000000938c                rpl_add_parent
 .text.rpl_find_parent
                0x00000000000093bc       0x18 contiki-srf06-cc26xx.a(rpl-dag.o)
                0x00000000000093bc                rpl_find_parent
 .text.rpl_find_parent_any_dag
                0x00000000000093d4       0x1c contiki-srf06-cc26xx.a(rpl-dag.o)
                0x00000000000093d4                rpl_find_parent_any_dag
 .text.rpl_select_parent
                0x00000000000093f0       0x58 contiki-srf06-cc26xx.a(rpl-dag.o)
                0x00000000000093f0                rpl_select_parent
 .text.rpl_select_dag
                0x0000000000009448      0x180 contiki-srf06-cc26xx.a(rpl-dag.o)
                0x0000000000009448                rpl_select_dag
 .text.rpl_nullify_parent
                0x00000000000095c8       0x58 contiki-srf06-cc26xx.a(rpl-dag.o)
                0x00000000000095c8                rpl_nullify_parent
 .text.rpl_remove_parent
                0x0000000000009620       0x1c contiki-srf06-cc26xx.a(rpl-dag.o)
                0x0000000000009620                rpl_remove_parent
 .text.nbr_callback
                0x000000000000963c        0x4 contiki-srf06-cc26xx.a(rpl-dag.o)
 .text.remove_parents.constprop.6
                0x0000000000009640       0x44 contiki-srf06-cc26xx.a(rpl-dag.o)
 .text.rpl_free_dag
                0x0000000000009684       0x3c contiki-srf06-cc26xx.a(rpl-dag.o)
                0x0000000000009684                rpl_free_dag
 .text.rpl_set_root
                0x00000000000096c0      0x15c contiki-srf06-cc26xx.a(rpl-dag.o)
                0x00000000000096c0                rpl_set_root
 .text.rpl_move_parent
                0x000000000000981c       0x58 contiki-srf06-cc26xx.a(rpl-dag.o)
                0x000000000000981c                rpl_move_parent
 .text.rpl_get_any_dag
                0x0000000000009874       0x1c contiki-srf06-cc26xx.a(rpl-dag.o)
                0x0000000000009874                rpl_get_any_dag
 .text.rpl_get_instance
                0x0000000000009890       0x20 contiki-srf06-cc26xx.a(rpl-dag.o)
                0x0000000000009890                rpl_get_instance
 .text.rpl_join_instance
                0x00000000000098b0      0x15c contiki-srf06-cc26xx.a(rpl-dag.o)
                0x00000000000098b0                rpl_join_instance
 .text.rpl_local_repair
                0x0000000000009a0c       0x8c contiki-srf06-cc26xx.a(rpl-dag.o)
                0x0000000000009a0c                rpl_local_repair
 .text.rpl_process_parent_event
                0x0000000000009a98       0xa0 contiki-srf06-cc26xx.a(rpl-dag.o)
                0x0000000000009a98                rpl_process_parent_event
 .text.rpl_add_dag
                0x0000000000009b38      0x150 contiki-srf06-cc26xx.a(rpl-dag.o)
                0x0000000000009b38                rpl_add_dag
 .text.rpl_recalculate_ranks
                0x0000000000009c88       0x48 contiki-srf06-cc26xx.a(rpl-dag.o)
                0x0000000000009c88                rpl_recalculate_ranks
 .text.rpl_process_dio
                0x0000000000009cd0      0x388 contiki-srf06-cc26xx.a(rpl-dag.o)
                0x0000000000009cd0                rpl_process_dio
 .text.update_hbh_header
                0x000000000000a058       0xd4 contiki-srf06-cc26xx.a(rpl-ext-header.)
 .text.insert_hbh_header.isra.0
                0x000000000000a12c       0xbc contiki-srf06-cc26xx.a(rpl-ext-header.)
 .text.rpl_verify_hbh_header
                0x000000000000a1e8      0x100 contiki-srf06-cc26xx.a(rpl-ext-header.)
                0x000000000000a1e8                rpl_verify_hbh_header
 .text.rpl_remove_header
                0x000000000000a2e8       0x8c contiki-srf06-cc26xx.a(rpl-ext-header.)
                0x000000000000a2e8                rpl_remove_header
 .text.rpl_update_header
                0x000000000000a374       0x70 contiki-srf06-cc26xx.a(rpl-ext-header.)
                0x000000000000a374                rpl_update_header
 .text.get32    0x000000000000a3e4       0x18 contiki-srf06-cc26xx.a(rpl-icmp6.o)
 .text.get_global_addr
                0x000000000000a3fc       0x54 contiki-srf06-cc26xx.a(rpl-icmp6.o)
 .text.dao_ack_input
                0x000000000000a450      0x114 contiki-srf06-cc26xx.a(rpl-icmp6.o)
 .text.dio_input
                0x000000000000a564      0x298 contiki-srf06-cc26xx.a(rpl-icmp6.o)
 .text.dao_output_target_seq
                0x000000000000a7fc      0x134 contiki-srf06-cc26xx.a(rpl-icmp6.o)
 .text.handle_dao_retransmission
                0x000000000000a930       0xac contiki-srf06-cc26xx.a(rpl-icmp6.o)
 .text.rpl_icmp6_update_nbr_table
                0x000000000000a9dc       0x38 contiki-srf06-cc26xx.a(rpl-icmp6.o)
                0x000000000000a9dc                rpl_icmp6_update_nbr_table
 .text.dis_output
                0x000000000000aa14       0x5c contiki-srf06-cc26xx.a(rpl-icmp6.o)
                0x000000000000aa14                dis_output
 .text.dio_output
                0x000000000000aa70      0x2fc contiki-srf06-cc26xx.a(rpl-icmp6.o)
                0x000000000000aa70                dio_output
 .text.dis_input
                0x000000000000ad6c       0x5c contiki-srf06-cc26xx.a(rpl-icmp6.o)
 .text.dao_output
                0x000000000000adc8       0x70 contiki-srf06-cc26xx.a(rpl-icmp6.o)
                0x000000000000adc8                dao_output
 .text.dao_output_target
                0x000000000000ae38       0x18 contiki-srf06-cc26xx.a(rpl-icmp6.o)
                0x000000000000ae38                dao_output_target
 .text.dao_ack_output
                0x000000000000ae50       0x34 contiki-srf06-cc26xx.a(rpl-icmp6.o)
                0x000000000000ae50                dao_ack_output
 .text.dao_input
                0x000000000000ae84      0x3a4 contiki-srf06-cc26xx.a(rpl-icmp6.o)
 .text.rpl_icmp6_register_handlers
                0x000000000000b228       0x38 contiki-srf06-cc26xx.a(rpl-icmp6.o)
                0x000000000000b228                rpl_icmp6_register_handlers
 .text.reset    0x000000000000b260        0x4 contiki-srf06-cc26xx.a(rpl-mrhof.o)
 .text.update_metric_container
                0x000000000000b264        0x8 contiki-srf06-cc26xx.a(rpl-mrhof.o)
 .text.parent_link_metric
                0x000000000000b26c       0x14 contiki-srf06-cc26xx.a(rpl-mrhof.o)
 .text.parent_has_usable_link
                0x000000000000b280       0x18 contiki-srf06-cc26xx.a(rpl-mrhof.o)
 .text.best_dag
                0x000000000000b298       0x2c contiki-srf06-cc26xx.a(rpl-mrhof.o)
 .text.parent_path_cost
                0x000000000000b2c4       0x44 contiki-srf06-cc26xx.a(rpl-mrhof.o)
 .text.parent_is_acceptable
                0x000000000000b308       0x30 contiki-srf06-cc26xx.a(rpl-mrhof.o)
 .text.rank_via_parent
                0x000000000000b338       0x34 contiki-srf06-cc26xx.a(rpl-mrhof.o)
 .text.best_parent
                0x000000000000b36c       0x68 contiki-srf06-cc26xx.a(rpl-mrhof.o)
 .text.dao_ack_callback
                0x000000000000b3d4       0x20 contiki-srf06-cc26xx.a(rpl-mrhof.o)
 .text.new_dio_interval
                0x000000000000b3f4       0x68 contiki-srf06-cc26xx.a(rpl-timers.o)
 .text.handle_periodic_timer
                0x000000000000b45c       0x60 contiki-srf06-cc26xx.a(rpl-timers.o)
 .text.set_dao_lifetime_timer
                0x000000000000b4bc       0x48 contiki-srf06-cc26xx.a(rpl-timers.o)
 .text.handle_unicast_dio_timer
                0x000000000000b504       0x1c contiki-srf06-cc26xx.a(rpl-timers.o)
 .text.handle_dio_timer
                0x000000000000b520       0x94 contiki-srf06-cc26xx.a(rpl-timers.o)
 .text.schedule_dao
                0x000000000000b5b4       0x54 contiki-srf06-cc26xx.a(rpl-timers.o)
 .text.handle_dao_timer
                0x000000000000b608       0x60 contiki-srf06-cc26xx.a(rpl-timers.o)
 .text.rpl_reset_periodic_timer
                0x000000000000b668       0x44 contiki-srf06-cc26xx.a(rpl-timers.o)
                0x000000000000b668                rpl_reset_periodic_timer
 .text.rpl_reset_dio_timer
                0x000000000000b6ac       0x1c contiki-srf06-cc26xx.a(rpl-timers.o)
                0x000000000000b6ac                rpl_reset_dio_timer
 .text.rpl_schedule_dao
                0x000000000000b6c8        0x8 contiki-srf06-cc26xx.a(rpl-timers.o)
                0x000000000000b6c8                rpl_schedule_dao
 .text.rpl_schedule_unicast_dio_immediately
                0x000000000000b6d0       0x14 contiki-srf06-cc26xx.a(rpl-timers.o)
                0x000000000000b6d0                rpl_schedule_unicast_dio_immediately
 .text.get_probing_delay
                0x000000000000b6e4       0x50 contiki-srf06-cc26xx.a(rpl-timers.o)
                0x000000000000b6e4                get_probing_delay
 .text.get_probing_target
                0x000000000000b734       0xf4 contiki-srf06-cc26xx.a(rpl-timers.o)
                0x000000000000b734                get_probing_target
 .text.rpl_schedule_probing
                0x000000000000b828       0x24 contiki-srf06-cc26xx.a(rpl-timers.o)
                0x000000000000b828                rpl_schedule_probing
 .text.handle_probing_timer
                0x000000000000b84c       0x64 contiki-srf06-cc26xx.a(rpl-timers.o)
 .text.SafeHapiVoid
                0x000000000000b8b0       0x34 contiki-srf06-cc26xx.a(adi.o)
                0x000000000000b8b0                SafeHapiVoid
 .text.SafeHapiAuxAdiSelect
                0x000000000000b8e4       0x38 contiki-srf06-cc26xx.a(adi.o)
                0x000000000000b8e4                SafeHapiAuxAdiSelect
 .text.NOROM_AONRTCCurrentCompareValueGet
                0x000000000000b91c       0x28 contiki-srf06-cc26xx.a(aon_rtc.o)
                0x000000000000b91c                NOROM_AONRTCCurrentCompareValueGet
 .text.NOROM_AUXADCDisable
                0x000000000000b944       0xa8 contiki-srf06-cc26xx.a(aux_adc.o)
                0x000000000000b944                NOROM_AUXADCDisable
 .text.NOROM_AUXADCEnableSync
                0x000000000000b9ec       0xf4 contiki-srf06-cc26xx.a(aux_adc.o)
                0x000000000000b9ec                NOROM_AUXADCEnableSync
 .text.NOROM_AUXADCReadFifo
                0x000000000000bae0       0x1c contiki-srf06-cc26xx.a(aux_adc.o)
                0x000000000000bae0                NOROM_AUXADCReadFifo
 .text.NOROM_ChipInfo_GetSupportedProtocol_BV
                0x000000000000bafc       0x10 contiki-srf06-cc26xx.a(chipinfo.o)
                0x000000000000bafc                NOROM_ChipInfo_GetSupportedProtocol_BV
 .text.NOROM_ChipInfo_GetChipFamily
                0x000000000000bb0c       0x50 contiki-srf06-cc26xx.a(chipinfo.o)
                0x000000000000bb0c                NOROM_ChipInfo_GetChipFamily
 .text.NOROM_ChipInfo_GetChipType
                0x000000000000bb5c       0x30 contiki-srf06-cc26xx.a(chipinfo.o)
                0x000000000000bb5c                NOROM_ChipInfo_GetChipType
 .text.NOROM_ChipInfo_GetHwRevision
                0x000000000000bb8c       0x94 contiki-srf06-cc26xx.a(chipinfo.o)
                0x000000000000bb8c                NOROM_ChipInfo_GetHwRevision
 .text.NOROM_ThisCodeIsBuiltForCC13xxHwRev20AndLater_HaltIfViolated
                0x000000000000bc20       0x18 contiki-srf06-cc26xx.a(chipinfo.o)
                0x000000000000bc20                NOROM_ThisCodeIsBuiltForCC13xxHwRev20AndLater_HaltIfViolated
 .text.NOROM_CPUcpsid
                0x000000000000bc38        0x8 contiki-srf06-cc26xx.a(cpu.o)
                0x000000000000bc38                NOROM_CPUcpsid
 .text.NOROM_CPUcpsie
                0x000000000000bc40        0x8 contiki-srf06-cc26xx.a(cpu.o)
                0x000000000000bc40                NOROM_CPUcpsie
 .text.NOROM_OSCClockSourceSet
                0x000000000000bc48       0x7c contiki-srf06-cc26xx.a(osc.o)
                0x000000000000bc48                NOROM_OSCClockSourceSet
 .text.NOROM_OSCClockSourceGet
                0x000000000000bcc4       0x30 contiki-srf06-cc26xx.a(osc.o)
                0x000000000000bcc4                NOROM_OSCClockSourceGet
 .text.NOROM_PowerCtrlSourceSet
                0x000000000000bcf4       0x34 contiki-srf06-cc26xx.a(pwr_ctrl.o)
                0x000000000000bcf4                NOROM_PowerCtrlSourceSet
 .text.TrimAfterColdResetWakeupFromShutDown
                0x000000000000bd28       0xf8 contiki-srf06-cc26xx.a(setup.o)
 .text.NOROM_SetupTrimDevice
                0x000000000000be20       0xb4 contiki-srf06-cc26xx.a(setup.o)
                0x000000000000be20                NOROM_SetupTrimDevice
 .text.NOROM_SetupSetVddrLevel
                0x000000000000bed4       0x94 contiki-srf06-cc26xx.a(setup_rom.o)
                0x000000000000bed4                NOROM_SetupSetVddrLevel
 .text.NOROM_SetupAfterColdResetWakeupFromShutDownCfg1
                0x000000000000bf68       0xc8 contiki-srf06-cc26xx.a(setup_rom.o)
                0x000000000000bf68                NOROM_SetupAfterColdResetWakeupFromShutDownCfg1
 .text.NOROM_SetupAfterColdResetWakeupFromShutDownCfg3
                0x000000000000c030      0x1f0 contiki-srf06-cc26xx.a(setup_rom.o)
                0x000000000000c030                NOROM_SetupAfterColdResetWakeupFromShutDownCfg3
 .text.NOROM_SetupGetTrimForAnabypassValue1
                0x000000000000c220       0x64 contiki-srf06-cc26xx.a(setup_rom.o)
                0x000000000000c220                NOROM_SetupGetTrimForAnabypassValue1
 .text.NOROM_SetupGetTrimForAmpcompCtrl
                0x000000000000c284       0x78 contiki-srf06-cc26xx.a(setup_rom.o)
                0x000000000000c284                NOROM_SetupGetTrimForAmpcompCtrl
 .text.NOROM_SetupAfterColdResetWakeupFromShutDownCfg2
                0x000000000000c2fc      0x22c contiki-srf06-cc26xx.a(setup_rom.o)
                0x000000000000c2fc                NOROM_SetupAfterColdResetWakeupFromShutDownCfg2
 .text.NOROM_SetupSetCacheModeAccordingToCcfgSetting
                0x000000000000c528       0x78 contiki-srf06-cc26xx.a(setup_rom.o)
                0x000000000000c528                NOROM_SetupSetCacheModeAccordingToCcfgSetting
 .text.NOROM_SysCtrlSetRechargeBeforePowerDown
                0x000000000000c5a0      0x2fc contiki-srf06-cc26xx.a(sys_ctrl.o)
                0x000000000000c5a0                NOROM_SysCtrlSetRechargeBeforePowerDown
 .text.NOROM_SysCtrlAdjustRechargeAfterPowerDown
                0x000000000000c89c       0x80 contiki-srf06-cc26xx.a(sys_ctrl.o)
                0x000000000000c89c                NOROM_SysCtrlAdjustRechargeAfterPowerDown
 .text.NOROM_SysCtrl_DCDC_VoltageConditionalControl
                0x000000000000c91c       0x88 contiki-srf06-cc26xx.a(sys_ctrl.o)
                0x000000000000c91c                NOROM_SysCtrl_DCDC_VoltageConditionalControl
 .text.NOROM_TRNGConfigure
                0x000000000000c9a4       0x3c contiki-srf06-cc26xx.a(trng.o)
                0x000000000000c9a4                NOROM_TRNGConfigure
 .text.linkaddr_copy
                0x000000000000c9e0        0xc contiki-srf06-cc26xx.a(linkaddr.o)
                0x000000000000c9e0                linkaddr_copy
 .text.linkaddr_cmp
                0x000000000000c9ec       0x14 contiki-srf06-cc26xx.a(linkaddr.o)
                0x000000000000c9ec                linkaddr_cmp
 .text.periodic
                0x000000000000ca00       0x38 contiki-srf06-cc26xx.a(link-stats.o)
 .text.link_stats_from_lladdr
                0x000000000000ca38       0x10 contiki-srf06-cc26xx.a(link-stats.o)
                0x000000000000ca38                link_stats_from_lladdr
 .text.link_stats_is_fresh
                0x000000000000ca48       0x24 contiki-srf06-cc26xx.a(link-stats.o)
                0x000000000000ca48                link_stats_is_fresh
 .text.link_stats_packet_sent
                0x000000000000ca6c       0x94 contiki-srf06-cc26xx.a(link-stats.o)
                0x000000000000ca6c                link_stats_packet_sent
 .text.link_stats_input_callback
                0x000000000000cb00       0x68 contiki-srf06-cc26xx.a(link-stats.o)
                0x000000000000cb00                link_stats_input_callback
 .text.link_stats_init
                0x000000000000cb68       0x30 contiki-srf06-cc26xx.a(link-stats.o)
                0x000000000000cb68                link_stats_init
 .text.nbr_set_bit
                0x000000000000cb98       0x4c contiki-srf06-cc26xx.a(nbr-table.o)
 .text.index_from_lladdr
                0x000000000000cbe4       0x58 contiki-srf06-cc26xx.a(nbr-table.o)
 .text.nbr_get_bit.constprop.0
                0x000000000000cc3c       0x38 contiki-srf06-cc26xx.a(nbr-table.o)
 .text.remove_key
                0x000000000000cc74       0xa4 contiki-srf06-cc26xx.a(nbr-table.o)
 .text.nbr_table_register
                0x000000000000cd18       0x30 contiki-srf06-cc26xx.a(nbr-table.o)
                0x000000000000cd18                nbr_table_register
 .text.nbr_table_next
                0x000000000000cd48       0x84 contiki-srf06-cc26xx.a(nbr-table.o)
                0x000000000000cd48                nbr_table_next
 .text.nbr_table_head
                0x000000000000cdcc       0x60 contiki-srf06-cc26xx.a(nbr-table.o)
                0x000000000000cdcc                nbr_table_head
 .text.nbr_table_add_lladdr
                0x000000000000ce2c      0x198 contiki-srf06-cc26xx.a(nbr-table.o)
                0x000000000000ce2c                nbr_table_add_lladdr
 .text.nbr_table_get_from_lladdr
                0x000000000000cfc4       0x34 contiki-srf06-cc26xx.a(nbr-table.o)
                0x000000000000cfc4                nbr_table_get_from_lladdr
 .text.nbr_table_remove
                0x000000000000cff8       0x30 contiki-srf06-cc26xx.a(nbr-table.o)
                0x000000000000cff8                nbr_table_remove
 .text.nbr_table_lock
                0x000000000000d028       0x14 contiki-srf06-cc26xx.a(nbr-table.o)
                0x000000000000d028                nbr_table_lock
 .text.nbr_table_unlock
                0x000000000000d03c       0x14 contiki-srf06-cc26xx.a(nbr-table.o)
                0x000000000000d03c                nbr_table_unlock
 .text.nbr_table_get_lladdr
                0x000000000000d050       0x3c contiki-srf06-cc26xx.a(nbr-table.o)
                0x000000000000d050                nbr_table_get_lladdr
 .text.netstack_init
                0x000000000000d08c       0x40 contiki-srf06-cc26xx.a(netstack.o)
                0x000000000000d08c                netstack_init
 .text.packetbuf_copyto
                0x000000000000d0cc       0x54 contiki-srf06-cc26xx.a(packetbuf.o)
                0x000000000000d0cc                packetbuf_copyto
 .text.packetbuf_hdralloc
                0x000000000000d120       0x60 contiki-srf06-cc26xx.a(packetbuf.o)
                0x000000000000d120                packetbuf_hdralloc
 .text.packetbuf_hdrreduce
                0x000000000000d180       0x34 contiki-srf06-cc26xx.a(packetbuf.o)
                0x000000000000d180                packetbuf_hdrreduce
 .text.packetbuf_set_datalen
                0x000000000000d1b4        0xc contiki-srf06-cc26xx.a(packetbuf.o)
                0x000000000000d1b4                packetbuf_set_datalen
 .text.packetbuf_dataptr
                0x000000000000d1c0       0x24 contiki-srf06-cc26xx.a(packetbuf.o)
                0x000000000000d1c0                packetbuf_dataptr
 .text.packetbuf_hdrptr
                0x000000000000d1e4        0xc contiki-srf06-cc26xx.a(packetbuf.o)
                0x000000000000d1e4                packetbuf_hdrptr
 .text.packetbuf_datalen
                0x000000000000d1f0        0xc contiki-srf06-cc26xx.a(packetbuf.o)
                0x000000000000d1f0                packetbuf_datalen
 .text.packetbuf_totlen
                0x000000000000d1fc       0x28 contiki-srf06-cc26xx.a(packetbuf.o)
                0x000000000000d1fc                packetbuf_totlen
 .text.packetbuf_attr_clear
                0x000000000000d224       0x58 contiki-srf06-cc26xx.a(packetbuf.o)
                0x000000000000d224                packetbuf_attr_clear
 .text.packetbuf_clear
                0x000000000000d27c       0x24 contiki-srf06-cc26xx.a(packetbuf.o)
                0x000000000000d27c                packetbuf_clear
 .text.packetbuf_copyfrom
                0x000000000000d2a0       0x48 contiki-srf06-cc26xx.a(packetbuf.o)
                0x000000000000d2a0                packetbuf_copyfrom
 .text.packetbuf_attr_copyto
                0x000000000000d2e8       0x44 contiki-srf06-cc26xx.a(packetbuf.o)
                0x000000000000d2e8                packetbuf_attr_copyto
 .text.packetbuf_attr_copyfrom
                0x000000000000d32c       0x40 contiki-srf06-cc26xx.a(packetbuf.o)
                0x000000000000d32c                packetbuf_attr_copyfrom
 .text.packetbuf_set_attr
                0x000000000000d36c       0x10 contiki-srf06-cc26xx.a(packetbuf.o)
                0x000000000000d36c                packetbuf_set_attr
 .text.packetbuf_attr
                0x000000000000d37c       0x10 contiki-srf06-cc26xx.a(packetbuf.o)
                0x000000000000d37c                packetbuf_attr
 .text.packetbuf_set_addr
                0x000000000000d38c       0x18 contiki-srf06-cc26xx.a(packetbuf.o)
                0x000000000000d38c                packetbuf_set_addr
 .text.packetbuf_addr
                0x000000000000d3a4       0x10 contiki-srf06-cc26xx.a(packetbuf.o)
                0x000000000000d3a4                packetbuf_addr
 .text.packetbuf_holds_broadcast
                0x000000000000d3b4       0x14 contiki-srf06-cc26xx.a(packetbuf.o)
                0x000000000000d3b4                packetbuf_holds_broadcast
 .text.queuebuf_init
                0x000000000000d3c8       0x20 contiki-srf06-cc26xx.a(queuebuf.o)
                0x000000000000d3c8                queuebuf_init
 .text.queuebuf_numfree
                0x000000000000d3e8        0xc contiki-srf06-cc26xx.a(queuebuf.o)
                0x000000000000d3e8                queuebuf_numfree
 .text.queuebuf_new_from_packetbuf
                0x000000000000d3f4       0x50 contiki-srf06-cc26xx.a(queuebuf.o)
                0x000000000000d3f4                queuebuf_new_from_packetbuf
 .text.queuebuf_update_attr_from_packetbuf
                0x000000000000d444        0xc contiki-srf06-cc26xx.a(queuebuf.o)
                0x000000000000d444                queuebuf_update_attr_from_packetbuf
 .text.queuebuf_free
                0x000000000000d450       0x38 contiki-srf06-cc26xx.a(queuebuf.o)
                0x000000000000d450                queuebuf_free
 .text.queuebuf_to_packetbuf
                0x000000000000d488       0x34 contiki-srf06-cc26xx.a(queuebuf.o)
                0x000000000000d488                queuebuf_to_packetbuf
 .text.queuebuf_attr
                0x000000000000d4bc        0xc contiki-srf06-cc26xx.a(queuebuf.o)
                0x000000000000d4bc                queuebuf_attr
 .text.input_packet
                0x000000000000d4c8       0x20 contiki-srf06-cc26xx.a(csma.o)
 .text.on       0x000000000000d4e8       0x10 contiki-srf06-cc26xx.a(csma.o)
 .text.off      0x000000000000d4f8       0x10 contiki-srf06-cc26xx.a(csma.o)
 .text.channel_check_interval
                0x000000000000d508       0x14 contiki-srf06-cc26xx.a(csma.o)
 .text.transmit_packet_list
                0x000000000000d51c       0x28 contiki-srf06-cc26xx.a(csma.o)
 .text.schedule_transmission
                0x000000000000d544       0x54 contiki-srf06-cc26xx.a(csma.o)
 .text.send_packet
                0x000000000000d598      0x160 contiki-srf06-cc26xx.a(csma.o)
 .text.init     0x000000000000d6f8       0x34 contiki-srf06-cc26xx.a(csma.o)
 .text.tx_done  0x000000000000d72c       0x90 contiki-srf06-cc26xx.a(csma.o)
 .text.packet_sent
                0x000000000000d7bc      0x13c contiki-srf06-cc26xx.a(csma.o)
 .text.frame802154_get_pan_id
                0x000000000000d8f8        0xc contiki-srf06-cc26xx.a(frame802154.o)
                0x000000000000d8f8                frame802154_get_pan_id
 .text.frame802154_has_panid
                0x000000000000d904       0xac contiki-srf06-cc26xx.a(frame802154.o)
                0x000000000000d904                frame802154_has_panid
 .text.field_len
                0x000000000000d9b0       0xb8 contiki-srf06-cc26xx.a(frame802154.o)
 .text.frame802154_is_broadcast_addr
                0x000000000000da68       0x24 contiki-srf06-cc26xx.a(frame802154.o)
                0x000000000000da68                frame802154_is_broadcast_addr
 .text.frame802154_hdrlen
                0x000000000000da8c       0x34 contiki-srf06-cc26xx.a(frame802154.o)
                0x000000000000da8c                frame802154_hdrlen
 .text.frame802154_create
                0x000000000000dac0      0x154 contiki-srf06-cc26xx.a(frame802154.o)
                0x000000000000dac0                frame802154_create
 .text.frame802154_parse
                0x000000000000dc14      0x1d0 contiki-srf06-cc26xx.a(frame802154.o)
                0x000000000000dc14                frame802154_parse
 .text.mac_call_sent_callback
                0x000000000000dde4       0x10 contiki-srf06-cc26xx.a(mac.o)
                0x000000000000dde4                mac_call_sent_callback
 .text.on       0x000000000000ddf4       0x10 contiki-srf06-cc26xx.a(nullrdc.o)
 .text.channel_check_interval
                0x000000000000de04        0x4 contiki-srf06-cc26xx.a(nullrdc.o)
 .text.init     0x000000000000de08       0x10 contiki-srf06-cc26xx.a(nullrdc.o)
 .text.send_one_packet
                0x000000000000de18       0x6c contiki-srf06-cc26xx.a(nullrdc.o)
 .text.send_list
                0x000000000000de84       0x24 contiki-srf06-cc26xx.a(nullrdc.o)
 .text.send_packet
                0x000000000000dea8        0x4 contiki-srf06-cc26xx.a(nullrdc.o)
 .text.off      0x000000000000deac       0x18 contiki-srf06-cc26xx.a(nullrdc.o)
 .text.packet_input
                0x000000000000dec4       0x3c contiki-srf06-cc26xx.a(nullrdc.o)
 .text.input    0x000000000000df00       0x10 contiki-srf06-cc26xx.a(noncoresec.o)
 .text.add_security_header
                0x000000000000df10       0x18 contiki-srf06-cc26xx.a(noncoresec.o)
 .text.send     0x000000000000df28       0x28 contiki-srf06-cc26xx.a(noncoresec.o)
 .text.length   0x000000000000df50       0x18 contiki-srf06-cc26xx.a(noncoresec.o)
 .text.init     0x000000000000df68       0x28 contiki-srf06-cc26xx.a(noncoresec.o)
 .text.aead     0x000000000000df90       0x88 contiki-srf06-cc26xx.a(noncoresec.o)
 .text.parse    0x000000000000e018       0xd8 contiki-srf06-cc26xx.a(noncoresec.o)
 .text.create   0x000000000000e0f0       0x20 contiki-srf06-cc26xx.a(noncoresec.o)
 .text.stimer_set
                0x000000000000e110       0x10 contiki-srf06-cc26xx.a(stimer.o)
                0x000000000000e110                stimer_set
 .text.stimer_expired
                0x000000000000e120       0x24 contiki-srf06-cc26xx.a(stimer.o)
                0x000000000000e120                stimer_expired
 .text.set_key  0x000000000000e144       0x10 contiki-srf06-cc26xx.a(ccm-star.o)
 .text.ctr_step
                0x000000000000e154       0x88 contiki-srf06-cc26xx.a(ccm-star.o)
 .text.aead     0x000000000000e1dc      0x230 contiki-srf06-cc26xx.a(ccm-star.o)
 .text.memb_init
                0x000000000000e40c       0x24 contiki-srf06-cc26xx.a(memb.o)
                0x000000000000e40c                memb_init
 .text.memb_alloc
                0x000000000000e430       0x3c contiki-srf06-cc26xx.a(memb.o)
                0x000000000000e430                memb_alloc
 .text.memb_free
                0x000000000000e46c       0x44 contiki-srf06-cc26xx.a(memb.o)
                0x000000000000e46c                memb_free
 .text.memb_inmemb
                0x000000000000e4b0       0x1c contiki-srf06-cc26xx.a(memb.o)
                0x000000000000e4b0                memb_inmemb
 .text.memb_numfree
                0x000000000000e4cc       0x24 contiki-srf06-cc26xx.a(memb.o)
                0x000000000000e4cc                memb_numfree
 .text.update_nbr
                0x000000000000e4f0      0x130 contiki-srf06-cc26xx.a(rpl-nbr-policy.)
 .text.handle_periodic_timer
                0x000000000000e620       0x18 contiki-srf06-cc26xx.a(rpl-nbr-policy.)
 .text.find_removable_dio
                0x000000000000e638       0x44 contiki-srf06-cc26xx.a(rpl-nbr-policy.)
                0x000000000000e638                find_removable_dio
 .text.find_removable_dao
                0x000000000000e67c       0x38 contiki-srf06-cc26xx.a(rpl-nbr-policy.)
                0x000000000000e67c                find_removable_dao
 .text.rpl_nbr_policy_find_removable
                0x000000000000e6b4       0x48 contiki-srf06-cc26xx.a(rpl-nbr-policy.)
                0x000000000000e6b4                rpl_nbr_policy_find_removable
 .text.NOROM_AONBatMonTemperatureGetDegC
                0x000000000000e6fc       0x38 contiki-srf06-cc26xx.a(aon_batmon.o)
                0x000000000000e6fc                NOROM_AONBatMonTemperatureGetDegC
 .text.NOROM_DDI32RegWrite
                0x000000000000e734       0x3c contiki-srf06-cc26xx.a(ddi.o)
                0x000000000000e734                NOROM_DDI32RegWrite
 .text.parse    0x000000000000e770       0xd4 contiki-srf06-cc26xx.a(framer-802154.o)
 .text.create_frame.isra.0
                0x000000000000e844      0x120 contiki-srf06-cc26xx.a(framer-802154.o)
 .text.create   0x000000000000e964        0x8 contiki-srf06-cc26xx.a(framer-802154.o)
 .text.hdr_length
                0x000000000000e96c        0x8 contiki-srf06-cc26xx.a(framer-802154.o)
 .text.framer_802154_set_seqno
                0x000000000000e974       0x48 contiki-srf06-cc26xx.a(framer-802154.o)
                0x000000000000e974                framer_802154_set_seqno
 .text.order_and_set_counter
                0x000000000000e9bc       0x18 contiki-srf06-cc26xx.a(anti-replay.o)
                0x000000000000e9bc                order_and_set_counter
 .text.anti_replay_get_counter
                0x000000000000e9d4       0x1c contiki-srf06-cc26xx.a(anti-replay.o)
                0x000000000000e9d4                anti_replay_get_counter
 .text.anti_replay_set_counter
                0x000000000000e9f0       0x24 contiki-srf06-cc26xx.a(anti-replay.o)
                0x000000000000e9f0                anti_replay_set_counter
 .text.anti_replay_init_info
                0x000000000000ea14       0x24 contiki-srf06-cc26xx.a(anti-replay.o)
                0x000000000000ea14                anti_replay_init_info
 .text.anti_replay_was_replayed
                0x000000000000ea38       0x2c contiki-srf06-cc26xx.a(anti-replay.o)
                0x000000000000ea38                anti_replay_was_replayed
 .text.ccm_star_packetbuf_set_nonce
                0x000000000000ea64       0x4c contiki-srf06-cc26xx.a(ccm-star-packet)
                0x000000000000ea64                ccm_star_packetbuf_set_nonce
 .text.set_key  0x000000000000eab0       0xa4 contiki-srf06-cc26xx.a(aes-128.o)
 .text.encrypt  0x000000000000eb54      0x15c contiki-srf06-cc26xx.a(aes-128.o)
 .text          0x000000000000ecb0       0x2c /usr/lib/gcc/arm-none-eabi/4.8.2/armv7-m/libgcc.a(_aeabi_uldivmod.o)
                0x000000000000ecb0                __aeabi_uldivmod
 .text          0x000000000000ecdc       0x60 /usr/lib/gcc/arm-none-eabi/4.8.2/armv7-m/libgcc.a(bpabi.o)
                0x000000000000ecdc                __gnu_ldivmod_helper
                0x000000000000ed0c                __gnu_uldivmod_helper
 .text          0x000000000000ed3c        0x4 /usr/lib/gcc/arm-none-eabi/4.8.2/armv7-m/libgcc.a(_dvmd_tls.o)
                0x000000000000ed3c                __aeabi_ldiv0
                0x000000000000ed3c                __aeabi_idiv0
 .text          0x000000000000ed40      0x2bc /usr/lib/gcc/arm-none-eabi/4.8.2/armv7-m/libgcc.a(_divdi3.o)
                0x000000000000ed40                __divdi3
 .text          0x000000000000effc      0x284 /usr/lib/gcc/arm-none-eabi/4.8.2/armv7-m/libgcc.a(_udivdi3.o)
                0x000000000000effc                __udivdi3
 .text.memcmp   0x000000000000f280       0x68 /usr/lib/gcc/arm-none-eabi/4.8.2/../../../arm-none-eabi/lib/armv7-m/libc.a(lib_a-memcmp.o)
                0x000000000000f280                memcmp
 .text          0x000000000000f2e8       0xec /usr/lib/gcc/arm-none-eabi/4.8.2/../../../arm-none-eabi/lib/armv7-m/libc.a(lib_a-memcpy.o)
                0x000000000000f2e8                memcpy
 .text.memmove  0x000000000000f3d4       0xcc /usr/lib/gcc/arm-none-eabi/4.8.2/../../../arm-none-eabi/lib/armv7-m/libc.a(lib_a-memmove.o)
                0x000000000000f3d4                memmove
 .text.memset   0x000000000000f4a0       0x94 /usr/lib/gcc/arm-none-eabi/4.8.2/../../../arm-none-eabi/lib/armv7-m/libc.a(lib_a-memset.o)
                0x000000000000f4a0                memset
 .text.strlen   0x000000000000f534       0x60 /usr/lib/gcc/arm-none-eabi/4.8.2/../../../arm-none-eabi/lib/armv7-m/libc.a(lib_a-strlen.o)
                0x000000000000f534                strlen
 .text.strncmp  0x000000000000f594       0xb4 /usr/lib/gcc/arm-none-eabi/4.8.2/../../../arm-none-eabi/lib/armv7-m/libc.a(lib_a-strncmp.o)
                0x000000000000f594                strncmp
 *(SORT(.rodata*))
 .rodata.autostart_processes
                0x000000000000f648        0x8 udp-server.co
                0x000000000000f648                autostart_processes
 .rodata.str1.4
                0x000000000000f650      0x1bb udp-server.co
                                        0x1bc (size before relaxing)
 *fill*         0x000000000000f80b        0x1 00000000
 .rodata.str1.4
                0x000000000000f80c      0x112 contiki-srf06-cc26xx.a(contiki-main.o)
                                        0x114 (size before relaxing)
 *fill*         0x000000000000f91e        0x2 00000000
 .rodata.str1.4
                0x000000000000f920        0x8 contiki-srf06-cc26xx.a(sensors.o)
 .rodata.button_left_sensor
                0x000000000000f928       0x10 contiki-srf06-cc26xx.a(button-sensor.o)
                0x000000000000f928                button_left_sensor
 .rodata.button_up_sensor
                0x000000000000f938       0x10 contiki-srf06-cc26xx.a(button-sensor.o)
                0x000000000000f938                button_up_sensor
 .rodata.button_select_sensor
                0x000000000000f948       0x10 contiki-srf06-cc26xx.a(button-sensor.o)
                0x000000000000f948                button_select_sensor
 .rodata.button_right_sensor
                0x000000000000f958       0x10 contiki-srf06-cc26xx.a(button-sensor.o)
                0x000000000000f958                button_right_sensor
 .rodata.button_down_sensor
                0x000000000000f968       0x10 contiki-srf06-cc26xx.a(button-sensor.o)
                0x000000000000f968                button_down_sensor
 .rodata.str1.4
                0x000000000000f978        0x7 contiki-srf06-cc26xx.a(button-sensor.o)
                                          0x8 (size before relaxing)
 *fill*         0x000000000000f97f        0x1 00000000
 .rodata.als_sensor
                0x000000000000f980       0x10 contiki-srf06-cc26xx.a(als-sensor.o)
                0x000000000000f980                als_sensor
 .rodata.str1.4
                0x000000000000f990        0x4 contiki-srf06-cc26xx.a(als-sensor.o)
 .rodata.output_power
                0x000000000000f994       0x80 contiki-srf06-cc26xx.a(prop-mode.o)
 .rodata.mode_prop
                0x000000000000fa14        0x8 contiki-srf06-cc26xx.a(prop-mode.o)
 .rodata.prop_mode_driver
                0x000000000000fa1c       0x38 contiki-srf06-cc26xx.a(prop-mode.o)
                0x000000000000fa1c                prop_mode_driver
 .rodata.str1.4
                0x000000000000fa54      0x492 contiki-srf06-cc26xx.a(prop-mode.o)
                                        0x494 (size before relaxing)
 *fill*         0x000000000000fee6        0x2 00000000
 .rodata.patchImageGenfsk
                0x000000000000fee8      0x28c contiki-srf06-cc26xx.a(prop-mode.o)
 .rodata.str1.4
                0x0000000000010174       0x46 contiki-srf06-cc26xx.a(rf-core.o)
                                         0x48 (size before relaxing)
 *fill*         0x00000000000101ba        0x2 00000000
 .rodata.str1.4
                0x00000000000101bc       0x1b contiki-srf06-cc26xx.a(soc-trng.o)
                                         0x1c (size before relaxing)
 *fill*         0x00000000000101d7        0x1 00000000
 .rodata.buffer.4002
                0x00000000000101d8       0x10 contiki-srf06-cc26xx.a(strformat.o)
 .rodata.buffer.4011
                0x00000000000101e8       0x10 contiki-srf06-cc26xx.a(strformat.o)
 .rodata.str1.4
                0x00000000000101f8       0x42 contiki-srf06-cc26xx.a(strformat.o)
                                         0x48 (size before relaxing)
 *fill*         0x000000000001023a        0x2 00000000
 .rodata.str1.4
                0x000000000001023c        0xf contiki-srf06-cc26xx.a(ctimer.o)
                                         0x10 (size before relaxing)
 *fill*         0x000000000001024b        0x1 00000000
 .rodata.str1.4
                0x000000000001024c        0xc contiki-srf06-cc26xx.a(etimer.o)
 .rodata.str1.4
                0x0000000000010258        0xe contiki-srf06-cc26xx.a(serial-line.o)
                                         0x10 (size before relaxing)
 *fill*         0x0000000000010266        0x2 00000000
 .rodata        0x0000000000010268        0x4 contiki-srf06-cc26xx.a(sicslowpan.o)
 .rodata.ttl_values
                0x000000000001026c        0x4 contiki-srf06-cc26xx.a(sicslowpan.o)
 .rodata.unc_llconf
                0x0000000000010270        0x4 contiki-srf06-cc26xx.a(sicslowpan.o)
                0x0000000000010270                unc_llconf
 .rodata.llprefix
                0x0000000000010274        0x4 contiki-srf06-cc26xx.a(sicslowpan.o)
                0x0000000000010274                llprefix
 .rodata.sicslowpan_driver
                0x0000000000010278        0xc contiki-srf06-cc26xx.a(sicslowpan.o)
                0x0000000000010278                sicslowpan_driver
 .rodata.unc_mxconf
                0x0000000000010284        0x4 contiki-srf06-cc26xx.a(sicslowpan.o)
                0x0000000000010284                unc_mxconf
 .rodata.unc_ctxconf
                0x0000000000010288        0x4 contiki-srf06-cc26xx.a(sicslowpan.o)
                0x0000000000010288                unc_ctxconf
 .rodata.str1.4
                0x000000000001028c        0xb contiki-srf06-cc26xx.a(sicslowpan.o)
                                          0xc (size before relaxing)
 *fill*         0x0000000000010297        0x1 00000000
 .rodata.str1.4
                0x0000000000010298        0xd contiki-srf06-cc26xx.a(tcpip.o)
                                         0x10 (size before relaxing)
 *fill*         0x00000000000102a5        0x3 00000000
 .rodata.str1.4
                0x00000000000102a8       0x41 contiki-srf06-cc26xx.a(uip-debug.o)
                                         0x44 (size before relaxing)
 *fill*         0x00000000000102e9        0x3 00000000
 .rodata.linkaddr_null
                0x00000000000102ec        0x8 contiki-srf06-cc26xx.a(linkaddr.o)
                0x00000000000102ec                linkaddr_null
 .rodata.csma_driver
                0x00000000000102f4       0x1c contiki-srf06-cc26xx.a(csma.o)
                0x00000000000102f4                csma_driver
 .rodata.str1.4
                0x0000000000010310        0x5 contiki-srf06-cc26xx.a(csma.o)
                                          0x8 (size before relaxing)
 *fill*         0x0000000000010315        0x3 00000000
 .rodata.str1.4
                0x0000000000010318        0x8 contiki-srf06-cc26xx.a(nullrdc.o)
 .rodata.nullrdc_driver
                0x0000000000010320       0x20 contiki-srf06-cc26xx.a(nullrdc.o)
                0x0000000000010320                nullrdc_driver
 .rodata.noncoresec_driver
                0x0000000000010340       0x10 contiki-srf06-cc26xx.a(noncoresec.o)
                0x0000000000010340                noncoresec_driver
 .rodata.noncoresec_framer
                0x0000000000010350        0xc contiki-srf06-cc26xx.a(noncoresec.o)
                0x0000000000010350                noncoresec_framer
 .rodata.str1.4
                0x000000000001035c        0xc contiki-srf06-cc26xx.a(noncoresec.o)
 .rodata.ccm_star_driver
                0x0000000000010368        0x8 contiki-srf06-cc26xx.a(ccm-star.o)
                0x0000000000010368                ccm_star_driver
 .rodata.framer_802154
                0x0000000000010370        0xc contiki-srf06-cc26xx.a(framer-802154.o)
                0x0000000000010370                framer_802154
 .rodata.sbox   0x000000000001037c      0x100 contiki-srf06-cc26xx.a(aes-128.o)
 .rodata.aes_128_driver
                0x000000000001047c        0x8 contiki-srf06-cc26xx.a(aes-128.o)
                0x000000000001047c                aes_128_driver
                0x0000000000010484                _etext = .

.glue_7         0x0000000000010484        0x0
 .glue_7        0x0000000000000000        0x0 linker stubs

.glue_7t        0x0000000000010484        0x0
 .glue_7t       0x0000000000000000        0x0 linker stubs

.vfp11_veneer   0x0000000000010484        0x0
 .vfp11_veneer  0x0000000000000000        0x0 linker stubs

.v4_bx          0x0000000000010484        0x0
 .v4_bx         0x0000000000000000        0x0 linker stubs

.iplt           0x0000000000010484        0x0
 .iplt          0x0000000000000000        0x0 obj_srf06-cc26xx/startup_gcc.o

.data           0x0000000020000000      0x33d load address 0x0000000000010484
                0x0000000020000000                _data = .
 *(SORT(vtable))
 *(SORT(.data*))
 .data.udp_server_process
                0x0000000020000000       0x10 udp-server.co
                0x0000000020000000                udp_server_process
 .data.sensors_process
                0x0000000020000010       0x10 contiki-srf06-cc26xx.a(sensors.o)
                0x0000000020000010                sensors_process
 .data.sensors  0x0000000020000020       0x1c contiki-srf06-cc26xx.a(srf06-sensors.o)
                0x0000000020000020                sensors
 .data.srf_module
                0x000000002000003c       0x14 contiki-srf06-cc26xx.a(board.o)
 .data.als_aux  0x0000000020000050        0x8 contiki-srf06-cc26xx.a(als-sensor.o)
 .data.prop_lpm_module
                0x0000000020000058       0x14 contiki-srf06-cc26xx.a(prop-mode.o)
 .data.tx_power_current
                0x000000002000006c        0x4 contiki-srf06-cc26xx.a(prop-mode.o)
                0x000000002000006c                tx_power_current
 .data.uart_module
                0x0000000020000070       0x14 contiki-srf06-cc26xx.a(cc26xx-uart.o)
 .data.rf_core_process
                0x0000000020000084       0x10 contiki-srf06-cc26xx.a(rf-core.o)
                0x0000000020000084                rf_core_process
 .data.rng_module
                0x0000000020000094       0x14 contiki-srf06-cc26xx.a(soc-trng.o)
 .data.soc_trng_process
                0x00000000200000a8       0x10 contiki-srf06-cc26xx.a(soc-trng.o)
                0x00000000200000a8                soc_trng_process
 .data.ctxt     0x00000000200000b8        0x8 contiki-srf06-cc26xx.a(dbg-printf.o)
 .data.ctimer_process
                0x00000000200000c0       0x10 contiki-srf06-cc26xx.a(ctimer.o)
                0x00000000200000c0                ctimer_process
 .data.etimer_process
                0x00000000200000d0       0x10 contiki-srf06-cc26xx.a(etimer.o)
                0x00000000200000d0                etimer_process
 .data.serial_line_process
                0x00000000200000e0       0x10 contiki-srf06-cc26xx.a(serial-line.o)
                0x00000000200000e0                serial_line_process
 .data.ds6_neighbors
                0x00000000200000f0        0x4 contiki-srf06-cc26xx.a(uip-ds6-nbr.o)
                0x00000000200000f0                ds6_neighbors
 .data.ds6_neighbors_struct
                0x00000000200000f4       0x10 contiki-srf06-cc26xx.a(uip-ds6-nbr.o)
 .data.defaultroutermemb
                0x0000000020000104        0xc contiki-srf06-cc26xx.a(uip-ds6-route.o)
 .data.nbr_routes_struct
                0x0000000020000110       0x10 contiki-srf06-cc26xx.a(uip-ds6-route.o)
 .data.nbr_routes
                0x0000000020000120        0x4 contiki-srf06-cc26xx.a(uip-ds6-route.o)
                0x0000000020000120                nbr_routes
 .data.routememb
                0x0000000020000124        0xc contiki-srf06-cc26xx.a(uip-ds6-route.o)
 .data.neighborroutememb
                0x0000000020000130        0xc contiki-srf06-cc26xx.a(uip-ds6-route.o)
 .data.echo_request_handler
                0x000000002000013c        0xc contiki-srf06-cc26xx.a(uip-icmp6.o)
 .data.echo_reply_handler
                0x0000000020000148        0xc contiki-srf06-cc26xx.a(uip-icmp6.o)
 .data.ns_input_handler
                0x0000000020000154        0xc contiki-srf06-cc26xx.a(uip-nd6.o)
 .data.tcpip_process
                0x0000000020000160       0x10 contiki-srf06-cc26xx.a(tcpip.o)
                0x0000000020000160                tcpip_process
 .data.rpl_parents
                0x0000000020000170        0x4 contiki-srf06-cc26xx.a(rpl-dag.o)
                0x0000000020000170                rpl_parents
 .data.rpl_parents_struct
                0x0000000020000174       0x10 contiki-srf06-cc26xx.a(rpl-dag.o)
 .data.dao_ack_handler
                0x0000000020000184        0xc contiki-srf06-cc26xx.a(rpl-icmp6.o)
 .data.dis_handler
                0x0000000020000190        0xc contiki-srf06-cc26xx.a(rpl-icmp6.o)
 .data.dao_handler
                0x000000002000019c        0xc contiki-srf06-cc26xx.a(rpl-icmp6.o)
 .data.dio_handler
                0x00000000200001a8        0xc contiki-srf06-cc26xx.a(rpl-icmp6.o)
 .data.rpl_mrhof
                0x00000000200001b4       0x28 contiki-srf06-cc26xx.a(rpl-mrhof.o)
                0x00000000200001b4                rpl_mrhof
 .data.link_stats_struct
                0x00000000200001dc       0x10 contiki-srf06-cc26xx.a(link-stats.o)
 .data.neighbor_addr_mem
                0x00000000200001ec        0xc contiki-srf06-cc26xx.a(nbr-table.o)
 .data.bufmem   0x00000000200001f8        0xc contiki-srf06-cc26xx.a(queuebuf.o)
 .data.buframmem
                0x0000000020000204        0xc contiki-srf06-cc26xx.a(queuebuf.o)
 .data.metadata_memb
                0x0000000020000210        0xc contiki-srf06-cc26xx.a(csma.o)
 .data.packet_memb
                0x000000002000021c        0xc contiki-srf06-cc26xx.a(csma.o)
 .data.neighbor_memb
                0x0000000020000228        0xc contiki-srf06-cc26xx.a(csma.o)
 .data.anti_replay_table_struct
                0x0000000020000234       0x10 contiki-srf06-cc26xx.a(noncoresec.o)
 .data.key      0x0000000020000244       0x10 contiki-srf06-cc26xx.a(noncoresec.o)
 .data.smartrf_settings_cmd_prop_rx_adv
                0x0000000020000254       0x30 contiki-srf06-cc26xx.a(smartrf-setting)
                0x0000000020000254                smartrf_settings_cmd_prop_rx_adv
 .data.smartrf_settings_cmd_fs
                0x0000000020000284       0x18 contiki-srf06-cc26xx.a(smartrf-setting)
                0x0000000020000284                smartrf_settings_cmd_fs
 .data.smartrf_settings_cmd_prop_radio_div_setup
                0x000000002000029c       0x28 contiki-srf06-cc26xx.a(smartrf-setting)
                0x000000002000029c                smartrf_settings_cmd_prop_radio_div_setup
 .data.smartrf_settings_cmd_prop_tx_adv
                0x00000000200002c4       0x20 contiki-srf06-cc26xx.a(smartrf-setting)
                0x00000000200002c4                smartrf_settings_cmd_prop_tx_adv
 .data.overrides
                0x00000000200002e4       0x54 contiki-srf06-cc26xx.a(smartrf-setting)
                0x00000000200002e4                overrides
 .data.mac_pan_id
                0x0000000020000338        0x2 contiki-srf06-cc26xx.a(frame802154.o)
 .data.rssi_threshold
                0x000000002000033a        0x1 contiki-srf06-cc26xx.a(prop-mode.o)
 .data.rng_ready_event
                0x000000002000033b        0x1 contiki-srf06-cc26xx.a(soc-trng.o)
 .data.dao_sequence
                0x000000002000033c        0x1 contiki-srf06-cc26xx.a(rpl-icmp6.o)
                0x000000002000033d                _edata = .

.igot.plt       0x0000000020000340        0x0 load address 0x00000000000107c1
 .igot.plt      0x0000000000000000        0x0 obj_srf06-cc26xx/startup_gcc.o

.ARM.exidx      0x00000000000107c4        0x8
 *(SORT(.ARM.exidx*))
 .ARM.exidx     0x00000000000107c4        0x8 /usr/lib/gcc/arm-none-eabi/4.8.2/armv7-m/libgcc.a(_divdi3.o)
 .ARM.exidx     0x00000000000107cc        0x0 /usr/lib/gcc/arm-none-eabi/4.8.2/armv7-m/libgcc.a(_udivdi3.o)
                                          0x8 (size before relaxing)

.bss            0x0000000020000340     0x2c6c
                0x0000000020000340                _bss = .
 *(SORT(.bss*))
 .bss.count     0x0000000020000340        0x8 contiki-srf06-cc26xx.a(clock.o)
 .bss.rands_cache
                0x0000000020000348       0x20 contiki-srf06-cc26xx.a(soc-trng.o)
 .bss.Rcvd_len  0x0000000020000368        0x4 udp-server.co
                0x0000000020000368                Rcvd_len
 .bss.server_conn
                0x000000002000036c        0x4 udp-server.co
 .bss.i.4754    0x0000000020000370        0x4 contiki-srf06-cc26xx.a(sensors.o)
 .bss.events.4755
                0x0000000020000374        0x4 contiki-srf06-cc26xx.a(sensors.o)
 .bss.inited    0x0000000020000378        0x4 contiki-srf06-cc26xx.a(leds-arch.o)
 .bss.down_timer
                0x000000002000037c       0x10 contiki-srf06-cc26xx.a(button-sensor.o)
 .bss.sel_timer
                0x000000002000038c       0x10 contiki-srf06-cc26xx.a(button-sensor.o)
 .bss.left_timer
                0x000000002000039c       0x10 contiki-srf06-cc26xx.a(button-sensor.o)
 .bss.up_timer  0x00000000200003ac       0x10 contiki-srf06-cc26xx.a(button-sensor.o)
 .bss.rx_stats  0x00000000200003bc        0xc contiki-srf06-cc26xx.a(prop-mode.o)
 .bss.rx_data_queue
                0x00000000200003c8        0x8 contiki-srf06-cc26xx.a(prop-mode.o)
 .bss.rx_read_entry
                0x00000000200003d0        0x4 contiki-srf06-cc26xx.a(prop-mode.o)
 .bss.tx_buf    0x00000000200003d4       0xb8 contiki-srf06-cc26xx.a(prop-mode.o)
 .bss.rx_buf_0  0x000000002000048c       0x8c contiki-srf06-cc26xx.a(prop-mode.o)
 .bss.rx_buf_1  0x0000000020000518       0x8c contiki-srf06-cc26xx.a(prop-mode.o)
 .bss.last_isr_time
                0x00000000200005a4        0x4 contiki-srf06-cc26xx.a(soc-rtc.o)
 .bss.consumers_list_list
                0x00000000200005a8        0x4 contiki-srf06-cc26xx.a(aux-ctrl.o)
 .bss.input_handler
                0x00000000200005ac        0x4 contiki-srf06-cc26xx.a(cc26xx-uart.o)
 .bss.modules_list_list
                0x00000000200005b0        0x4 contiki-srf06-cc26xx.a(lpm.o)
 .bss.handlers  0x00000000200005b4       0x80 contiki-srf06-cc26xx.a(gpio-interrupt.)
 .bss.last_radio_op
                0x0000000020000634        0x4 contiki-srf06-cc26xx.a(rf-core.o)
 .bss.primary_mode
                0x0000000020000638        0x4 contiki-srf06-cc26xx.a(rf-core.o)
 .bss.rat_offset
                0x000000002000063c        0x4 contiki-srf06-cc26xx.a(rf-core.o)
                0x000000002000063c                rat_offset
 .bss.notify_cb
                0x0000000020000640        0x4 contiki-srf06-cc26xx.a(soc-trng.o)
 .bss.rands_mask
                0x0000000020000644        0x4 contiki-srf06-cc26xx.a(soc-trng.o)
 .bss.ctimer_list_list
                0x0000000020000648        0x4 contiki-srf06-cc26xx.a(ctimer.o)
 .bss.timerlist
                0x000000002000064c        0x4 contiki-srf06-cc26xx.a(etimer.o)
 .bss.next_expiration
                0x0000000020000650        0x4 contiki-srf06-cc26xx.a(etimer.o)
 .bss.process_current
                0x0000000020000654        0x4 contiki-srf06-cc26xx.a(process.o)
                0x0000000020000654                process_current
 .bss.process_list
                0x0000000020000658        0x4 contiki-srf06-cc26xx.a(process.o)
                0x0000000020000658                process_list
 .bss.events    0x000000002000065c      0x180 contiki-srf06-cc26xx.a(process.o)
 .bss.next_rtimer
                0x00000000200007dc        0x4 contiki-srf06-cc26xx.a(rtimer.o)
 .bss.rxbuf_data
                0x00000000200007e0      0x100 contiki-srf06-cc26xx.a(serial-line.o)
 .bss.rxbuf     0x00000000200008e0        0x8 contiki-srf06-cc26xx.a(serial-line.o)
 .bss.ptr       0x00000000200008e8        0x4 contiki-srf06-cc26xx.a(serial-line.o)
 .bss.buf       0x00000000200008ec      0x100 contiki-srf06-cc26xx.a(serial-line.o)
 .bss.serial_data_len
                0x00000000200009ec        0x4 contiki-srf06-cc26xx.a(serial-line.o)
                0x00000000200009ec                serial_data_len
 .bss.alarm_timer
                0x00000000200009f0       0x20 contiki-srf06-cc26xx.a(serial-line.o)
 .bss.context   0x0000000020000a10        0x4 contiki-srf06-cc26xx.a(sicslowpan.o)
 .bss.last_rssi
                0x0000000020000a14        0x4 contiki-srf06-cc26xx.a(sicslowpan.o)
 .bss.hc06_ptr  0x0000000020000a18        0x4 contiki-srf06-cc26xx.a(sicslowpan.o)
 .bss.frag_info
                0x0000000020000a1c      0x170 contiki-srf06-cc26xx.a(sicslowpan.o)
 .bss.packetbuf_ptr
                0x0000000020000b8c        0x4 contiki-srf06-cc26xx.a(sicslowpan.o)
 .bss.last_tx_status
                0x0000000020000b90        0x4 contiki-srf06-cc26xx.a(sicslowpan.o)
 .bss.frag_buf  0x0000000020000b94      0x54c contiki-srf06-cc26xx.a(sicslowpan.o)
 .bss.packetbuf_payload_len
                0x00000000200010e0        0x4 contiki-srf06-cc26xx.a(sicslowpan.o)
 .bss.callback  0x00000000200010e4        0x4 contiki-srf06-cc26xx.a(sicslowpan.o)
 .bss.iss       0x00000000200010e8        0x4 contiki-srf06-cc26xx.a(uip6.o)
 .bss.locmaddr  0x00000000200010ec        0x4 contiki-srf06-cc26xx.a(uip-ds6.o)
 .bss.locprefix
                0x00000000200010f0        0x4 contiki-srf06-cc26xx.a(uip-ds6.o)
 .bss.locaddr   0x00000000200010f4        0x4 contiki-srf06-cc26xx.a(uip-ds6.o)
 .bss.loc_fipaddr
                0x00000000200010f8       0x10 contiki-srf06-cc26xx.a(uip-ds6.o)
 .bss._ds6_neighbors_mem
                0x0000000020001108      0x168 contiki-srf06-cc26xx.a(uip-ds6-nbr.o)
 .bss.defaultroutermemb_memb_mem
                0x0000000020001270       0x40 contiki-srf06-cc26xx.a(uip-ds6-route.o)
 .bss.num_routes
                0x00000000200012b0        0x4 contiki-srf06-cc26xx.a(uip-ds6-route.o)
 .bss.defaultroutermemb_memb_count
                0x00000000200012b4        0x4 contiki-srf06-cc26xx.a(uip-ds6-route.o)
 .bss.defaultrouterlist_list
                0x00000000200012b8        0x4 contiki-srf06-cc26xx.a(uip-ds6-route.o)
 .bss._nbr_routes_mem
                0x00000000200012bc       0xa0 contiki-srf06-cc26xx.a(uip-ds6-route.o)
 .bss.routelist_list
                0x000000002000135c        0x4 contiki-srf06-cc26xx.a(uip-ds6-route.o)
 .bss.routememb_memb_mem
                0x0000000020001360      0x320 contiki-srf06-cc26xx.a(uip-ds6-route.o)
 .bss.neighborroutememb_memb_mem
                0x0000000020001680       0xa0 contiki-srf06-cc26xx.a(uip-ds6-route.o)
 .bss.notificationlist_list
                0x0000000020001720        0x4 contiki-srf06-cc26xx.a(uip-ds6-route.o)
 .bss.neighborroutememb_memb_count
                0x0000000020001724       0x14 contiki-srf06-cc26xx.a(uip-ds6-route.o)
 .bss.routememb_memb_count
                0x0000000020001738       0x14 contiki-srf06-cc26xx.a(uip-ds6-route.o)
 .bss.tmp_ipaddr
                0x000000002000174c       0x10 contiki-srf06-cc26xx.a(uip-icmp6.o)
 .bss.echo_reply_callback_list_list
                0x000000002000175c        0x4 contiki-srf06-cc26xx.a(uip-icmp6.o)
 .bss.input_handler_list_list
                0x0000000020001760        0x4 contiki-srf06-cc26xx.a(uip-icmp6.o)
 .bss.nbr       0x0000000020001764        0x4 contiki-srf06-cc26xx.a(uip-nd6.o)
 .bss.nd6_opt_llao
                0x0000000020001768        0x4 contiki-srf06-cc26xx.a(uip-nd6.o)
 .bss.addr      0x000000002000176c        0x4 contiki-srf06-cc26xx.a(uip-nd6.o)
 .bss.inputfunc
                0x0000000020001770        0x4 contiki-srf06-cc26xx.a(tcpip.o)
 .bss.s         0x0000000020001774       0xa4 contiki-srf06-cc26xx.a(tcpip.o)
 .bss.periodic  0x0000000020001818       0x10 contiki-srf06-cc26xx.a(tcpip.o)
 .bss.outputfunc
                0x0000000020001828        0x4 contiki-srf06-cc26xx.a(tcpip.o)
 .bss._rpl_parents_mem
                0x000000002000182c       0xa0 contiki-srf06-cc26xx.a(rpl-dag.o)
 .bss.periodic_timer
                0x00000000200018cc       0x20 contiki-srf06-cc26xx.a(rpl-timers.o)
 .bss.powerQualGlobals
                0x00000000200018ec        0x8 contiki-srf06-cc26xx.a(sys_ctrl.o)
 .bss._link_stats_mem
                0x00000000200018f4       0xf0 contiki-srf06-cc26xx.a(link-stats.o)
 .bss.neighbor_addr_mem_memb_count
                0x00000000200019e4       0x14 contiki-srf06-cc26xx.a(nbr-table.o)
 .bss.locked_map
                0x00000000200019f8       0x14 contiki-srf06-cc26xx.a(nbr-table.o)
 .bss.nbr_table_keys_list
                0x0000000020001a0c        0x4 contiki-srf06-cc26xx.a(nbr-table.o)
 .bss.neighbor_addr_mem_memb_mem
                0x0000000020001a10       0xf0 contiki-srf06-cc26xx.a(nbr-table.o)
 .bss.used_map  0x0000000020001b00       0x14 contiki-srf06-cc26xx.a(nbr-table.o)
 .bss.all_tables
                0x0000000020001b14       0x20 contiki-srf06-cc26xx.a(nbr-table.o)
 .bss.num_tables
                0x0000000020001b34        0x4 contiki-srf06-cc26xx.a(nbr-table.o)
 .bss.packetbuf_aligned
                0x0000000020001b38       0x80 contiki-srf06-cc26xx.a(packetbuf.o)
 .bss.buframmem_memb_count
                0x0000000020001bb8        0x8 contiki-srf06-cc26xx.a(queuebuf.o)
 .bss.bufmem_memb_mem
                0x0000000020001bc0       0x20 contiki-srf06-cc26xx.a(queuebuf.o)
 .bss.buframmem_memb_mem
                0x0000000020001be0      0x5b0 contiki-srf06-cc26xx.a(queuebuf.o)
 .bss.bufmem_memb_count
                0x0000000020002190        0x8 contiki-srf06-cc26xx.a(queuebuf.o)
 .bss.metadata_memb_memb_count
                0x0000000020002198        0x8 contiki-srf06-cc26xx.a(csma.o)
 .bss.packet_memb_memb_count
                0x00000000200021a0        0x8 contiki-srf06-cc26xx.a(csma.o)
 .bss.metadata_memb_memb_mem
                0x00000000200021a8       0x60 contiki-srf06-cc26xx.a(csma.o)
 .bss.neighbor_list_list
                0x0000000020002208        0x4 contiki-srf06-cc26xx.a(csma.o)
 .bss.packet_memb_memb_mem
                0x000000002000220c       0x60 contiki-srf06-cc26xx.a(csma.o)
 .bss.neighbor_memb_memb_count
                0x000000002000226c        0x4 contiki-srf06-cc26xx.a(csma.o)
 .bss.neighbor_memb_memb_mem
                0x0000000020002270       0x70 contiki-srf06-cc26xx.a(csma.o)
 .bss._anti_replay_table_mem
                0x00000000200022e0       0xa0 contiki-srf06-cc26xx.a(noncoresec.o)
 .bss.periodic_timer
                0x0000000020002380       0x20 contiki-srf06-cc26xx.a(rpl-nbr-policy.)
 .bss.timer_init
                0x00000000200023a0        0x4 contiki-srf06-cc26xx.a(rpl-nbr-policy.)
 .bss.num_children
                0x00000000200023a4        0x4 contiki-srf06-cc26xx.a(rpl-nbr-policy.)
 .bss.worst_rank_nbr
                0x00000000200023a8        0x4 contiki-srf06-cc26xx.a(rpl-nbr-policy.)
 .bss.num_free  0x00000000200023ac        0x4 contiki-srf06-cc26xx.a(rpl-nbr-policy.)
 .bss.num_parents
                0x00000000200023b0        0x4 contiki-srf06-cc26xx.a(rpl-nbr-policy.)
 .bss.is_mac_dsn_initialized
                0x00000000200023b4        0x4 contiki-srf06-cc26xx.a(framer-802154.o)
 .bss.my_counter
                0x00000000200023b8        0x4 contiki-srf06-cc26xx.a(anti-replay.o)
 .bss.round_keys
                0x00000000200023bc       0xb0 contiki-srf06-cc26xx.a(aes-128.o)
 .bss.node_id   0x000000002000246c        0x2 contiki-srf06-cc26xx.a(contiki-main.o)
                0x000000002000246c                node_id
 .bss.my_tag    0x000000002000246e        0x2 contiki-srf06-cc26xx.a(sicslowpan.o)
 .bss.lastport  0x0000000020002470        0x2 contiki-srf06-cc26xx.a(uip6.o)
 .bss.next_dis  0x0000000020002472        0x2 contiki-srf06-cc26xx.a(rpl-timers.o)
 .bss.buflen    0x0000000020002474        0x2 contiki-srf06-cc26xx.a(packetbuf.o)
 .bss.bufptr    0x0000000020002476        0x2 contiki-srf06-cc26xx.a(packetbuf.o)
 .bss.worst_rank
                0x0000000020002478        0x2 contiki-srf06-cc26xx.a(rpl-nbr-policy.)
 .bss.num_sensors
                0x000000002000247a        0x1 contiki-srf06-cc26xx.a(sensors.o)
 .bss.leds      0x000000002000247b        0x1 contiki-srf06-cc26xx.a(leds.o)
 .bss.c         0x000000002000247c        0x1 contiki-srf06-cc26xx.a(leds-arch.o)
 .bss.rat_offset_known
                0x000000002000247d        0x1 contiki-srf06-cc26xx.a(rf-core.o)
 .bss.ble_mode_on
                0x000000002000247e        0x1 contiki-srf06-cc26xx.a(rf-ble.o)
 .bss.initialized
                0x000000002000247f        0x1 contiki-srf06-cc26xx.a(ctimer.o)
 .bss.fevent    0x0000000020002480        0x1 contiki-srf06-cc26xx.a(process.o)
 .bss.nevents   0x0000000020002481        0x1 contiki-srf06-cc26xx.a(process.o)
 .bss.poll_requested
                0x0000000020002482        0x1 contiki-srf06-cc26xx.a(process.o)
 .bss.lastevent
                0x0000000020002483        0x1 contiki-srf06-cc26xx.a(process.o)
 .bss.overflow.5342
                0x0000000020002484        0x1 contiki-srf06-cc26xx.a(serial-line.o)
 .bss.uncomp_hdr_len
                0x0000000020002485        0x1 contiki-srf06-cc26xx.a(sicslowpan.o)
 .bss.packetbuf_hdr_len
                0x0000000020002486        0x1 contiki-srf06-cc26xx.a(sicslowpan.o)
 .bss.uip_ext_len
                0x0000000020002487        0x1 contiki-srf06-cc26xx.a(uip6.o)
                0x0000000020002487                uip_ext_len
 .bss.uip_ext_bitmap
                0x0000000020002488        0x1 contiki-srf06-cc26xx.a(uip6.o)
                0x0000000020002488                uip_ext_bitmap
 .bss.uip_ext_opt_offset
                0x0000000020002489        0x1 contiki-srf06-cc26xx.a(uip6.o)
                0x0000000020002489                uip_ext_opt_offset
 .bss.nd6_opt_offset
                0x000000002000248a        0x1 contiki-srf06-cc26xx.a(uip-nd6.o)
 .bss.mode      0x000000002000248b        0x1 contiki-srf06-cc26xx.a(rpl.o)
 .bss.dio_send_ok
                0x000000002000248c        0x1 contiki-srf06-cc26xx.a(rpl-timers.o)
 .bss.hdrlen    0x000000002000248d        0x1 contiki-srf06-cc26xx.a(packetbuf.o)
 .bss.mac_dsn   0x000000002000248e        0x1 contiki-srf06-cc26xx.a(framer-802154.o)
 *(SORT(COMMON))
 *fill*         0x000000002000248f        0x1 
 COMMON         0x0000000020002490       0x20 udp-server.co
                0x0000000020002490                Mac_id
                0x00000000200024a0                paired_node_addr
 COMMON         0x00000000200024b0        0x7 contiki-srf06-cc26xx.a(srf06-sensors.o)
                0x00000000200024b0                sensors_flags
 *fill*         0x00000000200024b7        0x1 
 COMMON         0x00000000200024b8        0xa contiki-srf06-cc26xx.a(sicslowpan.o)
                0x00000000200024b8                addr_contexts
 *fill*         0x00000000200024c2        0x2 
 COMMON         0x00000000200024c4      0x764 contiki-srf06-cc26xx.a(uip6.o)
                0x00000000200024c4                uip_len
                0x00000000200024c8                uip_sappdata
                0x00000000200024cc                uip_acc32
                0x00000000200024d0                uip_lladdr
                0x00000000200024d8                uip_aligned_buf
                0x00000000200028c0                uip_flags
                0x00000000200028c4                uip_next_hdr
                0x00000000200028c8                uip_udp_conn
                0x00000000200028cc                uip_appdata
                0x00000000200028d0                uip_conn
                0x00000000200028d4                uip_conns
                0x0000000020002ab4                uip_icmp6_conns
                0x0000000020002abc                uip_listenports
                0x0000000020002ae4                uip_slen
                0x0000000020002ae8                uip_udp_conns
 COMMON         0x0000000020002c28      0x174 contiki-srf06-cc26xx.a(uip-ds6.o)
                0x0000000020002c28                uip_ds6_timer_ra
                0x0000000020002c30                uip_ds6_if
                0x0000000020002d28                uip_ds6_netif_addr_list_offset
                0x0000000020002d29                uip_ds6_addr_size
                0x0000000020002d2c                uip_ds6_prefix_list
                0x0000000020002d8c                uip_ds6_timer_periodic
 COMMON         0x0000000020002d9c      0x17c contiki-srf06-cc26xx.a(rpl-dag.o)
                0x0000000020002d9c                default_instance
                0x0000000020002da0                instance_table
 COMMON         0x0000000020002f18        0x8 contiki-srf06-cc26xx.a(linkaddr.o)
                0x0000000020002f18                linkaddr_node_addr
 COMMON         0x0000000020002f20       0x20 contiki-srf06-cc26xx.a(link-stats.o)
                0x0000000020002f20                periodic_timer
 COMMON         0x0000000020002f40       0x34 contiki-srf06-cc26xx.a(packetbuf.o)
                0x0000000020002f40                packetbuf_addrs
                0x0000000020002f50                packetbuf_attrs
 COMMON         0x0000000020002f74       0x24 contiki-srf06-cc26xx.a(csma.o)
                0x0000000020002f74                csma_noack
                0x0000000020002f78                neighbor_overflow
                0x0000000020002f7c                packet_overflow
                0x0000000020002f80                csma_retransmissions
                0x0000000020002f84                csma_received_packets
                0x0000000020002f88                csma_dropped
                0x0000000020002f8c                csma_deferred
                0x0000000020002f90                csma_collisions
                0x0000000020002f94                csma_sent_packets
 COMMON         0x0000000020002f98       0x10 contiki-srf06-cc26xx.a(noncoresec.o)
                0x0000000020002f98                noncoresec_reboot
                0x0000000020002f9c                noncoresec_replayed
                0x0000000020002fa0                noncoresec_nonauthentic
                0x0000000020002fa4                noncoresec_invalid_level
 COMMON         0x0000000020002fa8        0x1 contiki-srf06-cc26xx.a(sensors.o)
                0x0000000020002fa8                sensors_event
 COMMON         0x0000000020002fa9        0x1 contiki-srf06-cc26xx.a(serial-line.o)
                0x0000000020002fa9                serial_line_event_message
 COMMON         0x0000000020002faa        0x2 contiki-srf06-cc26xx.a(tcpip.o)
                0x0000000020002faa                tcpip_event
                0x0000000020002fab                tcpip_icmp6_event
                0x0000000020002fac                _ebss = .

.ccfg           0x000000000001ffa8       0x58
 *(SORT(.ccfg))
 .ccfg          0x000000000001ffa8       0x58 obj_srf06-cc26xx/ccfg.o
                0x000000000001ffa8                __ccfg

.rel.dyn        0x0000000000020000        0x0
 .rel.iplt      0x0000000000000000        0x0 obj_srf06-cc26xx/startup_gcc.o

._user_heap_stack
                0x0000000020002fac      0x100
                0x0000000020002fac                . = ALIGN (0x4)
                0x0000000020002fac                . = (. + _Min_Heap_Size)
                0x00000000200030ac                . = (. + _Min_Stack_Size)
 *fill*         0x0000000020002fac      0x100 
                0x00000000200030ac                . = ALIGN (0x4)

.gpram
OUTPUT(udp-server.elf elf32-littlearm)

.comment        0x0000000000000000       0x1f
 .comment       0x0000000000000000       0x1f obj_srf06-cc26xx/fault-handlers.o
                                         0x20 (size before relaxing)
 .comment       0x0000000000000000       0x20 obj_srf06-cc26xx/ccfg.o
 .comment       0x0000000000000000       0x20 obj_srf06-cc26xx/startup_gcc.o
 .comment       0x0000000000000000       0x20 udp-server.co
 .comment       0x0000000000000000       0x20 contiki-srf06-cc26xx.a(contiki-main.o)
 .comment       0x0000000000000000       0x20 contiki-srf06-cc26xx.a(sensors.o)
 .comment       0x0000000000000000       0x20 contiki-srf06-cc26xx.a(leds.o)
 .comment       0x0000000000000000       0x20 contiki-srf06-cc26xx.a(leds-arch.o)
 .comment       0x0000000000000000       0x20 contiki-srf06-cc26xx.a(srf06-sensors.o)
 .comment       0x0000000000000000       0x20 contiki-srf06-cc26xx.a(button-sensor.o)
 .comment       0x0000000000000000       0x20 contiki-srf06-cc26xx.a(board.o)
 .comment       0x0000000000000000       0x20 contiki-srf06-cc26xx.a(als-sensor.o)
 .comment       0x0000000000000000       0x20 contiki-srf06-cc26xx.a(prop-mode.o)
 .comment       0x0000000000000000       0x20 contiki-srf06-cc26xx.a(clock.o)
 .comment       0x0000000000000000       0x20 contiki-srf06-cc26xx.a(rtimer-arch.o)
 .comment       0x0000000000000000       0x20 contiki-srf06-cc26xx.a(soc-rtc.o)
 .comment       0x0000000000000000       0x20 contiki-srf06-cc26xx.a(contiki-watchdo)
 .comment       0x0000000000000000       0x20 contiki-srf06-cc26xx.a(aux-ctrl.o)
 .comment       0x0000000000000000       0x20 contiki-srf06-cc26xx.a(putchar.o)
 .comment       0x0000000000000000       0x20 contiki-srf06-cc26xx.a(ieee-addr.o)
 .comment       0x0000000000000000       0x20 contiki-srf06-cc26xx.a(cc26xx-uart.o)
 .comment       0x0000000000000000       0x20 contiki-srf06-cc26xx.a(lpm.o)
 .comment       0x0000000000000000       0x20 contiki-srf06-cc26xx.a(gpio-interrupt.)
 .comment       0x0000000000000000       0x20 contiki-srf06-cc26xx.a(oscillators.o)
 .comment       0x0000000000000000       0x20 contiki-srf06-cc26xx.a(rf-core.o)
 .comment       0x0000000000000000       0x20 contiki-srf06-cc26xx.a(rf-ble.o)
 .comment       0x0000000000000000       0x20 contiki-srf06-cc26xx.a(random.o)
 .comment       0x0000000000000000       0x20 contiki-srf06-cc26xx.a(soc-trng.o)
 .comment       0x0000000000000000       0x20 contiki-srf06-cc26xx.a(dbg-printf.o)
 .comment       0x0000000000000000       0x20 contiki-srf06-cc26xx.a(strformat.o)
 .comment       0x0000000000000000       0x20 contiki-srf06-cc26xx.a(autostart.o)
 .comment       0x0000000000000000       0x20 contiki-srf06-cc26xx.a(ctimer.o)
 .comment       0x0000000000000000       0x20 contiki-srf06-cc26xx.a(energest.o)
 .comment       0x0000000000000000       0x20 contiki-srf06-cc26xx.a(etimer.o)
 .comment       0x0000000000000000       0x20 contiki-srf06-cc26xx.a(process.o)
 .comment       0x0000000000000000       0x20 contiki-srf06-cc26xx.a(rtimer.o)
 .comment       0x0000000000000000       0x20 contiki-srf06-cc26xx.a(timer.o)
 .comment       0x0000000000000000       0x20 contiki-srf06-cc26xx.a(serial-line.o)
 .comment       0x0000000000000000       0x20 contiki-srf06-cc26xx.a(list.o)
 .comment       0x0000000000000000       0x20 contiki-srf06-cc26xx.a(ringbuf.o)
 .comment       0x0000000000000000       0x20 contiki-srf06-cc26xx.a(sicslowpan.o)
 .comment       0x0000000000000000       0x20 contiki-srf06-cc26xx.a(uip6.o)
 .comment       0x0000000000000000       0x20 contiki-srf06-cc26xx.a(uip-ds6.o)
 .comment       0x0000000000000000       0x20 contiki-srf06-cc26xx.a(uip-ds6-nbr.o)
 .comment       0x0000000000000000       0x20 contiki-srf06-cc26xx.a(uip-ds6-route.o)
 .comment       0x0000000000000000       0x20 contiki-srf06-cc26xx.a(uip-icmp6.o)
 .comment       0x0000000000000000       0x20 contiki-srf06-cc26xx.a(uip-nd6.o)
 .comment       0x0000000000000000       0x20 contiki-srf06-cc26xx.a(tcpip.o)
 .comment       0x0000000000000000       0x20 contiki-srf06-cc26xx.a(uip-debug.o)
 .comment       0x0000000000000000       0x20 contiki-srf06-cc26xx.a(uip-udp-packet.)
 .comment       0x0000000000000000       0x20 contiki-srf06-cc26xx.a(rpl.o)
 .comment       0x0000000000000000       0x20 contiki-srf06-cc26xx.a(rpl-dag.o)
 .comment       0x0000000000000000       0x20 contiki-srf06-cc26xx.a(rpl-ext-header.)
 .comment       0x0000000000000000       0x20 contiki-srf06-cc26xx.a(rpl-icmp6.o)
 .comment       0x0000000000000000       0x20 contiki-srf06-cc26xx.a(rpl-mrhof.o)
 .comment       0x0000000000000000       0x20 contiki-srf06-cc26xx.a(rpl-timers.o)
 .comment       0x0000000000000000       0x20 contiki-srf06-cc26xx.a(adi.o)
 .comment       0x0000000000000000       0x20 contiki-srf06-cc26xx.a(aon_rtc.o)
 .comment       0x0000000000000000       0x20 contiki-srf06-cc26xx.a(aux_adc.o)
 .comment       0x0000000000000000       0x20 contiki-srf06-cc26xx.a(chipinfo.o)
 .comment       0x0000000000000000       0x20 contiki-srf06-cc26xx.a(cpu.o)
 .comment       0x0000000000000000       0x20 contiki-srf06-cc26xx.a(osc.o)
 .comment       0x0000000000000000       0x20 contiki-srf06-cc26xx.a(pwr_ctrl.o)
 .comment       0x0000000000000000       0x20 contiki-srf06-cc26xx.a(setup.o)
 .comment       0x0000000000000000       0x20 contiki-srf06-cc26xx.a(setup_rom.o)
 .comment       0x0000000000000000       0x20 contiki-srf06-cc26xx.a(sys_ctrl.o)
 .comment       0x0000000000000000       0x20 contiki-srf06-cc26xx.a(trng.o)
 .comment       0x0000000000000000       0x20 contiki-srf06-cc26xx.a(linkaddr.o)
 .comment       0x0000000000000000       0x20 contiki-srf06-cc26xx.a(link-stats.o)
 .comment       0x0000000000000000       0x20 contiki-srf06-cc26xx.a(nbr-table.o)
 .comment       0x0000000000000000       0x20 contiki-srf06-cc26xx.a(netstack.o)
 .comment       0x0000000000000000       0x20 contiki-srf06-cc26xx.a(packetbuf.o)
 .comment       0x0000000000000000       0x20 contiki-srf06-cc26xx.a(queuebuf.o)
 .comment       0x0000000000000000       0x20 contiki-srf06-cc26xx.a(csma.o)
 .comment       0x0000000000000000       0x20 contiki-srf06-cc26xx.a(frame802154.o)
 .comment       0x0000000000000000       0x20 contiki-srf06-cc26xx.a(mac.o)
 .comment       0x0000000000000000       0x20 contiki-srf06-cc26xx.a(nullrdc.o)
 .comment       0x0000000000000000       0x20 contiki-srf06-cc26xx.a(noncoresec.o)
 .comment       0x0000000000000000       0x20 contiki-srf06-cc26xx.a(smartrf-setting)
 .comment       0x0000000000000000       0x20 contiki-srf06-cc26xx.a(stimer.o)
 .comment       0x0000000000000000       0x20 contiki-srf06-cc26xx.a(ccm-star.o)
 .comment       0x0000000000000000       0x20 contiki-srf06-cc26xx.a(memb.o)
 .comment       0x0000000000000000       0x20 contiki-srf06-cc26xx.a(rpl-nbr-policy.)
 .comment       0x0000000000000000       0x20 contiki-srf06-cc26xx.a(aon_batmon.o)
 .comment       0x0000000000000000       0x20 contiki-srf06-cc26xx.a(ddi.o)
 .comment       0x0000000000000000       0x20 contiki-srf06-cc26xx.a(framer-802154.o)
 .comment       0x0000000000000000       0x20 contiki-srf06-cc26xx.a(anti-replay.o)
 .comment       0x0000000000000000       0x20 contiki-srf06-cc26xx.a(ccm-star-packet)
 .comment       0x0000000000000000       0x20 contiki-srf06-cc26xx.a(aes-128.o)
 .comment       0x0000000000000000       0x20 /usr/lib/gcc/arm-none-eabi/4.8.2/armv7-m/libgcc.a(bpabi.o)
 .comment       0x0000000000000000       0x20 /usr/lib/gcc/arm-none-eabi/4.8.2/armv7-m/libgcc.a(_divdi3.o)
 .comment       0x0000000000000000       0x20 /usr/lib/gcc/arm-none-eabi/4.8.2/armv7-m/libgcc.a(_udivdi3.o)
 .comment       0x0000000000000000       0x20 /usr/lib/gcc/arm-none-eabi/4.8.2/../../../arm-none-eabi/lib/armv7-m/libc.a(lib_a-memcmp.o)
 .comment       0x0000000000000000       0x20 /usr/lib/gcc/arm-none-eabi/4.8.2/../../../arm-none-eabi/lib/armv7-m/libc.a(lib_a-memmove.o)
 .comment       0x0000000000000000       0x20 /usr/lib/gcc/arm-none-eabi/4.8.2/../../../arm-none-eabi/lib/armv7-m/libc.a(lib_a-memset.o)
 .comment       0x0000000000000000       0x20 /usr/lib/gcc/arm-none-eabi/4.8.2/../../../arm-none-eabi/lib/armv7-m/libc.a(lib_a-strlen.o)
 .comment       0x0000000000000000       0x20 /usr/lib/gcc/arm-none-eabi/4.8.2/../../../arm-none-eabi/lib/armv7-m/libc.a(lib_a-strncmp.o)

.ARM.attributes
                0x0000000000000000       0x31
 .ARM.attributes
                0x0000000000000000       0x33 obj_srf06-cc26xx/fault-handlers.o
 .ARM.attributes
                0x0000000000000033       0x33 obj_srf06-cc26xx/ccfg.o
 .ARM.attributes
                0x0000000000000066       0x33 obj_srf06-cc26xx/startup_gcc.o
 .ARM.attributes
                0x0000000000000099       0x33 udp-server.co
 .ARM.attributes
                0x00000000000000cc       0x33 contiki-srf06-cc26xx.a(contiki-main.o)
 .ARM.attributes
                0x00000000000000ff       0x33 contiki-srf06-cc26xx.a(sensors.o)
 .ARM.attributes
                0x0000000000000132       0x33 contiki-srf06-cc26xx.a(leds.o)
 .ARM.attributes
                0x0000000000000165       0x33 contiki-srf06-cc26xx.a(leds-arch.o)
 .ARM.attributes
                0x0000000000000198       0x33 contiki-srf06-cc26xx.a(srf06-sensors.o)
 .ARM.attributes
                0x00000000000001cb       0x33 contiki-srf06-cc26xx.a(button-sensor.o)
 .ARM.attributes
                0x00000000000001fe       0x33 contiki-srf06-cc26xx.a(board.o)
 .ARM.attributes
                0x0000000000000231       0x33 contiki-srf06-cc26xx.a(als-sensor.o)
 .ARM.attributes
                0x0000000000000264       0x33 contiki-srf06-cc26xx.a(prop-mode.o)
 .ARM.attributes
                0x0000000000000297       0x33 contiki-srf06-cc26xx.a(clock.o)
 .ARM.attributes
                0x00000000000002ca       0x33 contiki-srf06-cc26xx.a(rtimer-arch.o)
 .ARM.attributes
                0x00000000000002fd       0x33 contiki-srf06-cc26xx.a(soc-rtc.o)
 .ARM.attributes
                0x0000000000000330       0x33 contiki-srf06-cc26xx.a(contiki-watchdo)
 .ARM.attributes
                0x0000000000000363       0x33 contiki-srf06-cc26xx.a(aux-ctrl.o)
 .ARM.attributes
                0x0000000000000396       0x33 contiki-srf06-cc26xx.a(putchar.o)
 .ARM.attributes
                0x00000000000003c9       0x33 contiki-srf06-cc26xx.a(ieee-addr.o)
 .ARM.attributes
                0x00000000000003fc       0x33 contiki-srf06-cc26xx.a(cc26xx-uart.o)
 .ARM.attributes
                0x000000000000042f       0x33 contiki-srf06-cc26xx.a(lpm.o)
 .ARM.attributes
                0x0000000000000462       0x33 contiki-srf06-cc26xx.a(gpio-interrupt.)
 .ARM.attributes
                0x0000000000000495       0x33 contiki-srf06-cc26xx.a(oscillators.o)
 .ARM.attributes
                0x00000000000004c8       0x33 contiki-srf06-cc26xx.a(rf-core.o)
 .ARM.attributes
                0x00000000000004fb       0x33 contiki-srf06-cc26xx.a(rf-ble.o)
 .ARM.attributes
                0x000000000000052e       0x33 contiki-srf06-cc26xx.a(random.o)
 .ARM.attributes
                0x0000000000000561       0x33 contiki-srf06-cc26xx.a(soc-trng.o)
 .ARM.attributes
                0x0000000000000594       0x33 contiki-srf06-cc26xx.a(dbg-printf.o)
 .ARM.attributes
                0x00000000000005c7       0x33 contiki-srf06-cc26xx.a(strformat.o)
 .ARM.attributes
                0x00000000000005fa       0x33 contiki-srf06-cc26xx.a(autostart.o)
 .ARM.attributes
                0x000000000000062d       0x33 contiki-srf06-cc26xx.a(ctimer.o)
 .ARM.attributes
                0x0000000000000660       0x33 contiki-srf06-cc26xx.a(energest.o)
 .ARM.attributes
                0x0000000000000693       0x33 contiki-srf06-cc26xx.a(etimer.o)
 .ARM.attributes
                0x00000000000006c6       0x33 contiki-srf06-cc26xx.a(process.o)
 .ARM.attributes
                0x00000000000006f9       0x33 contiki-srf06-cc26xx.a(rtimer.o)
 .ARM.attributes
                0x000000000000072c       0x33 contiki-srf06-cc26xx.a(timer.o)
 .ARM.attributes
                0x000000000000075f       0x33 contiki-srf06-cc26xx.a(serial-line.o)
 .ARM.attributes
                0x0000000000000792       0x33 contiki-srf06-cc26xx.a(list.o)
 .ARM.attributes
                0x00000000000007c5       0x33 contiki-srf06-cc26xx.a(ringbuf.o)
 .ARM.attributes
                0x00000000000007f8       0x33 contiki-srf06-cc26xx.a(sicslowpan.o)
 .ARM.attributes
                0x000000000000082b       0x33 contiki-srf06-cc26xx.a(uip6.o)
 .ARM.attributes
                0x000000000000085e       0x33 contiki-srf06-cc26xx.a(uip-ds6.o)
 .ARM.attributes
                0x0000000000000891       0x33 contiki-srf06-cc26xx.a(uip-ds6-nbr.o)
 .ARM.attributes
                0x00000000000008c4       0x33 contiki-srf06-cc26xx.a(uip-ds6-route.o)
 .ARM.attributes
                0x00000000000008f7       0x33 contiki-srf06-cc26xx.a(uip-icmp6.o)
 .ARM.attributes
                0x000000000000092a       0x33 contiki-srf06-cc26xx.a(uip-nd6.o)
 .ARM.attributes
                0x000000000000095d       0x33 contiki-srf06-cc26xx.a(tcpip.o)
 .ARM.attributes
                0x0000000000000990       0x33 contiki-srf06-cc26xx.a(uip-debug.o)
 .ARM.attributes
                0x00000000000009c3       0x33 contiki-srf06-cc26xx.a(uip-udp-packet.)
 .ARM.attributes
                0x00000000000009f6       0x33 contiki-srf06-cc26xx.a(rpl.o)
 .ARM.attributes
                0x0000000000000a29       0x33 contiki-srf06-cc26xx.a(rpl-dag.o)
 .ARM.attributes
                0x0000000000000a5c       0x33 contiki-srf06-cc26xx.a(rpl-ext-header.)
 .ARM.attributes
                0x0000000000000a8f       0x33 contiki-srf06-cc26xx.a(rpl-icmp6.o)
 .ARM.attributes
                0x0000000000000ac2       0x33 contiki-srf06-cc26xx.a(rpl-mrhof.o)
 .ARM.attributes
                0x0000000000000af5       0x33 contiki-srf06-cc26xx.a(rpl-timers.o)
 .ARM.attributes
                0x0000000000000b28       0x33 contiki-srf06-cc26xx.a(adi.o)
 .ARM.attributes
                0x0000000000000b5b       0x33 contiki-srf06-cc26xx.a(aon_rtc.o)
 .ARM.attributes
                0x0000000000000b8e       0x33 contiki-srf06-cc26xx.a(aux_adc.o)
 .ARM.attributes
                0x0000000000000bc1       0x33 contiki-srf06-cc26xx.a(chipinfo.o)
 .ARM.attributes
                0x0000000000000bf4       0x33 contiki-srf06-cc26xx.a(cpu.o)
 .ARM.attributes
                0x0000000000000c27       0x33 contiki-srf06-cc26xx.a(osc.o)
 .ARM.attributes
                0x0000000000000c5a       0x33 contiki-srf06-cc26xx.a(pwr_ctrl.o)
 .ARM.attributes
                0x0000000000000c8d       0x33 contiki-srf06-cc26xx.a(setup.o)
 .ARM.attributes
                0x0000000000000cc0       0x33 contiki-srf06-cc26xx.a(setup_rom.o)
 .ARM.attributes
                0x0000000000000cf3       0x33 contiki-srf06-cc26xx.a(sys_ctrl.o)
 .ARM.attributes
                0x0000000000000d26       0x33 contiki-srf06-cc26xx.a(trng.o)
 .ARM.attributes
                0x0000000000000d59       0x33 contiki-srf06-cc26xx.a(linkaddr.o)
 .ARM.attributes
                0x0000000000000d8c       0x33 contiki-srf06-cc26xx.a(link-stats.o)
 .ARM.attributes
                0x0000000000000dbf       0x33 contiki-srf06-cc26xx.a(nbr-table.o)
 .ARM.attributes
                0x0000000000000df2       0x33 contiki-srf06-cc26xx.a(netstack.o)
 .ARM.attributes
                0x0000000000000e25       0x33 contiki-srf06-cc26xx.a(packetbuf.o)
 .ARM.attributes
                0x0000000000000e58       0x33 contiki-srf06-cc26xx.a(queuebuf.o)
 .ARM.attributes
                0x0000000000000e8b       0x33 contiki-srf06-cc26xx.a(csma.o)
 .ARM.attributes
                0x0000000000000ebe       0x33 contiki-srf06-cc26xx.a(frame802154.o)
 .ARM.attributes
                0x0000000000000ef1       0x33 contiki-srf06-cc26xx.a(mac.o)
 .ARM.attributes
                0x0000000000000f24       0x33 contiki-srf06-cc26xx.a(nullrdc.o)
 .ARM.attributes
                0x0000000000000f57       0x33 contiki-srf06-cc26xx.a(noncoresec.o)
 .ARM.attributes
                0x0000000000000f8a       0x33 contiki-srf06-cc26xx.a(smartrf-setting)
 .ARM.attributes
                0x0000000000000fbd       0x33 contiki-srf06-cc26xx.a(stimer.o)
 .ARM.attributes
                0x0000000000000ff0       0x33 contiki-srf06-cc26xx.a(ccm-star.o)
 .ARM.attributes
                0x0000000000001023       0x33 contiki-srf06-cc26xx.a(memb.o)
 .ARM.attributes
                0x0000000000001056       0x33 contiki-srf06-cc26xx.a(rpl-nbr-policy.)
 .ARM.attributes
                0x0000000000001089       0x33 contiki-srf06-cc26xx.a(aon_batmon.o)
 .ARM.attributes
                0x00000000000010bc       0x33 contiki-srf06-cc26xx.a(ddi.o)
 .ARM.attributes
                0x00000000000010ef       0x33 contiki-srf06-cc26xx.a(framer-802154.o)
 .ARM.attributes
                0x0000000000001122       0x33 contiki-srf06-cc26xx.a(anti-replay.o)
 .ARM.attributes
                0x0000000000001155       0x33 contiki-srf06-cc26xx.a(ccm-star-packet)
 .ARM.attributes
                0x0000000000001188       0x33 contiki-srf06-cc26xx.a(aes-128.o)
 .ARM.attributes
                0x00000000000011bb       0x1d /usr/lib/gcc/arm-none-eabi/4.8.2/armv7-m/libgcc.a(_aeabi_uldivmod.o)
 .ARM.attributes
                0x00000000000011d8       0x2d /usr/lib/gcc/arm-none-eabi/4.8.2/armv7-m/libgcc.a(bpabi.o)
 .ARM.attributes
                0x0000000000001205       0x1d /usr/lib/gcc/arm-none-eabi/4.8.2/armv7-m/libgcc.a(_dvmd_tls.o)
 .ARM.attributes
                0x0000000000001222       0x2d /usr/lib/gcc/arm-none-eabi/4.8.2/armv7-m/libgcc.a(_divdi3.o)
 .ARM.attributes
                0x000000000000124f       0x2d /usr/lib/gcc/arm-none-eabi/4.8.2/armv7-m/libgcc.a(_udivdi3.o)
 .ARM.attributes
                0x000000000000127c       0x2d /usr/lib/gcc/arm-none-eabi/4.8.2/../../../arm-none-eabi/lib/armv7-m/libc.a(lib_a-memcmp.o)
 .ARM.attributes
                0x00000000000012a9       0x1b /usr/lib/gcc/arm-none-eabi/4.8.2/../../../arm-none-eabi/lib/armv7-m/libc.a(lib_a-memcpy.o)
 .ARM.attributes
                0x00000000000012c4       0x2d /usr/lib/gcc/arm-none-eabi/4.8.2/../../../arm-none-eabi/lib/armv7-m/libc.a(lib_a-memmove.o)
 .ARM.attributes
                0x00000000000012f1       0x2d /usr/lib/gcc/arm-none-eabi/4.8.2/../../../arm-none-eabi/lib/armv7-m/libc.a(lib_a-memset.o)
 .ARM.attributes
                0x000000000000131e       0x2d /usr/lib/gcc/arm-none-eabi/4.8.2/../../../arm-none-eabi/lib/armv7-m/libc.a(lib_a-strlen.o)
 .ARM.attributes
                0x000000000000134b       0x2d /usr/lib/gcc/arm-none-eabi/4.8.2/../../../arm-none-eabi/lib/armv7-m/libc.a(lib_a-strncmp.o)

.debug_line     0x0000000000000000      0x8b5
 .debug_line    0x0000000000000000       0x68 /usr/lib/gcc/arm-none-eabi/4.8.2/armv7-m/libgcc.a(_aeabi_uldivmod.o)
 .debug_line    0x0000000000000068       0x68 /usr/lib/gcc/arm-none-eabi/4.8.2/armv7-m/libgcc.a(bpabi.o)
 .debug_line    0x00000000000000d0       0x64 /usr/lib/gcc/arm-none-eabi/4.8.2/armv7-m/libgcc.a(_dvmd_tls.o)
 .debug_line    0x0000000000000134       0xdc /usr/lib/gcc/arm-none-eabi/4.8.2/armv7-m/libgcc.a(_divdi3.o)
 .debug_line    0x0000000000000210       0xd8 /usr/lib/gcc/arm-none-eabi/4.8.2/armv7-m/libgcc.a(_udivdi3.o)
 .debug_line    0x00000000000002e8       0xf6 /usr/lib/gcc/arm-none-eabi/4.8.2/../../../arm-none-eabi/lib/armv7-m/libc.a(lib_a-memcmp.o)
 .debug_line    0x00000000000003de       0xbb /usr/lib/gcc/arm-none-eabi/4.8.2/../../../arm-none-eabi/lib/armv7-m/libc.a(lib_a-memcpy.o)
 .debug_line    0x0000000000000499      0x114 /usr/lib/gcc/arm-none-eabi/4.8.2/../../../arm-none-eabi/lib/armv7-m/libc.a(lib_a-memmove.o)
 .debug_line    0x00000000000005ad       0xff /usr/lib/gcc/arm-none-eabi/4.8.2/../../../arm-none-eabi/lib/armv7-m/libc.a(lib_a-memset.o)
 .debug_line    0x00000000000006ac       0xd7 /usr/lib/gcc/arm-none-eabi/4.8.2/../../../arm-none-eabi/lib/armv7-m/libc.a(lib_a-strlen.o)
 .debug_line    0x0000000000000783      0x132 /usr/lib/gcc/arm-none-eabi/4.8.2/../../../arm-none-eabi/lib/armv7-m/libc.a(lib_a-strncmp.o)

.debug_info     0x0000000000000000     0x138e
 .debug_info    0x0000000000000000       0x9b /usr/lib/gcc/arm-none-eabi/4.8.2/armv7-m/libgcc.a(_aeabi_uldivmod.o)
 .debug_info    0x000000000000009b      0x164 /usr/lib/gcc/arm-none-eabi/4.8.2/armv7-m/libgcc.a(bpabi.o)
 .debug_info    0x00000000000001ff       0x9f /usr/lib/gcc/arm-none-eabi/4.8.2/armv7-m/libgcc.a(_dvmd_tls.o)
 .debug_info    0x000000000000029e      0x5bd /usr/lib/gcc/arm-none-eabi/4.8.2/armv7-m/libgcc.a(_divdi3.o)
 .debug_info    0x000000000000085b      0x57c /usr/lib/gcc/arm-none-eabi/4.8.2/armv7-m/libgcc.a(_udivdi3.o)
 .debug_info    0x0000000000000dd7      0x113 /usr/lib/gcc/arm-none-eabi/4.8.2/../../../arm-none-eabi/lib/armv7-m/libc.a(lib_a-memcmp.o)
 .debug_info    0x0000000000000eea       0xb2 /usr/lib/gcc/arm-none-eabi/4.8.2/../../../arm-none-eabi/lib/armv7-m/libc.a(lib_a-memcpy.o)
 .debug_info    0x0000000000000f9c      0x131 /usr/lib/gcc/arm-none-eabi/4.8.2/../../../arm-none-eabi/lib/armv7-m/libc.a(lib_a-memmove.o)
 .debug_info    0x00000000000010cd      0x117 /usr/lib/gcc/arm-none-eabi/4.8.2/../../../arm-none-eabi/lib/armv7-m/libc.a(lib_a-memset.o)
 .debug_info    0x00000000000011e4       0xb5 /usr/lib/gcc/arm-none-eabi/4.8.2/../../../arm-none-eabi/lib/armv7-m/libc.a(lib_a-strlen.o)
 .debug_info    0x0000000000001299       0xf5 /usr/lib/gcc/arm-none-eabi/4.8.2/../../../arm-none-eabi/lib/armv7-m/libc.a(lib_a-strncmp.o)

.debug_abbrev   0x0000000000000000      0x666
 .debug_abbrev  0x0000000000000000       0x14 /usr/lib/gcc/arm-none-eabi/4.8.2/armv7-m/libgcc.a(_aeabi_uldivmod.o)
 .debug_abbrev  0x0000000000000014       0xb7 /usr/lib/gcc/arm-none-eabi/4.8.2/armv7-m/libgcc.a(bpabi.o)
 .debug_abbrev  0x00000000000000cb       0x14 /usr/lib/gcc/arm-none-eabi/4.8.2/armv7-m/libgcc.a(_dvmd_tls.o)
 .debug_abbrev  0x00000000000000df      0x165 /usr/lib/gcc/arm-none-eabi/4.8.2/armv7-m/libgcc.a(_divdi3.o)
 .debug_abbrev  0x0000000000000244      0x154 /usr/lib/gcc/arm-none-eabi/4.8.2/armv7-m/libgcc.a(_udivdi3.o)
 .debug_abbrev  0x0000000000000398       0x7f /usr/lib/gcc/arm-none-eabi/4.8.2/../../../arm-none-eabi/lib/armv7-m/libc.a(lib_a-memcmp.o)
 .debug_abbrev  0x0000000000000417       0x14 /usr/lib/gcc/arm-none-eabi/4.8.2/../../../arm-none-eabi/lib/armv7-m/libc.a(lib_a-memcpy.o)
 .debug_abbrev  0x000000000000042b       0xab /usr/lib/gcc/arm-none-eabi/4.8.2/../../../arm-none-eabi/lib/armv7-m/libc.a(lib_a-memmove.o)
 .debug_abbrev  0x00000000000004d6       0x9f /usr/lib/gcc/arm-none-eabi/4.8.2/../../../arm-none-eabi/lib/armv7-m/libc.a(lib_a-memset.o)
 .debug_abbrev  0x0000000000000575       0x70 /usr/lib/gcc/arm-none-eabi/4.8.2/../../../arm-none-eabi/lib/armv7-m/libc.a(lib_a-strlen.o)
 .debug_abbrev  0x00000000000005e5       0x81 /usr/lib/gcc/arm-none-eabi/4.8.2/../../../arm-none-eabi/lib/armv7-m/libc.a(lib_a-strncmp.o)

.debug_aranges  0x0000000000000000      0x160
 .debug_aranges
                0x0000000000000000       0x20 /usr/lib/gcc/arm-none-eabi/4.8.2/armv7-m/libgcc.a(_aeabi_uldivmod.o)
 .debug_aranges
                0x0000000000000020       0x20 /usr/lib/gcc/arm-none-eabi/4.8.2/armv7-m/libgcc.a(bpabi.o)
 .debug_aranges
                0x0000000000000040       0x20 /usr/lib/gcc/arm-none-eabi/4.8.2/armv7-m/libgcc.a(_dvmd_tls.o)
 .debug_aranges
                0x0000000000000060       0x20 /usr/lib/gcc/arm-none-eabi/4.8.2/armv7-m/libgcc.a(_divdi3.o)
 .debug_aranges
                0x0000000000000080       0x20 /usr/lib/gcc/arm-none-eabi/4.8.2/armv7-m/libgcc.a(_udivdi3.o)
 .debug_aranges
                0x00000000000000a0       0x20 /usr/lib/gcc/arm-none-eabi/4.8.2/../../../arm-none-eabi/lib/armv7-m/libc.a(lib_a-memcmp.o)
 .debug_aranges
                0x00000000000000c0       0x20 /usr/lib/gcc/arm-none-eabi/4.8.2/../../../arm-none-eabi/lib/armv7-m/libc.a(lib_a-memcpy.o)
 .debug_aranges
                0x00000000000000e0       0x20 /usr/lib/gcc/arm-none-eabi/4.8.2/../../../arm-none-eabi/lib/armv7-m/libc.a(lib_a-memmove.o)
 .debug_aranges
                0x0000000000000100       0x20 /usr/lib/gcc/arm-none-eabi/4.8.2/../../../arm-none-eabi/lib/armv7-m/libc.a(lib_a-memset.o)
 .debug_aranges
                0x0000000000000120       0x20 /usr/lib/gcc/arm-none-eabi/4.8.2/../../../arm-none-eabi/lib/armv7-m/libc.a(lib_a-strlen.o)
 .debug_aranges
                0x0000000000000140       0x20 /usr/lib/gcc/arm-none-eabi/4.8.2/../../../arm-none-eabi/lib/armv7-m/libc.a(lib_a-strncmp.o)

.debug_loc      0x0000000000000000     0x1ce7
 .debug_loc     0x0000000000000000       0xa0 /usr/lib/gcc/arm-none-eabi/4.8.2/armv7-m/libgcc.a(bpabi.o)
 .debug_loc     0x00000000000000a0      0xa76 /usr/lib/gcc/arm-none-eabi/4.8.2/armv7-m/libgcc.a(_divdi3.o)
 .debug_loc     0x0000000000000b16      0xb3f /usr/lib/gcc/arm-none-eabi/4.8.2/armv7-m/libgcc.a(_udivdi3.o)
 .debug_loc     0x0000000000001655       0xe3 /usr/lib/gcc/arm-none-eabi/4.8.2/../../../arm-none-eabi/lib/armv7-m/libc.a(lib_a-memcmp.o)
 .debug_loc     0x0000000000001738      0x2ca /usr/lib/gcc/arm-none-eabi/4.8.2/../../../arm-none-eabi/lib/armv7-m/libc.a(lib_a-memmove.o)
 .debug_loc     0x0000000000001a02      0x18b /usr/lib/gcc/arm-none-eabi/4.8.2/../../../arm-none-eabi/lib/armv7-m/libc.a(lib_a-memset.o)
 .debug_loc     0x0000000000001b8d       0x21 /usr/lib/gcc/arm-none-eabi/4.8.2/../../../arm-none-eabi/lib/armv7-m/libc.a(lib_a-strlen.o)
 .debug_loc     0x0000000000001bae      0x139 /usr/lib/gcc/arm-none-eabi/4.8.2/../../../arm-none-eabi/lib/armv7-m/libc.a(lib_a-strncmp.o)

.debug_str      0x0000000000000000      0x5aa
 .debug_str     0x0000000000000000      0x19e /usr/lib/gcc/arm-none-eabi/4.8.2/armv7-m/libgcc.a(bpabi.o)
 .debug_str     0x000000000000019e      0x18e /usr/lib/gcc/arm-none-eabi/4.8.2/armv7-m/libgcc.a(_divdi3.o)
                                        0x24c (size before relaxing)
 .debug_str     0x0000000000000000      0x24d /usr/lib/gcc/arm-none-eabi/4.8.2/armv7-m/libgcc.a(_udivdi3.o)
 .debug_str     0x000000000000032c      0x10a /usr/lib/gcc/arm-none-eabi/4.8.2/../../../arm-none-eabi/lib/armv7-m/libc.a(lib_a-memcmp.o)
                                        0x19c (size before relaxing)
 .debug_str     0x0000000000000436       0x68 /usr/lib/gcc/arm-none-eabi/4.8.2/../../../arm-none-eabi/lib/armv7-m/libc.a(lib_a-memmove.o)
                                        0x1cf (size before relaxing)
 .debug_str     0x000000000000049e       0x49 /usr/lib/gcc/arm-none-eabi/4.8.2/../../../arm-none-eabi/lib/armv7-m/libc.a(lib_a-memset.o)
                                        0x1b0 (size before relaxing)
 .debug_str     0x00000000000004e7       0x8c /usr/lib/gcc/arm-none-eabi/4.8.2/../../../arm-none-eabi/lib/armv7-m/libc.a(lib_a-strlen.o)
                                        0x1a9 (size before relaxing)
 .debug_str     0x0000000000000573       0x37 /usr/lib/gcc/arm-none-eabi/4.8.2/../../../arm-none-eabi/lib/armv7-m/libc.a(lib_a-strncmp.o)
                                        0x19e (size before relaxing)

.debug_frame    0x0000000000000000      0x188
 .debug_frame   0x0000000000000000       0x58 /usr/lib/gcc/arm-none-eabi/4.8.2/armv7-m/libgcc.a(bpabi.o)
 .debug_frame   0x0000000000000058       0x34 /usr/lib/gcc/arm-none-eabi/4.8.2/armv7-m/libgcc.a(_divdi3.o)
 .debug_frame   0x000000000000008c       0x30 /usr/lib/gcc/arm-none-eabi/4.8.2/armv7-m/libgcc.a(_udivdi3.o)
 .debug_frame   0x00000000000000bc       0x2c /usr/lib/gcc/arm-none-eabi/4.8.2/../../../arm-none-eabi/lib/armv7-m/libc.a(lib_a-memcmp.o)
 .debug_frame   0x00000000000000e8       0x2c /usr/lib/gcc/arm-none-eabi/4.8.2/../../../arm-none-eabi/lib/armv7-m/libc.a(lib_a-memmove.o)
 .debug_frame   0x0000000000000114       0x2c /usr/lib/gcc/arm-none-eabi/4.8.2/../../../arm-none-eabi/lib/armv7-m/libc.a(lib_a-memset.o)
 .debug_frame   0x0000000000000140       0x20 /usr/lib/gcc/arm-none-eabi/4.8.2/../../../arm-none-eabi/lib/armv7-m/libc.a(lib_a-strlen.o)
 .debug_frame   0x0000000000000160       0x28 /usr/lib/gcc/arm-none-eabi/4.8.2/../../../arm-none-eabi/lib/armv7-m/libc.a(lib_a-strncmp.o)

.debug_ranges   0x0000000000000000      0x1d0
 .debug_ranges  0x0000000000000000       0xa8 /usr/lib/gcc/arm-none-eabi/4.8.2/armv7-m/libgcc.a(_divdi3.o)
 .debug_ranges  0x00000000000000a8       0xd8 /usr/lib/gcc/arm-none-eabi/4.8.2/armv7-m/libgcc.a(_udivdi3.o)
 .debug_ranges  0x0000000000000180       0x10 /usr/lib/gcc/arm-none-eabi/4.8.2/../../../arm-none-eabi/lib/armv7-m/libc.a(lib_a-memcmp.o)
 .debug_ranges  0x0000000000000190       0x10 /usr/lib/gcc/arm-none-eabi/4.8.2/../../../arm-none-eabi/lib/armv7-m/libc.a(lib_a-memmove.o)
 .debug_ranges  0x00000000000001a0       0x10 /usr/lib/gcc/arm-none-eabi/4.8.2/../../../arm-none-eabi/lib/armv7-m/libc.a(lib_a-memset.o)
 .debug_ranges  0x00000000000001b0       0x10 /usr/lib/gcc/arm-none-eabi/4.8.2/../../../arm-none-eabi/lib/armv7-m/libc.a(lib_a-strlen.o)
 .debug_ranges  0x00000000000001c0       0x10 /usr/lib/gcc/arm-none-eabi/4.8.2/../../../arm-none-eabi/lib/armv7-m/libc.a(lib_a-strncmp.o)

Cross Reference Table

Symbol                                            File
AONIntHandler                                     obj_srf06-cc26xx/startup_gcc.o
AONProgIntHandler                                 obj_srf06-cc26xx/startup_gcc.o
AONRTCIntHandler                                  contiki-srf06-cc26xx.a(soc-rtc.o)
                                                  obj_srf06-cc26xx/startup_gcc.o
AUXADCIntHandler                                  obj_srf06-cc26xx/startup_gcc.o
AUXCombEventIntHandler                            obj_srf06-cc26xx/startup_gcc.o
AUXCompAIntHandler                                obj_srf06-cc26xx/startup_gcc.o
AUXSWEvent0IntHandler                             obj_srf06-cc26xx/startup_gcc.o
AUXSWEvent1IntHandler                             obj_srf06-cc26xx/startup_gcc.o
BusFaultIntHandler                                obj_srf06-cc26xx/startup_gcc.o
CryptoIntHandler                                  obj_srf06-cc26xx/startup_gcc.o
DebugMonIntHandler                                obj_srf06-cc26xx/startup_gcc.o
DynProgIntHandler                                 obj_srf06-cc26xx/startup_gcc.o
FaultISR                                          obj_srf06-cc26xx/fault-handlers.o
FlashIntHandler                                   obj_srf06-cc26xx/startup_gcc.o
GPIOIntHandler                                    contiki-srf06-cc26xx.a(gpio-interrupt.)
                                                  obj_srf06-cc26xx/startup_gcc.o
I2CIntHandler                                     obj_srf06-cc26xx/startup_gcc.o
I2SIntHandler                                     obj_srf06-cc26xx/startup_gcc.o
MPUFaultIntHandler                                obj_srf06-cc26xx/startup_gcc.o
Mac_id                                            udp-server.co
NOROM_AONBatMonTemperatureGetDegC                 contiki-srf06-cc26xx.a(aon_batmon.o)
                                                  contiki-srf06-cc26xx.a(sys_ctrl.o)
                                                  contiki-srf06-cc26xx.a(osc.o)
NOROM_AONRTCCurrent64BitValueGet                  contiki-srf06-cc26xx.a(aon_rtc.o)
NOROM_AONRTCCurrentCompareValueGet                contiki-srf06-cc26xx.a(aon_rtc.o)
                                                  contiki-srf06-cc26xx.a(osc.o)
                                                  contiki-srf06-cc26xx.a(soc-rtc.o)
                                                  contiki-srf06-cc26xx.a(rtimer-arch.o)
NOROM_AUXADCAdjustValueForGainAndOffset           contiki-srf06-cc26xx.a(aux_adc.o)
NOROM_AUXADCDisable                               contiki-srf06-cc26xx.a(aux_adc.o)
                                                  contiki-srf06-cc26xx.a(als-sensor.o)
NOROM_AUXADCDisableInputScaling                   contiki-srf06-cc26xx.a(aux_adc.o)
NOROM_AUXADCEnableAsync                           contiki-srf06-cc26xx.a(aux_adc.o)
NOROM_AUXADCEnableSync                            contiki-srf06-cc26xx.a(aux_adc.o)
                                                  contiki-srf06-cc26xx.a(als-sensor.o)
NOROM_AUXADCFlushFifo                             contiki-srf06-cc26xx.a(aux_adc.o)
NOROM_AUXADCGetAdjustmentGain                     contiki-srf06-cc26xx.a(aux_adc.o)
NOROM_AUXADCGetAdjustmentOffset                   contiki-srf06-cc26xx.a(aux_adc.o)
NOROM_AUXADCMicrovoltsToValue                     contiki-srf06-cc26xx.a(aux_adc.o)
NOROM_AUXADCPopFifo                               contiki-srf06-cc26xx.a(aux_adc.o)
NOROM_AUXADCReadFifo                              contiki-srf06-cc26xx.a(aux_adc.o)
                                                  contiki-srf06-cc26xx.a(als-sensor.o)
NOROM_AUXADCUnadjustValueForGainAndOffset         contiki-srf06-cc26xx.a(aux_adc.o)
NOROM_AUXADCValueToMicrovolts                     contiki-srf06-cc26xx.a(aux_adc.o)
NOROM_CPUbasepriGet                               contiki-srf06-cc26xx.a(cpu.o)
NOROM_CPUcpsid                                    contiki-srf06-cc26xx.a(cpu.o)
                                                  contiki-srf06-cc26xx.a(ddi.o)
                                                  contiki-srf06-cc26xx.a(aux_adc.o)
                                                  contiki-srf06-cc26xx.a(adi.o)
                                                  contiki-srf06-cc26xx.a(soc-trng.o)
                                                  contiki-srf06-cc26xx.a(rf-ble.o)
                                                  contiki-srf06-cc26xx.a(rf-core.o)
                                                  contiki-srf06-cc26xx.a(gpio-interrupt.)
                                                  contiki-srf06-cc26xx.a(lpm.o)
                                                  contiki-srf06-cc26xx.a(cc26xx-uart.o)
                                                  contiki-srf06-cc26xx.a(aux-ctrl.o)
                                                  contiki-srf06-cc26xx.a(contiki-watchdo)
                                                  contiki-srf06-cc26xx.a(soc-rtc.o)
                                                  contiki-srf06-cc26xx.a(clock.o)
                                                  contiki-srf06-cc26xx.a(board.o)
                                                  contiki-srf06-cc26xx.a(contiki-main.o)
NOROM_CPUcpsie                                    contiki-srf06-cc26xx.a(cpu.o)
                                                  contiki-srf06-cc26xx.a(ddi.o)
                                                  contiki-srf06-cc26xx.a(aux_adc.o)
                                                  contiki-srf06-cc26xx.a(adi.o)
                                                  contiki-srf06-cc26xx.a(soc-trng.o)
                                                  contiki-srf06-cc26xx.a(rf-ble.o)
                                                  contiki-srf06-cc26xx.a(rf-core.o)
                                                  contiki-srf06-cc26xx.a(gpio-interrupt.)
                                                  contiki-srf06-cc26xx.a(lpm.o)
                                                  contiki-srf06-cc26xx.a(cc26xx-uart.o)
                                                  contiki-srf06-cc26xx.a(aux-ctrl.o)
                                                  contiki-srf06-cc26xx.a(contiki-watchdo)
                                                  contiki-srf06-cc26xx.a(soc-rtc.o)
                                                  contiki-srf06-cc26xx.a(clock.o)
                                                  contiki-srf06-cc26xx.a(board.o)
                                                  contiki-srf06-cc26xx.a(contiki-main.o)
NOROM_CPUdelay                                    contiki-srf06-cc26xx.a(cpu.o)
NOROM_CPUprimask                                  contiki-srf06-cc26xx.a(cpu.o)
NOROM_ChipInfo_GetChipFamily                      contiki-srf06-cc26xx.a(chipinfo.o)
                                                  contiki-srf06-cc26xx.a(prop-mode.o)
                                                  contiki-srf06-cc26xx.a(contiki-main.o)
NOROM_ChipInfo_GetChipType                        contiki-srf06-cc26xx.a(chipinfo.o)
                                                  contiki-srf06-cc26xx.a(rf-core.o)
NOROM_ChipInfo_GetHwRevision                      contiki-srf06-cc26xx.a(chipinfo.o)
NOROM_ChipInfo_GetPackageType                     contiki-srf06-cc26xx.a(chipinfo.o)
NOROM_ChipInfo_GetSupportedProtocol_BV            contiki-srf06-cc26xx.a(chipinfo.o)
                                                  contiki-srf06-cc26xx.a(contiki-main.o)
NOROM_DDI16BitRead                                contiki-srf06-cc26xx.a(ddi.o)
NOROM_DDI16BitWrite                               contiki-srf06-cc26xx.a(ddi.o)
NOROM_DDI16BitfieldRead                           contiki-srf06-cc26xx.a(ddi.o)
NOROM_DDI16BitfieldWrite                          contiki-srf06-cc26xx.a(ddi.o)
NOROM_DDI32RegWrite                               contiki-srf06-cc26xx.a(ddi.o)
                                                  contiki-srf06-cc26xx.a(setup_rom.o)
NOROM_OSCClockSourceGet                           contiki-srf06-cc26xx.a(osc.o)
                                                  contiki-srf06-cc26xx.a(sys_ctrl.o)
                                                  contiki-srf06-cc26xx.a(setup_rom.o)
                                                  contiki-srf06-cc26xx.a(oscillators.o)
NOROM_OSCClockSourceSet                           contiki-srf06-cc26xx.a(osc.o)
                                                  contiki-srf06-cc26xx.a(sys_ctrl.o)
                                                  contiki-srf06-cc26xx.a(setup_rom.o)
                                                  contiki-srf06-cc26xx.a(oscillators.o)
NOROM_OSCHF_AttemptToSwitchToXosc                 contiki-srf06-cc26xx.a(osc.o)
NOROM_OSCHF_DebugGetCrystalAmplitude              contiki-srf06-cc26xx.a(osc.o)
NOROM_OSCHF_DebugGetExpectedAverageCrystalAmplitude contiki-srf06-cc26xx.a(osc.o)
NOROM_OSCHF_GetStartupTime                        contiki-srf06-cc26xx.a(osc.o)
NOROM_OSCHF_SwitchToRcOscTurnOffXosc              contiki-srf06-cc26xx.a(osc.o)
NOROM_OSCHF_TurnOnXosc                            contiki-srf06-cc26xx.a(osc.o)
NOROM_OSC_HPOSCRelativeFrequencyOffsetGet         contiki-srf06-cc26xx.a(osc.o)
NOROM_OSC_HPOSCRelativeFrequencyOffsetToRFCoreFormatConvert contiki-srf06-cc26xx.a(osc.o)
NOROM_PowerCtrlSourceSet                          contiki-srf06-cc26xx.a(pwr_ctrl.o)
                                                  contiki-srf06-cc26xx.a(lpm.o)
NOROM_SetupAfterColdResetWakeupFromShutDownCfg1   contiki-srf06-cc26xx.a(setup_rom.o)
                                                  contiki-srf06-cc26xx.a(setup.o)
NOROM_SetupAfterColdResetWakeupFromShutDownCfg2   contiki-srf06-cc26xx.a(setup_rom.o)
                                                  contiki-srf06-cc26xx.a(setup.o)
NOROM_SetupAfterColdResetWakeupFromShutDownCfg3   contiki-srf06-cc26xx.a(setup_rom.o)
                                                  contiki-srf06-cc26xx.a(setup.o)
NOROM_SetupGetTrimForAdcShModeEn                  contiki-srf06-cc26xx.a(setup_rom.o)
NOROM_SetupGetTrimForAdcShVbufEn                  contiki-srf06-cc26xx.a(setup_rom.o)
NOROM_SetupGetTrimForAmpcompCtrl                  contiki-srf06-cc26xx.a(setup_rom.o)
NOROM_SetupGetTrimForAmpcompTh1                   contiki-srf06-cc26xx.a(setup_rom.o)
NOROM_SetupGetTrimForAmpcompTh2                   contiki-srf06-cc26xx.a(setup_rom.o)
NOROM_SetupGetTrimForAnabypassValue1              contiki-srf06-cc26xx.a(setup_rom.o)
NOROM_SetupGetTrimForDblrLoopFilterResetVoltage   contiki-srf06-cc26xx.a(setup_rom.o)
NOROM_SetupGetTrimForRadcExtCfg                   contiki-srf06-cc26xx.a(setup_rom.o)
NOROM_SetupGetTrimForRcOscLfIBiasTrim             contiki-srf06-cc26xx.a(setup_rom.o)
NOROM_SetupGetTrimForRcOscLfRtuneCtuneTrim        contiki-srf06-cc26xx.a(setup_rom.o)
NOROM_SetupGetTrimForXoscHfCtl                    contiki-srf06-cc26xx.a(setup_rom.o)
NOROM_SetupGetTrimForXoscHfFastStart              contiki-srf06-cc26xx.a(setup_rom.o)
NOROM_SetupGetTrimForXoscHfIbiastherm             contiki-srf06-cc26xx.a(setup_rom.o)
NOROM_SetupGetTrimForXoscLfRegulatorAndCmirrwrRatio contiki-srf06-cc26xx.a(setup_rom.o)
NOROM_SetupSetAonRtcSubSecInc                     contiki-srf06-cc26xx.a(setup_rom.o)
NOROM_SetupSetCacheModeAccordingToCcfgSetting     contiki-srf06-cc26xx.a(setup_rom.o)
                                                  contiki-srf06-cc26xx.a(setup.o)
NOROM_SetupSetVddrLevel                           contiki-srf06-cc26xx.a(setup_rom.o)
NOROM_SetupTrimDevice                             contiki-srf06-cc26xx.a(setup.o)
                                                  obj_srf06-cc26xx/startup_gcc.o
NOROM_SysCtrlAdjustRechargeAfterPowerDown         contiki-srf06-cc26xx.a(sys_ctrl.o)
                                                  contiki-srf06-cc26xx.a(lpm.o)
NOROM_SysCtrlPowerEverything                      contiki-srf06-cc26xx.a(sys_ctrl.o)
NOROM_SysCtrlResetSourceGet                       contiki-srf06-cc26xx.a(sys_ctrl.o)
NOROM_SysCtrlSetRechargeBeforePowerDown           contiki-srf06-cc26xx.a(sys_ctrl.o)
                                                  contiki-srf06-cc26xx.a(lpm.o)
NOROM_SysCtrl_DCDC_VoltageConditionalControl      contiki-srf06-cc26xx.a(sys_ctrl.o)
                                                  contiki-srf06-cc26xx.a(lpm.o)
NOROM_TRNGConfigure                               contiki-srf06-cc26xx.a(trng.o)
                                                  contiki-srf06-cc26xx.a(soc-trng.o)
NOROM_TRNGNumberGet                               contiki-srf06-cc26xx.a(trng.o)
NOROM_ThisCodeIsBuiltForCC13xxHwRev20AndLater_HaltIfViolated contiki-srf06-cc26xx.a(chipinfo.o)
                                                  contiki-srf06-cc26xx.a(setup.o)
NmiSR                                             obj_srf06-cc26xx/startup_gcc.o
PendSVIntHandler                                  obj_srf06-cc26xx/startup_gcc.o
RFCCPE0IntHandler                                 contiki-srf06-cc26xx.a(rf-core.o)
                                                  obj_srf06-cc26xx/startup_gcc.o
RFCCPE1IntHandler                                 contiki-srf06-cc26xx.a(rf-core.o)
                                                  obj_srf06-cc26xx/startup_gcc.o
RFCCmdAckIntHandler                               obj_srf06-cc26xx/startup_gcc.o
RFCHardwareIntHandler                             obj_srf06-cc26xx/startup_gcc.o
Rcvd_len                                          udp-server.co
ResetISR                                          obj_srf06-cc26xx/startup_gcc.o
SSI0IntHandler                                    obj_srf06-cc26xx/startup_gcc.o
SSI1IntHandler                                    obj_srf06-cc26xx/startup_gcc.o
SVCallIntHandler                                  obj_srf06-cc26xx/startup_gcc.o
SWEvent0IntHandler                                obj_srf06-cc26xx/startup_gcc.o
SafeHapiAuxAdiSelect                              contiki-srf06-cc26xx.a(adi.o)
                                                  contiki-srf06-cc26xx.a(als-sensor.o)
SafeHapiVoid                                      contiki-srf06-cc26xx.a(adi.o)
                                                  contiki-srf06-cc26xx.a(sys_ctrl.o)
                                                  contiki-srf06-cc26xx.a(osc.o)
                                                  contiki-srf06-cc26xx.a(oscillators.o)
SysTickIntHandler                                 obj_srf06-cc26xx/startup_gcc.o
TRNGIntHandler                                    contiki-srf06-cc26xx.a(soc-trng.o)
                                                  obj_srf06-cc26xx/startup_gcc.o
Timer0AIntHandler                                 obj_srf06-cc26xx/startup_gcc.o
Timer0BIntHandler                                 obj_srf06-cc26xx/startup_gcc.o
Timer1AIntHandler                                 obj_srf06-cc26xx/startup_gcc.o
Timer1BIntHandler                                 obj_srf06-cc26xx/startup_gcc.o
Timer2AIntHandler                                 obj_srf06-cc26xx/startup_gcc.o
Timer2BIntHandler                                 obj_srf06-cc26xx/startup_gcc.o
Timer3AIntHandler                                 obj_srf06-cc26xx/startup_gcc.o
Timer3BIntHandler                                 obj_srf06-cc26xx/startup_gcc.o
UART0IntHandler                                   contiki-srf06-cc26xx.a(cc26xx-uart.o)
                                                  obj_srf06-cc26xx/startup_gcc.o
UsageFaultIntHandler                              obj_srf06-cc26xx/startup_gcc.o
WatchdogIntHandler                                obj_srf06-cc26xx/startup_gcc.o
__aeabi_idiv0                                     /usr/lib/gcc/arm-none-eabi/4.8.2/armv7-m/libgcc.a(_dvmd_tls.o)
__aeabi_ldiv0                                     /usr/lib/gcc/arm-none-eabi/4.8.2/armv7-m/libgcc.a(_dvmd_tls.o)
                                                  /usr/lib/gcc/arm-none-eabi/4.8.2/armv7-m/libgcc.a(_aeabi_uldivmod.o)
__aeabi_uldivmod                                  /usr/lib/gcc/arm-none-eabi/4.8.2/armv7-m/libgcc.a(_aeabi_uldivmod.o)
                                                  contiki-srf06-cc26xx.a(strformat.o)
__ccfg                                            obj_srf06-cc26xx/ccfg.o
__divdi3                                          /usr/lib/gcc/arm-none-eabi/4.8.2/armv7-m/libgcc.a(_divdi3.o)
                                                  /usr/lib/gcc/arm-none-eabi/4.8.2/armv7-m/libgcc.a(bpabi.o)
__gnu_ldivmod_helper                              /usr/lib/gcc/arm-none-eabi/4.8.2/armv7-m/libgcc.a(bpabi.o)
__gnu_uldivmod_helper                             /usr/lib/gcc/arm-none-eabi/4.8.2/armv7-m/libgcc.a(bpabi.o)
                                                  /usr/lib/gcc/arm-none-eabi/4.8.2/armv7-m/libgcc.a(_aeabi_uldivmod.o)
__udivdi3                                         /usr/lib/gcc/arm-none-eabi/4.8.2/armv7-m/libgcc.a(_udivdi3.o)
                                                  /usr/lib/gcc/arm-none-eabi/4.8.2/armv7-m/libgcc.a(bpabi.o)
_bss                                              obj_srf06-cc26xx/startup_gcc.o
_data                                             obj_srf06-cc26xx/startup_gcc.o
_ebss                                             obj_srf06-cc26xx/startup_gcc.o
_edata                                            obj_srf06-cc26xx/startup_gcc.o
_estack                                           obj_srf06-cc26xx/startup_gcc.o
_etext                                            obj_srf06-cc26xx/startup_gcc.o
addr_contexts                                     contiki-srf06-cc26xx.a(sicslowpan.o)
aes_128_driver                                    contiki-srf06-cc26xx.a(aes-128.o)
                                                  contiki-srf06-cc26xx.a(ccm-star.o)
aes_128_set_padded_key                            contiki-srf06-cc26xx.a(aes-128.o)
als_sensor                                        contiki-srf06-cc26xx.a(als-sensor.o)
                                                  contiki-srf06-cc26xx.a(srf06-sensors.o)
anti_replay_get_counter                           contiki-srf06-cc26xx.a(anti-replay.o)
anti_replay_init_info                             contiki-srf06-cc26xx.a(anti-replay.o)
                                                  contiki-srf06-cc26xx.a(noncoresec.o)
anti_replay_parse_counter                         contiki-srf06-cc26xx.a(anti-replay.o)
anti_replay_set_counter                           contiki-srf06-cc26xx.a(anti-replay.o)
                                                  contiki-srf06-cc26xx.a(noncoresec.o)
anti_replay_was_replayed                          contiki-srf06-cc26xx.a(anti-replay.o)
                                                  contiki-srf06-cc26xx.a(noncoresec.o)
autostart_exit                                    contiki-srf06-cc26xx.a(autostart.o)
autostart_processes                               udp-server.co
                                                  contiki-srf06-cc26xx.a(contiki-main.o)
autostart_start                                   contiki-srf06-cc26xx.a(autostart.o)
                                                  contiki-srf06-cc26xx.a(contiki-main.o)
aux_ctrl_power_down                               contiki-srf06-cc26xx.a(aux-ctrl.o)
                                                  contiki-srf06-cc26xx.a(lpm.o)
aux_ctrl_power_up                                 contiki-srf06-cc26xx.a(aux-ctrl.o)
                                                  contiki-srf06-cc26xx.a(lpm.o)
aux_ctrl_register_consumer                        contiki-srf06-cc26xx.a(aux-ctrl.o)
                                                  contiki-srf06-cc26xx.a(oscillators.o)
                                                  contiki-srf06-cc26xx.a(lpm.o)
                                                  contiki-srf06-cc26xx.a(als-sensor.o)
aux_ctrl_unregister_consumer                      contiki-srf06-cc26xx.a(aux-ctrl.o)
                                                  contiki-srf06-cc26xx.a(oscillators.o)
                                                  contiki-srf06-cc26xx.a(als-sensor.o)
board_init                                        contiki-srf06-cc26xx.a(board.o)
                                                  contiki-srf06-cc26xx.a(contiki-main.o)
button_down_sensor                                contiki-srf06-cc26xx.a(button-sensor.o)
                                                  contiki-srf06-cc26xx.a(srf06-sensors.o)
button_left_sensor                                contiki-srf06-cc26xx.a(button-sensor.o)
                                                  contiki-srf06-cc26xx.a(srf06-sensors.o)
button_right_sensor                               contiki-srf06-cc26xx.a(button-sensor.o)
                                                  contiki-srf06-cc26xx.a(srf06-sensors.o)
button_select_sensor                              contiki-srf06-cc26xx.a(button-sensor.o)
                                                  contiki-srf06-cc26xx.a(srf06-sensors.o)
button_up_sensor                                  contiki-srf06-cc26xx.a(button-sensor.o)
                                                  contiki-srf06-cc26xx.a(srf06-sensors.o)
cc26xx_uart_busy                                  contiki-srf06-cc26xx.a(cc26xx-uart.o)
                                                  contiki-srf06-cc26xx.a(putchar.o)
cc26xx_uart_init                                  contiki-srf06-cc26xx.a(cc26xx-uart.o)
                                                  contiki-srf06-cc26xx.a(contiki-main.o)
cc26xx_uart_set_input                             contiki-srf06-cc26xx.a(cc26xx-uart.o)
                                                  udp-server.co
cc26xx_uart_write_byte                            contiki-srf06-cc26xx.a(cc26xx-uart.o)
                                                  contiki-srf06-cc26xx.a(putchar.o)
ccm_star_driver                                   contiki-srf06-cc26xx.a(ccm-star.o)
                                                  contiki-srf06-cc26xx.a(noncoresec.o)
ccm_star_packetbuf_set_nonce                      contiki-srf06-cc26xx.a(ccm-star-packet)
                                                  contiki-srf06-cc26xx.a(noncoresec.o)
clock_delay                                       contiki-srf06-cc26xx.a(clock.o)
                                                  contiki-srf06-cc26xx.a(leds.o)
clock_delay_usec                                  contiki-srf06-cc26xx.a(clock.o)
                                                  contiki-srf06-cc26xx.a(als-sensor.o)
clock_init                                        contiki-srf06-cc26xx.a(clock.o)
                                                  contiki-srf06-cc26xx.a(contiki-main.o)
clock_seconds                                     contiki-srf06-cc26xx.a(clock.o)
                                                  contiki-srf06-cc26xx.a(stimer.o)
clock_time                                        contiki-srf06-cc26xx.a(clock.o)
                                                  contiki-srf06-cc26xx.a(link-stats.o)
                                                  contiki-srf06-cc26xx.a(rpl-timers.o)
                                                  contiki-srf06-cc26xx.a(rpl-dag.o)
                                                  contiki-srf06-cc26xx.a(timer.o)
                                                  contiki-srf06-cc26xx.a(etimer.o)
                                                  contiki-srf06-cc26xx.a(lpm.o)
                                                  contiki-srf06-cc26xx.a(button-sensor.o)
clock_update                                      contiki-srf06-cc26xx.a(clock.o)
                                                  contiki-srf06-cc26xx.a(lpm.o)
                                                  contiki-srf06-cc26xx.a(soc-rtc.o)
clock_wait                                        contiki-srf06-cc26xx.a(clock.o)
csma_allocated_neighbors                          contiki-srf06-cc26xx.a(csma.o)
csma_allocated_packets                            contiki-srf06-cc26xx.a(csma.o)
csma_collisions                                   contiki-srf06-cc26xx.a(csma.o)
csma_deferred                                     contiki-srf06-cc26xx.a(csma.o)
csma_driver                                       contiki-srf06-cc26xx.a(csma.o)
                                                  contiki-srf06-cc26xx.a(noncoresec.o)
                                                  contiki-srf06-cc26xx.a(nullrdc.o)
                                                  contiki-srf06-cc26xx.a(netstack.o)
                                                  contiki-srf06-cc26xx.a(contiki-main.o)
                                                  udp-server.co
csma_dropped                                      contiki-srf06-cc26xx.a(csma.o)
csma_noack                                        contiki-srf06-cc26xx.a(csma.o)
csma_received_packets                             contiki-srf06-cc26xx.a(csma.o)
csma_retransmissions                              contiki-srf06-cc26xx.a(csma.o)
csma_sent_packets                                 contiki-srf06-cc26xx.a(csma.o)
ctimer_expired                                    contiki-srf06-cc26xx.a(ctimer.o)
                                                  contiki-srf06-cc26xx.a(serial-line.o)
ctimer_init                                       contiki-srf06-cc26xx.a(ctimer.o)
                                                  contiki-srf06-cc26xx.a(contiki-main.o)
ctimer_process                                    contiki-srf06-cc26xx.a(ctimer.o)
ctimer_reset                                      contiki-srf06-cc26xx.a(ctimer.o)
                                                  contiki-srf06-cc26xx.a(link-stats.o)
                                                  contiki-srf06-cc26xx.a(rpl-timers.o)
ctimer_restart                                    contiki-srf06-cc26xx.a(ctimer.o)
                                                  contiki-srf06-cc26xx.a(rpl-nbr-policy.)
ctimer_set                                        contiki-srf06-cc26xx.a(ctimer.o)
                                                  contiki-srf06-cc26xx.a(rpl-nbr-policy.)
                                                  contiki-srf06-cc26xx.a(csma.o)
                                                  contiki-srf06-cc26xx.a(link-stats.o)
                                                  contiki-srf06-cc26xx.a(rpl-timers.o)
                                                  contiki-srf06-cc26xx.a(rpl-icmp6.o)
                                                  contiki-srf06-cc26xx.a(serial-line.o)
ctimer_set_with_process                           contiki-srf06-cc26xx.a(ctimer.o)
ctimer_stop                                       contiki-srf06-cc26xx.a(ctimer.o)
                                                  contiki-srf06-cc26xx.a(csma.o)
                                                  contiki-srf06-cc26xx.a(rpl-timers.o)
                                                  contiki-srf06-cc26xx.a(rpl-icmp6.o)
                                                  contiki-srf06-cc26xx.a(rpl-dag.o)
                                                  contiki-srf06-cc26xx.a(serial-line.o)
dao_ack_output                                    contiki-srf06-cc26xx.a(rpl-icmp6.o)
dao_output                                        contiki-srf06-cc26xx.a(rpl-icmp6.o)
                                                  contiki-srf06-cc26xx.a(rpl-timers.o)
                                                  contiki-srf06-cc26xx.a(rpl-dag.o)
                                                  contiki-srf06-cc26xx.a(rpl.o)
dao_output_target                                 contiki-srf06-cc26xx.a(rpl-icmp6.o)
                                                  contiki-srf06-cc26xx.a(rpl-ext-header.)
                                                  contiki-srf06-cc26xx.a(rpl.o)
dbg_send_bytes                                    contiki-srf06-cc26xx.a(putchar.o)
                                                  contiki-srf06-cc26xx.a(dbg-printf.o)
default_instance                                  contiki-srf06-cc26xx.a(rpl-dag.o)
                                                  contiki-srf06-cc26xx.a(rpl-ext-header.)
                                                  contiki-srf06-cc26xx.a(rpl.o)
dio_output                                        contiki-srf06-cc26xx.a(rpl-icmp6.o)
                                                  contiki-srf06-cc26xx.a(rpl-timers.o)
dis_output                                        contiki-srf06-cc26xx.a(rpl-icmp6.o)
                                                  contiki-srf06-cc26xx.a(rpl-timers.o)
ds6_neighbors                                     contiki-srf06-cc26xx.a(uip-ds6-nbr.o)
                                                  contiki-srf06-cc26xx.a(rpl-nbr-policy.)
                                                  contiki-srf06-cc26xx.a(rpl-dag.o)
energest_flush                                    contiki-srf06-cc26xx.a(energest.o)
energest_init                                     contiki-srf06-cc26xx.a(energest.o)
                                                  contiki-srf06-cc26xx.a(contiki-main.o)
energest_type_set                                 contiki-srf06-cc26xx.a(energest.o)
energest_type_time                                contiki-srf06-cc26xx.a(energest.o)
etimer_adjust                                     contiki-srf06-cc26xx.a(etimer.o)
etimer_expiration_time                            contiki-srf06-cc26xx.a(etimer.o)
                                                  contiki-srf06-cc26xx.a(rpl-timers.o)
etimer_expired                                    contiki-srf06-cc26xx.a(etimer.o)
                                                  contiki-srf06-cc26xx.a(rpl-timers.o)
                                                  contiki-srf06-cc26xx.a(tcpip.o)
                                                  contiki-srf06-cc26xx.a(ctimer.o)
                                                  contiki-srf06-cc26xx.a(rf-ble.o)
etimer_next_expiration_time                       contiki-srf06-cc26xx.a(etimer.o)
                                                  contiki-srf06-cc26xx.a(lpm.o)
etimer_pending                                    contiki-srf06-cc26xx.a(etimer.o)
                                                  contiki-srf06-cc26xx.a(lpm.o)
                                                  contiki-srf06-cc26xx.a(clock.o)
etimer_process                                    contiki-srf06-cc26xx.a(etimer.o)
                                                  contiki-srf06-cc26xx.a(contiki-main.o)
etimer_request_poll                               contiki-srf06-cc26xx.a(etimer.o)
                                                  contiki-srf06-cc26xx.a(clock.o)
etimer_reset                                      contiki-srf06-cc26xx.a(etimer.o)
                                                  contiki-srf06-cc26xx.a(uip-ds6.o)
                                                  contiki-srf06-cc26xx.a(ctimer.o)
etimer_reset_with_new_interval                    contiki-srf06-cc26xx.a(etimer.o)
etimer_restart                                    contiki-srf06-cc26xx.a(etimer.o)
                                                  contiki-srf06-cc26xx.a(tcpip.o)
                                                  contiki-srf06-cc26xx.a(ctimer.o)
etimer_set                                        contiki-srf06-cc26xx.a(etimer.o)
                                                  contiki-srf06-cc26xx.a(tcpip.o)
                                                  contiki-srf06-cc26xx.a(uip-ds6.o)
                                                  contiki-srf06-cc26xx.a(ctimer.o)
                                                  contiki-srf06-cc26xx.a(rf-ble.o)
etimer_start_time                                 contiki-srf06-cc26xx.a(etimer.o)
etimer_stop                                       contiki-srf06-cc26xx.a(etimer.o)
                                                  contiki-srf06-cc26xx.a(ctimer.o)
find_removable_dao                                contiki-srf06-cc26xx.a(rpl-nbr-policy.)
find_removable_dio                                contiki-srf06-cc26xx.a(rpl-nbr-policy.)
find_removable_dis                                contiki-srf06-cc26xx.a(rpl-nbr-policy.)
format_str                                        contiki-srf06-cc26xx.a(strformat.o)
format_str_v                                      contiki-srf06-cc26xx.a(strformat.o)
                                                  contiki-srf06-cc26xx.a(dbg-printf.o)
frame802154_check_dest_panid                      contiki-srf06-cc26xx.a(frame802154.o)
frame802154_create                                contiki-srf06-cc26xx.a(frame802154.o)
                                                  contiki-srf06-cc26xx.a(framer-802154.o)
                                                  udp-server.co
frame802154_extract_linkaddr                      contiki-srf06-cc26xx.a(frame802154.o)
frame802154_get_pan_id                            contiki-srf06-cc26xx.a(frame802154.o)
                                                  contiki-srf06-cc26xx.a(framer-802154.o)
                                                  udp-server.co
frame802154_has_panid                             contiki-srf06-cc26xx.a(frame802154.o)
frame802154_hdrlen                                contiki-srf06-cc26xx.a(frame802154.o)
                                                  contiki-srf06-cc26xx.a(framer-802154.o)
                                                  udp-server.co
frame802154_is_broadcast_addr                     contiki-srf06-cc26xx.a(frame802154.o)
                                                  contiki-srf06-cc26xx.a(framer-802154.o)
frame802154_parse                                 contiki-srf06-cc26xx.a(frame802154.o)
                                                  contiki-srf06-cc26xx.a(framer-802154.o)
frame802154_set_pan_id                            contiki-srf06-cc26xx.a(frame802154.o)
framer_802154                                     contiki-srf06-cc26xx.a(framer-802154.o)
                                                  contiki-srf06-cc26xx.a(noncoresec.o)
framer_802154_set_seqno                           contiki-srf06-cc26xx.a(framer-802154.o)
                                                  contiki-srf06-cc26xx.a(noncoresec.o)
g_pfnVectors                                      obj_srf06-cc26xx/startup_gcc.o
get_match_length                                  contiki-srf06-cc26xx.a(uip-ds6.o)
get_probing_delay                                 contiki-srf06-cc26xx.a(rpl-timers.o)
get_probing_target                                contiki-srf06-cc26xx.a(rpl-timers.o)
gpio_interrupt_init                               contiki-srf06-cc26xx.a(gpio-interrupt.)
                                                  contiki-srf06-cc26xx.a(contiki-main.o)
gpio_interrupt_register_handler                   contiki-srf06-cc26xx.a(gpio-interrupt.)
                                                  contiki-srf06-cc26xx.a(button-sensor.o)
guess_etx_from_rssi                               contiki-srf06-cc26xx.a(link-stats.o)
icmp6_new                                         contiki-srf06-cc26xx.a(tcpip.o)
ieee_addr_cpy_to                                  contiki-srf06-cc26xx.a(ieee-addr.o)
                                                  contiki-srf06-cc26xx.a(contiki-main.o)
instance_table                                    contiki-srf06-cc26xx.a(rpl-dag.o)
                                                  contiki-srf06-cc26xx.a(rpl-icmp6.o)
                                                  contiki-srf06-cc26xx.a(rpl.o)
leds_arch_get                                     contiki-srf06-cc26xx.a(leds-arch.o)
                                                  contiki-srf06-cc26xx.a(leds.o)
leds_arch_init                                    contiki-srf06-cc26xx.a(leds-arch.o)
                                                  contiki-srf06-cc26xx.a(leds.o)
leds_arch_set                                     contiki-srf06-cc26xx.a(leds-arch.o)
                                                  contiki-srf06-cc26xx.a(leds.o)
leds_blink                                        contiki-srf06-cc26xx.a(leds.o)
leds_get                                          contiki-srf06-cc26xx.a(leds.o)
leds_init                                         contiki-srf06-cc26xx.a(leds.o)
                                                  contiki-srf06-cc26xx.a(contiki-main.o)
leds_off                                          contiki-srf06-cc26xx.a(leds.o)
                                                  contiki-srf06-cc26xx.a(contiki-main.o)
leds_on                                           contiki-srf06-cc26xx.a(leds.o)
                                                  contiki-srf06-cc26xx.a(contiki-main.o)
leds_set                                          contiki-srf06-cc26xx.a(leds.o)
leds_toggle                                       contiki-srf06-cc26xx.a(leds.o)
link_stats_from_lladdr                            contiki-srf06-cc26xx.a(link-stats.o)
                                                  contiki-srf06-cc26xx.a(rpl-dag.o)
link_stats_init                                   contiki-srf06-cc26xx.a(link-stats.o)
                                                  contiki-srf06-cc26xx.a(uip-ds6-nbr.o)
link_stats_input_callback                         contiki-srf06-cc26xx.a(link-stats.o)
                                                  contiki-srf06-cc26xx.a(sicslowpan.o)
link_stats_is_fresh                               contiki-srf06-cc26xx.a(link-stats.o)
                                                  contiki-srf06-cc26xx.a(rpl-dag.o)
link_stats_packet_sent                            contiki-srf06-cc26xx.a(link-stats.o)
                                                  contiki-srf06-cc26xx.a(rpl-mrhof.o)
                                                  contiki-srf06-cc26xx.a(uip-ds6-nbr.o)
linkaddr_cmp                                      contiki-srf06-cc26xx.a(linkaddr.o)
                                                  contiki-srf06-cc26xx.a(noncoresec.o)
                                                  contiki-srf06-cc26xx.a(nullrdc.o)
                                                  contiki-srf06-cc26xx.a(csma.o)
                                                  contiki-srf06-cc26xx.a(packetbuf.o)
                                                  contiki-srf06-cc26xx.a(nbr-table.o)
                                                  contiki-srf06-cc26xx.a(uip-ds6-nbr.o)
                                                  contiki-srf06-cc26xx.a(sicslowpan.o)
linkaddr_copy                                     contiki-srf06-cc26xx.a(linkaddr.o)
                                                  contiki-srf06-cc26xx.a(framer-802154.o)
                                                  contiki-srf06-cc26xx.a(frame802154.o)
                                                  contiki-srf06-cc26xx.a(csma.o)
                                                  contiki-srf06-cc26xx.a(packetbuf.o)
                                                  contiki-srf06-cc26xx.a(nbr-table.o)
                                                  contiki-srf06-cc26xx.a(sicslowpan.o)
                                                  udp-server.co
linkaddr_node_addr                                contiki-srf06-cc26xx.a(linkaddr.o)
                                                  contiki-srf06-cc26xx.a(ccm-star-packet)
                                                  contiki-srf06-cc26xx.a(noncoresec.o)
                                                  contiki-srf06-cc26xx.a(nullrdc.o)
                                                  contiki-srf06-cc26xx.a(rf-ble.o)
                                                  contiki-srf06-cc26xx.a(contiki-main.o)
linkaddr_null                                     contiki-srf06-cc26xx.a(linkaddr.o)
                                                  contiki-srf06-cc26xx.a(frame802154.o)
                                                  contiki-srf06-cc26xx.a(packetbuf.o)
                                                  contiki-srf06-cc26xx.a(nbr-table.o)
                                                  contiki-srf06-cc26xx.a(uip-ds6-nbr.o)
                                                  contiki-srf06-cc26xx.a(sicslowpan.o)
linkaddr_set_node_addr                            contiki-srf06-cc26xx.a(linkaddr.o)
list_add                                          contiki-srf06-cc26xx.a(list.o)
                                                  contiki-srf06-cc26xx.a(csma.o)
                                                  contiki-srf06-cc26xx.a(nbr-table.o)
                                                  contiki-srf06-cc26xx.a(uip-icmp6.o)
                                                  contiki-srf06-cc26xx.a(uip-ds6-route.o)
                                                  contiki-srf06-cc26xx.a(ctimer.o)
                                                  contiki-srf06-cc26xx.a(lpm.o)
                                                  contiki-srf06-cc26xx.a(aux-ctrl.o)
list_chop                                         contiki-srf06-cc26xx.a(list.o)
list_copy                                         contiki-srf06-cc26xx.a(list.o)
list_head                                         contiki-srf06-cc26xx.a(list.o)
                                                  contiki-srf06-cc26xx.a(csma.o)
                                                  contiki-srf06-cc26xx.a(nbr-table.o)
                                                  contiki-srf06-cc26xx.a(uip-icmp6.o)
                                                  contiki-srf06-cc26xx.a(uip-ds6-route.o)
                                                  contiki-srf06-cc26xx.a(ctimer.o)
                                                  contiki-srf06-cc26xx.a(lpm.o)
                                                  contiki-srf06-cc26xx.a(aux-ctrl.o)
list_init                                         contiki-srf06-cc26xx.a(list.o)
                                                  contiki-srf06-cc26xx.a(csma.o)
                                                  contiki-srf06-cc26xx.a(uip-ds6-route.o)
                                                  contiki-srf06-cc26xx.a(ctimer.o)
                                                  contiki-srf06-cc26xx.a(lpm.o)
list_insert                                       contiki-srf06-cc26xx.a(list.o)
list_item_next                                    contiki-srf06-cc26xx.a(list.o)
                                                  contiki-srf06-cc26xx.a(csma.o)
                                                  contiki-srf06-cc26xx.a(nbr-table.o)
                                                  contiki-srf06-cc26xx.a(uip-icmp6.o)
                                                  contiki-srf06-cc26xx.a(uip-ds6-route.o)
list_length                                       contiki-srf06-cc26xx.a(list.o)
                                                  contiki-srf06-cc26xx.a(csma.o)
                                                  contiki-srf06-cc26xx.a(uip-ds6-route.o)
list_pop                                          contiki-srf06-cc26xx.a(list.o)
list_push                                         contiki-srf06-cc26xx.a(list.o)
                                                  contiki-srf06-cc26xx.a(uip-ds6-route.o)
list_remove                                       contiki-srf06-cc26xx.a(list.o)
                                                  contiki-srf06-cc26xx.a(csma.o)
                                                  contiki-srf06-cc26xx.a(nbr-table.o)
                                                  contiki-srf06-cc26xx.a(uip-icmp6.o)
                                                  contiki-srf06-cc26xx.a(uip-ds6-route.o)
                                                  contiki-srf06-cc26xx.a(ctimer.o)
                                                  contiki-srf06-cc26xx.a(lpm.o)
                                                  contiki-srf06-cc26xx.a(aux-ctrl.o)
list_tail                                         contiki-srf06-cc26xx.a(list.o)
llprefix                                          contiki-srf06-cc26xx.a(sicslowpan.o)
lpm_drop                                          contiki-srf06-cc26xx.a(lpm.o)
                                                  contiki-srf06-cc26xx.a(contiki-main.o)
lpm_init                                          contiki-srf06-cc26xx.a(lpm.o)
                                                  contiki-srf06-cc26xx.a(contiki-main.o)
lpm_pin_set_default_state                         contiki-srf06-cc26xx.a(lpm.o)
                                                  contiki-srf06-cc26xx.a(cc26xx-uart.o)
lpm_register_module                               contiki-srf06-cc26xx.a(lpm.o)
                                                  contiki-srf06-cc26xx.a(soc-trng.o)
                                                  contiki-srf06-cc26xx.a(cc26xx-uart.o)
                                                  contiki-srf06-cc26xx.a(prop-mode.o)
                                                  contiki-srf06-cc26xx.a(board.o)
lpm_shutdown                                      contiki-srf06-cc26xx.a(lpm.o)
                                                  contiki-srf06-cc26xx.a(button-sensor.o)
lpm_sleep                                         contiki-srf06-cc26xx.a(lpm.o)
                                                  contiki-srf06-cc26xx.a(prop-mode.o)
lpm_unregister_module                             contiki-srf06-cc26xx.a(lpm.o)
                                                  contiki-srf06-cc26xx.a(soc-trng.o)
mac_call_sent_callback                            contiki-srf06-cc26xx.a(mac.o)
                                                  contiki-srf06-cc26xx.a(nullrdc.o)
                                                  contiki-srf06-cc26xx.a(csma.o)
main                                              contiki-srf06-cc26xx.a(contiki-main.o)
                                                  obj_srf06-cc26xx/startup_gcc.o
memb_alloc                                        contiki-srf06-cc26xx.a(memb.o)
                                                  contiki-srf06-cc26xx.a(csma.o)
                                                  contiki-srf06-cc26xx.a(queuebuf.o)
                                                  contiki-srf06-cc26xx.a(nbr-table.o)
                                                  contiki-srf06-cc26xx.a(uip-ds6-route.o)
memb_free                                         contiki-srf06-cc26xx.a(memb.o)
                                                  contiki-srf06-cc26xx.a(csma.o)
                                                  contiki-srf06-cc26xx.a(queuebuf.o)
                                                  contiki-srf06-cc26xx.a(uip-ds6-route.o)
memb_init                                         contiki-srf06-cc26xx.a(memb.o)
                                                  contiki-srf06-cc26xx.a(csma.o)
                                                  contiki-srf06-cc26xx.a(queuebuf.o)
                                                  contiki-srf06-cc26xx.a(uip-ds6-route.o)
memb_inmemb                                       contiki-srf06-cc26xx.a(memb.o)
                                                  contiki-srf06-cc26xx.a(queuebuf.o)
memb_numfree                                      contiki-srf06-cc26xx.a(memb.o)
                                                  contiki-srf06-cc26xx.a(csma.o)
                                                  contiki-srf06-cc26xx.a(queuebuf.o)
memcmp                                            /usr/lib/gcc/arm-none-eabi/4.8.2/../../../arm-none-eabi/lib/armv7-m/libc.a(lib_a-memcmp.o)
                                                  contiki-srf06-cc26xx.a(noncoresec.o)
                                                  contiki-srf06-cc26xx.a(linkaddr.o)
                                                  contiki-srf06-cc26xx.a(rpl-icmp6.o)
                                                  contiki-srf06-cc26xx.a(rpl-dag.o)
                                                  contiki-srf06-cc26xx.a(rpl.o)
                                                  contiki-srf06-cc26xx.a(uip-nd6.o)
                                                  contiki-srf06-cc26xx.a(uip-ds6-route.o)
                                                  contiki-srf06-cc26xx.a(uip-ds6-nbr.o)
                                                  contiki-srf06-cc26xx.a(uip-ds6.o)
                                                  contiki-srf06-cc26xx.a(uip6.o)
                                                  contiki-srf06-cc26xx.a(sicslowpan.o)
memcpy                                            /usr/lib/gcc/arm-none-eabi/4.8.2/../../../arm-none-eabi/lib/armv7-m/libc.a(lib_a-memcpy.o)
                                                  contiki-srf06-cc26xx.a(aes-128.o)
                                                  contiki-srf06-cc26xx.a(ccm-star.o)
                                                  contiki-srf06-cc26xx.a(packetbuf.o)
                                                  contiki-srf06-cc26xx.a(rpl-icmp6.o)
                                                  contiki-srf06-cc26xx.a(rpl-dag.o)
                                                  contiki-srf06-cc26xx.a(uip6.o)
                                                  contiki-srf06-cc26xx.a(sicslowpan.o)
                                                  contiki-srf06-cc26xx.a(rf-ble.o)
                                                  contiki-srf06-cc26xx.a(prop-mode.o)
                                                  udp-server.co
memmove                                           /usr/lib/gcc/arm-none-eabi/4.8.2/../../../arm-none-eabi/lib/armv7-m/libc.a(lib_a-memmove.o)
                                                  contiki-srf06-cc26xx.a(rpl-ext-header.)
                                                  contiki-srf06-cc26xx.a(uip-udp-packet.)
                                                  contiki-srf06-cc26xx.a(uip-icmp6.o)
                                                  contiki-srf06-cc26xx.a(uip6.o)
                                                  contiki-srf06-cc26xx.a(sicslowpan.o)
memset                                            /usr/lib/gcc/arm-none-eabi/4.8.2/../../../arm-none-eabi/lib/armv7-m/libc.a(lib_a-memset.o)
                                                  contiki-srf06-cc26xx.a(framer-802154.o)
                                                  contiki-srf06-cc26xx.a(memb.o)
                                                  contiki-srf06-cc26xx.a(nbr-table.o)
                                                  contiki-srf06-cc26xx.a(rpl-icmp6.o)
                                                  contiki-srf06-cc26xx.a(rpl-dag.o)
                                                  contiki-srf06-cc26xx.a(uip-ds6.o)
                                                  contiki-srf06-cc26xx.a(uip6.o)
                                                  contiki-srf06-cc26xx.a(sicslowpan.o)
                                                  contiki-srf06-cc26xx.a(rf-ble.o)
                                                  contiki-srf06-cc26xx.a(rf-core.o)
                                                  contiki-srf06-cc26xx.a(prop-mode.o)
                                                  udp-server.co
nbr_lookup_add                                    udp-server.co
nbr_routes                                        contiki-srf06-cc26xx.a(uip-ds6-route.o)
nbr_table_add_lladdr                              contiki-srf06-cc26xx.a(nbr-table.o)
                                                  contiki-srf06-cc26xx.a(noncoresec.o)
                                                  contiki-srf06-cc26xx.a(link-stats.o)
                                                  contiki-srf06-cc26xx.a(rpl-dag.o)
                                                  contiki-srf06-cc26xx.a(uip-ds6-route.o)
                                                  contiki-srf06-cc26xx.a(uip-ds6-nbr.o)
nbr_table_get_from_lladdr                         contiki-srf06-cc26xx.a(nbr-table.o)
                                                  contiki-srf06-cc26xx.a(noncoresec.o)
                                                  contiki-srf06-cc26xx.a(link-stats.o)
                                                  contiki-srf06-cc26xx.a(rpl-ext-header.)
                                                  contiki-srf06-cc26xx.a(rpl-dag.o)
                                                  contiki-srf06-cc26xx.a(uip-ds6-route.o)
                                                  contiki-srf06-cc26xx.a(uip-ds6-nbr.o)
nbr_table_get_lladdr                              contiki-srf06-cc26xx.a(nbr-table.o)
                                                  contiki-srf06-cc26xx.a(rpl-nbr-policy.)
                                                  contiki-srf06-cc26xx.a(rpl-dag.o)
                                                  contiki-srf06-cc26xx.a(uip-ds6-route.o)
                                                  contiki-srf06-cc26xx.a(uip-ds6-nbr.o)
nbr_table_head                                    contiki-srf06-cc26xx.a(nbr-table.o)
                                                  contiki-srf06-cc26xx.a(rpl-nbr-policy.)
                                                  contiki-srf06-cc26xx.a(link-stats.o)
                                                  contiki-srf06-cc26xx.a(rpl-timers.o)
                                                  contiki-srf06-cc26xx.a(rpl-dag.o)
                                                  contiki-srf06-cc26xx.a(uip-ds6-nbr.o)
nbr_table_lock                                    contiki-srf06-cc26xx.a(nbr-table.o)
                                                  contiki-srf06-cc26xx.a(noncoresec.o)
                                                  contiki-srf06-cc26xx.a(rpl-dag.o)
                                                  contiki-srf06-cc26xx.a(uip-ds6-route.o)
nbr_table_next                                    contiki-srf06-cc26xx.a(nbr-table.o)
                                                  contiki-srf06-cc26xx.a(rpl-nbr-policy.)
                                                  contiki-srf06-cc26xx.a(link-stats.o)
                                                  contiki-srf06-cc26xx.a(rpl-timers.o)
                                                  contiki-srf06-cc26xx.a(rpl-dag.o)
                                                  contiki-srf06-cc26xx.a(uip-ds6-nbr.o)
nbr_table_register                                contiki-srf06-cc26xx.a(nbr-table.o)
                                                  contiki-srf06-cc26xx.a(noncoresec.o)
                                                  contiki-srf06-cc26xx.a(link-stats.o)
                                                  contiki-srf06-cc26xx.a(rpl-dag.o)
                                                  contiki-srf06-cc26xx.a(uip-ds6-route.o)
                                                  contiki-srf06-cc26xx.a(uip-ds6-nbr.o)
nbr_table_remove                                  contiki-srf06-cc26xx.a(nbr-table.o)
                                                  contiki-srf06-cc26xx.a(noncoresec.o)
                                                  contiki-srf06-cc26xx.a(rpl-dag.o)
                                                  contiki-srf06-cc26xx.a(uip-ds6-route.o)
                                                  contiki-srf06-cc26xx.a(uip-ds6-nbr.o)
nbr_table_unlock                                  contiki-srf06-cc26xx.a(nbr-table.o)
                                                  contiki-srf06-cc26xx.a(rpl-dag.o)
nbr_table_update_lladdr                           contiki-srf06-cc26xx.a(nbr-table.o)
neighbor_overflow                                 contiki-srf06-cc26xx.a(csma.o)
netstack_init                                     contiki-srf06-cc26xx.a(netstack.o)
                                                  contiki-srf06-cc26xx.a(contiki-main.o)
node_id                                           contiki-srf06-cc26xx.a(contiki-main.o)
noncoresec_driver                                 contiki-srf06-cc26xx.a(noncoresec.o)
                                                  contiki-srf06-cc26xx.a(csma.o)
                                                  contiki-srf06-cc26xx.a(netstack.o)
                                                  contiki-srf06-cc26xx.a(sicslowpan.o)
noncoresec_framer                                 contiki-srf06-cc26xx.a(noncoresec.o)
                                                  contiki-srf06-cc26xx.a(nullrdc.o)
                                                  contiki-srf06-cc26xx.a(sicslowpan.o)
noncoresec_invalid_level                          contiki-srf06-cc26xx.a(noncoresec.o)
noncoresec_nonauthentic                           contiki-srf06-cc26xx.a(noncoresec.o)
noncoresec_reboot                                 contiki-srf06-cc26xx.a(noncoresec.o)
noncoresec_replayed                               contiki-srf06-cc26xx.a(noncoresec.o)
nullrdc_driver                                    contiki-srf06-cc26xx.a(nullrdc.o)
                                                  contiki-srf06-cc26xx.a(csma.o)
                                                  contiki-srf06-cc26xx.a(netstack.o)
                                                  contiki-srf06-cc26xx.a(rf-core.o)
                                                  contiki-srf06-cc26xx.a(contiki-main.o)
order_and_set_counter                             contiki-srf06-cc26xx.a(anti-replay.o)
oscillators_request_hf_xosc                       contiki-srf06-cc26xx.a(oscillators.o)
                                                  contiki-srf06-cc26xx.a(rf-ble.o)
                                                  contiki-srf06-cc26xx.a(prop-mode.o)
oscillators_select_lf_rcosc                       contiki-srf06-cc26xx.a(oscillators.o)
                                                  contiki-srf06-cc26xx.a(lpm.o)
oscillators_select_lf_xosc                        contiki-srf06-cc26xx.a(oscillators.o)
                                                  contiki-srf06-cc26xx.a(contiki-main.o)
oscillators_switch_to_hf_rc                       contiki-srf06-cc26xx.a(oscillators.o)
                                                  contiki-srf06-cc26xx.a(rf-ble.o)
                                                  contiki-srf06-cc26xx.a(lpm.o)
                                                  contiki-srf06-cc26xx.a(prop-mode.o)
oscillators_switch_to_hf_xosc                     contiki-srf06-cc26xx.a(oscillators.o)
                                                  contiki-srf06-cc26xx.a(rf-ble.o)
                                                  contiki-srf06-cc26xx.a(prop-mode.o)
overrides                                         contiki-srf06-cc26xx.a(smartrf-setting)
packet_overflow                                   contiki-srf06-cc26xx.a(csma.o)
packetbuf_addr                                    contiki-srf06-cc26xx.a(packetbuf.o)
                                                  contiki-srf06-cc26xx.a(ccm-star-packet)
                                                  contiki-srf06-cc26xx.a(framer-802154.o)
                                                  contiki-srf06-cc26xx.a(noncoresec.o)
                                                  contiki-srf06-cc26xx.a(nullrdc.o)
                                                  contiki-srf06-cc26xx.a(csma.o)
                                                  contiki-srf06-cc26xx.a(rpl-icmp6.o)
                                                  contiki-srf06-cc26xx.a(rpl-ext-header.)
                                                  contiki-srf06-cc26xx.a(uip-ds6-nbr.o)
                                                  contiki-srf06-cc26xx.a(sicslowpan.o)
                                                  udp-server.co
packetbuf_addrs                                   contiki-srf06-cc26xx.a(packetbuf.o)
packetbuf_attr                                    contiki-srf06-cc26xx.a(packetbuf.o)
                                                  contiki-srf06-cc26xx.a(ccm-star-packet)
                                                  contiki-srf06-cc26xx.a(anti-replay.o)
                                                  contiki-srf06-cc26xx.a(framer-802154.o)
                                                  contiki-srf06-cc26xx.a(noncoresec.o)
                                                  contiki-srf06-cc26xx.a(csma.o)
                                                  contiki-srf06-cc26xx.a(link-stats.o)
                                                  contiki-srf06-cc26xx.a(sicslowpan.o)
                                                  udp-server.co
packetbuf_attr_clear                              contiki-srf06-cc26xx.a(packetbuf.o)
packetbuf_attr_copyfrom                           contiki-srf06-cc26xx.a(packetbuf.o)
                                                  contiki-srf06-cc26xx.a(queuebuf.o)
packetbuf_attr_copyto                             contiki-srf06-cc26xx.a(packetbuf.o)
                                                  contiki-srf06-cc26xx.a(queuebuf.o)
packetbuf_attrs                                   contiki-srf06-cc26xx.a(packetbuf.o)
packetbuf_clear                                   contiki-srf06-cc26xx.a(packetbuf.o)
                                                  contiki-srf06-cc26xx.a(sicslowpan.o)
                                                  contiki-srf06-cc26xx.a(rf-core.o)
packetbuf_compact                                 contiki-srf06-cc26xx.a(packetbuf.o)
packetbuf_copyfrom                                contiki-srf06-cc26xx.a(packetbuf.o)
                                                  contiki-srf06-cc26xx.a(queuebuf.o)
packetbuf_copyto                                  contiki-srf06-cc26xx.a(packetbuf.o)
                                                  contiki-srf06-cc26xx.a(queuebuf.o)
packetbuf_datalen                                 contiki-srf06-cc26xx.a(packetbuf.o)
                                                  contiki-srf06-cc26xx.a(framer-802154.o)
                                                  contiki-srf06-cc26xx.a(noncoresec.o)
                                                  contiki-srf06-cc26xx.a(sicslowpan.o)
                                                  udp-server.co
packetbuf_dataptr                                 contiki-srf06-cc26xx.a(packetbuf.o)
                                                  contiki-srf06-cc26xx.a(framer-802154.o)
                                                  contiki-srf06-cc26xx.a(sicslowpan.o)
                                                  contiki-srf06-cc26xx.a(rf-core.o)
                                                  udp-server.co
packetbuf_hdralloc                                contiki-srf06-cc26xx.a(packetbuf.o)
                                                  contiki-srf06-cc26xx.a(framer-802154.o)
                                                  udp-server.co
packetbuf_hdrlen                                  contiki-srf06-cc26xx.a(packetbuf.o)
packetbuf_hdrptr                                  contiki-srf06-cc26xx.a(packetbuf.o)
                                                  contiki-srf06-cc26xx.a(framer-802154.o)
                                                  contiki-srf06-cc26xx.a(noncoresec.o)
                                                  contiki-srf06-cc26xx.a(nullrdc.o)
                                                  udp-server.co
packetbuf_hdrreduce                               contiki-srf06-cc26xx.a(packetbuf.o)
                                                  contiki-srf06-cc26xx.a(framer-802154.o)
packetbuf_holds_broadcast                         contiki-srf06-cc26xx.a(packetbuf.o)
                                                  contiki-srf06-cc26xx.a(anti-replay.o)
                                                  contiki-srf06-cc26xx.a(framer-802154.o)
                                                  contiki-srf06-cc26xx.a(nullrdc.o)
                                                  udp-server.co
packetbuf_remaininglen                            contiki-srf06-cc26xx.a(packetbuf.o)
packetbuf_set_addr                                contiki-srf06-cc26xx.a(packetbuf.o)
                                                  contiki-srf06-cc26xx.a(framer-802154.o)
                                                  contiki-srf06-cc26xx.a(nullrdc.o)
                                                  contiki-srf06-cc26xx.a(sicslowpan.o)
packetbuf_set_attr                                contiki-srf06-cc26xx.a(packetbuf.o)
                                                  contiki-srf06-cc26xx.a(anti-replay.o)
                                                  contiki-srf06-cc26xx.a(framer-802154.o)
                                                  contiki-srf06-cc26xx.a(noncoresec.o)
                                                  contiki-srf06-cc26xx.a(sicslowpan.o)
                                                  contiki-srf06-cc26xx.a(prop-mode.o)
packetbuf_set_datalen                             contiki-srf06-cc26xx.a(packetbuf.o)
                                                  contiki-srf06-cc26xx.a(noncoresec.o)
                                                  contiki-srf06-cc26xx.a(sicslowpan.o)
                                                  contiki-srf06-cc26xx.a(rf-core.o)
packetbuf_totlen                                  contiki-srf06-cc26xx.a(packetbuf.o)
                                                  contiki-srf06-cc26xx.a(noncoresec.o)
                                                  contiki-srf06-cc26xx.a(nullrdc.o)
                                                  udp-server.co
paired_node_addr                                  udp-server.co
periodic_timer                                    contiki-srf06-cc26xx.a(link-stats.o)
printf                                            contiki-srf06-cc26xx.a(dbg-printf.o)
                                                  contiki-srf06-cc26xx.a(rpl-dag.o)
                                                  contiki-srf06-cc26xx.a(uip-debug.o)
                                                  contiki-srf06-cc26xx.a(prop-mode.o)
                                                  contiki-srf06-cc26xx.a(contiki-main.o)
                                                  udp-server.co
process_alloc_event                               contiki-srf06-cc26xx.a(process.o)
                                                  contiki-srf06-cc26xx.a(tcpip.o)
                                                  contiki-srf06-cc26xx.a(serial-line.o)
                                                  contiki-srf06-cc26xx.a(soc-trng.o)
                                                  contiki-srf06-cc26xx.a(sensors.o)
process_current                                   contiki-srf06-cc26xx.a(process.o)
                                                  contiki-srf06-cc26xx.a(tcpip.o)
                                                  contiki-srf06-cc26xx.a(serial-line.o)
                                                  contiki-srf06-cc26xx.a(etimer.o)
                                                  contiki-srf06-cc26xx.a(ctimer.o)
                                                  udp-server.co
process_exit                                      contiki-srf06-cc26xx.a(process.o)
                                                  contiki-srf06-cc26xx.a(autostart.o)
                                                  contiki-srf06-cc26xx.a(rf-ble.o)
process_init                                      contiki-srf06-cc26xx.a(process.o)
                                                  contiki-srf06-cc26xx.a(contiki-main.o)
process_is_running                                contiki-srf06-cc26xx.a(process.o)
process_list                                      contiki-srf06-cc26xx.a(process.o)
process_nevents                                   contiki-srf06-cc26xx.a(process.o)
                                                  contiki-srf06-cc26xx.a(lpm.o)
process_poll                                      contiki-srf06-cc26xx.a(process.o)
                                                  contiki-srf06-cc26xx.a(serial-line.o)
                                                  contiki-srf06-cc26xx.a(etimer.o)
                                                  contiki-srf06-cc26xx.a(rf-core.o)
                                                  contiki-srf06-cc26xx.a(prop-mode.o)
                                                  contiki-srf06-cc26xx.a(sensors.o)
process_post                                      contiki-srf06-cc26xx.a(process.o)
                                                  contiki-srf06-cc26xx.a(tcpip.o)
                                                  contiki-srf06-cc26xx.a(serial-line.o)
                                                  contiki-srf06-cc26xx.a(etimer.o)
                                                  contiki-srf06-cc26xx.a(soc-trng.o)
                                                  contiki-srf06-cc26xx.a(sensors.o)
                                                  udp-server.co
process_post_synch                                contiki-srf06-cc26xx.a(process.o)
                                                  contiki-srf06-cc26xx.a(tcpip.o)
process_run                                       contiki-srf06-cc26xx.a(process.o)
                                                  contiki-srf06-cc26xx.a(contiki-main.o)
process_start                                     contiki-srf06-cc26xx.a(process.o)
                                                  contiki-srf06-cc26xx.a(serial-line.o)
                                                  contiki-srf06-cc26xx.a(ctimer.o)
                                                  contiki-srf06-cc26xx.a(autostart.o)
                                                  contiki-srf06-cc26xx.a(soc-trng.o)
                                                  contiki-srf06-cc26xx.a(prop-mode.o)
                                                  contiki-srf06-cc26xx.a(contiki-main.o)
prop_mode_driver                                  contiki-srf06-cc26xx.a(prop-mode.o)
                                                  contiki-srf06-cc26xx.a(nullrdc.o)
                                                  contiki-srf06-cc26xx.a(netstack.o)
                                                  contiki-srf06-cc26xx.a(rf-ble.o)
                                                  contiki-srf06-cc26xx.a(rf-core.o)
                                                  contiki-srf06-cc26xx.a(contiki-main.o)
                                                  udp-server.co
putchar                                           contiki-srf06-cc26xx.a(putchar.o)
                                                  contiki-srf06-cc26xx.a(uip-debug.o)
                                                  contiki-srf06-cc26xx.a(contiki-main.o)
                                                  udp-server.co
puts                                              contiki-srf06-cc26xx.a(putchar.o)
                                                  contiki-srf06-cc26xx.a(rpl-dag.o)
                                                  contiki-srf06-cc26xx.a(rf-core.o)
                                                  contiki-srf06-cc26xx.a(prop-mode.o)
                                                  contiki-srf06-cc26xx.a(contiki-main.o)
                                                  udp-server.co
queuebuf_addr                                     contiki-srf06-cc26xx.a(queuebuf.o)
queuebuf_attr                                     contiki-srf06-cc26xx.a(queuebuf.o)
                                                  contiki-srf06-cc26xx.a(csma.o)
queuebuf_datalen                                  contiki-srf06-cc26xx.a(queuebuf.o)
queuebuf_dataptr                                  contiki-srf06-cc26xx.a(queuebuf.o)
queuebuf_debug_print                              contiki-srf06-cc26xx.a(queuebuf.o)
queuebuf_free                                     contiki-srf06-cc26xx.a(queuebuf.o)
                                                  contiki-srf06-cc26xx.a(csma.o)
                                                  contiki-srf06-cc26xx.a(sicslowpan.o)
queuebuf_init                                     contiki-srf06-cc26xx.a(queuebuf.o)
                                                  contiki-srf06-cc26xx.a(contiki-main.o)
queuebuf_new_from_packetbuf                       contiki-srf06-cc26xx.a(queuebuf.o)
                                                  contiki-srf06-cc26xx.a(csma.o)
                                                  contiki-srf06-cc26xx.a(sicslowpan.o)
queuebuf_numfree                                  contiki-srf06-cc26xx.a(queuebuf.o)
                                                  contiki-srf06-cc26xx.a(sicslowpan.o)
queuebuf_to_packetbuf                             contiki-srf06-cc26xx.a(queuebuf.o)
                                                  contiki-srf06-cc26xx.a(nullrdc.o)
                                                  contiki-srf06-cc26xx.a(sicslowpan.o)
queuebuf_update_attr_from_packetbuf               contiki-srf06-cc26xx.a(queuebuf.o)
                                                  contiki-srf06-cc26xx.a(csma.o)
queuebuf_update_from_packetbuf                    contiki-srf06-cc26xx.a(queuebuf.o)
random_init                                       contiki-srf06-cc26xx.a(random.o)
                                                  contiki-srf06-cc26xx.a(contiki-main.o)
random_rand                                       contiki-srf06-cc26xx.a(random.o)
                                                  contiki-srf06-cc26xx.a(framer-802154.o)
                                                  contiki-srf06-cc26xx.a(csma.o)
                                                  contiki-srf06-cc26xx.a(rpl-timers.o)
                                                  contiki-srf06-cc26xx.a(rpl-icmp6.o)
                                                  contiki-srf06-cc26xx.a(uip-ds6.o)
rat_offset                                        contiki-srf06-cc26xx.a(rf-core.o)
remove_ext_hdr                                    contiki-srf06-cc26xx.a(uip6.o)
rf_ble_beacon_process                             contiki-srf06-cc26xx.a(rf-ble.o)
rf_ble_beacond_config                             contiki-srf06-cc26xx.a(rf-ble.o)
rf_ble_beacond_start                              contiki-srf06-cc26xx.a(rf-ble.o)
rf_ble_beacond_stop                               contiki-srf06-cc26xx.a(rf-ble.o)
rf_ble_is_active                                  contiki-srf06-cc26xx.a(rf-ble.o)
                                                  contiki-srf06-cc26xx.a(prop-mode.o)
rf_core_boot                                      contiki-srf06-cc26xx.a(rf-core.o)
                                                  contiki-srf06-cc26xx.a(rf-ble.o)
rf_core_cmd_done_dis                              contiki-srf06-cc26xx.a(rf-core.o)
                                                  contiki-srf06-cc26xx.a(prop-mode.o)
rf_core_cmd_done_en                               contiki-srf06-cc26xx.a(rf-core.o)
                                                  contiki-srf06-cc26xx.a(prop-mode.o)
rf_core_get_last_radio_op                         contiki-srf06-cc26xx.a(rf-core.o)
                                                  contiki-srf06-cc26xx.a(prop-mode.o)
rf_core_init_radio_op                             contiki-srf06-cc26xx.a(rf-core.o)
                                                  contiki-srf06-cc26xx.a(rf-ble.o)
rf_core_is_accessible                             contiki-srf06-cc26xx.a(rf-core.o)
                                                  contiki-srf06-cc26xx.a(rf-ble.o)
                                                  contiki-srf06-cc26xx.a(prop-mode.o)
rf_core_power_down                                contiki-srf06-cc26xx.a(rf-core.o)
                                                  contiki-srf06-cc26xx.a(rf-ble.o)
                                                  contiki-srf06-cc26xx.a(prop-mode.o)
rf_core_power_up                                  contiki-srf06-cc26xx.a(rf-core.o)
                                                  contiki-srf06-cc26xx.a(prop-mode.o)
rf_core_primary_mode_abort                        contiki-srf06-cc26xx.a(rf-core.o)
                                                  contiki-srf06-cc26xx.a(rf-ble.o)
rf_core_primary_mode_register                     contiki-srf06-cc26xx.a(rf-core.o)
                                                  contiki-srf06-cc26xx.a(prop-mode.o)
rf_core_primary_mode_restore                      contiki-srf06-cc26xx.a(rf-core.o)
                                                  contiki-srf06-cc26xx.a(rf-ble.o)
rf_core_process                                   contiki-srf06-cc26xx.a(rf-core.o)
                                                  contiki-srf06-cc26xx.a(prop-mode.o)
rf_core_restart_rat                               contiki-srf06-cc26xx.a(rf-core.o)
rf_core_send_cmd                                  contiki-srf06-cc26xx.a(rf-core.o)
                                                  contiki-srf06-cc26xx.a(rf-ble.o)
                                                  contiki-srf06-cc26xx.a(prop-mode.o)
rf_core_set_modesel                               contiki-srf06-cc26xx.a(rf-core.o)
                                                  contiki-srf06-cc26xx.a(prop-mode.o)
rf_core_setup_interrupts                          contiki-srf06-cc26xx.a(rf-core.o)
                                                  contiki-srf06-cc26xx.a(prop-mode.o)
rf_core_start_rat                                 contiki-srf06-cc26xx.a(rf-core.o)
                                                  contiki-srf06-cc26xx.a(prop-mode.o)
rf_core_stop_rat                                  contiki-srf06-cc26xx.a(rf-core.o)
rf_core_wait_cmd_done                             contiki-srf06-cc26xx.a(rf-core.o)
                                                  contiki-srf06-cc26xx.a(rf-ble.o)
                                                  contiki-srf06-cc26xx.a(prop-mode.o)
rime_sniffer_add                                  contiki-srf06-cc26xx.a(sicslowpan.o)
rime_sniffer_remove                               contiki-srf06-cc26xx.a(sicslowpan.o)
ringbuf_elements                                  contiki-srf06-cc26xx.a(ringbuf.o)
ringbuf_get                                       contiki-srf06-cc26xx.a(ringbuf.o)
                                                  contiki-srf06-cc26xx.a(serial-line.o)
ringbuf_init                                      contiki-srf06-cc26xx.a(ringbuf.o)
                                                  contiki-srf06-cc26xx.a(serial-line.o)
ringbuf_put                                       contiki-srf06-cc26xx.a(ringbuf.o)
                                                  contiki-srf06-cc26xx.a(serial-line.o)
ringbuf_size                                      contiki-srf06-cc26xx.a(ringbuf.o)
rpl_add_dag                                       contiki-srf06-cc26xx.a(rpl-dag.o)
rpl_add_parent                                    contiki-srf06-cc26xx.a(rpl-dag.o)
rpl_add_route                                     contiki-srf06-cc26xx.a(rpl.o)
                                                  contiki-srf06-cc26xx.a(rpl-icmp6.o)
rpl_alloc_dag                                     contiki-srf06-cc26xx.a(rpl-dag.o)
rpl_alloc_instance                                contiki-srf06-cc26xx.a(rpl-dag.o)
rpl_cancel_dao                                    contiki-srf06-cc26xx.a(rpl-timers.o)
                                                  contiki-srf06-cc26xx.a(rpl.o)
rpl_dag_init                                      contiki-srf06-cc26xx.a(rpl-dag.o)
                                                  contiki-srf06-cc26xx.a(rpl.o)
rpl_find_of                                       contiki-srf06-cc26xx.a(rpl-dag.o)
rpl_find_parent                                   contiki-srf06-cc26xx.a(rpl-dag.o)
                                                  contiki-srf06-cc26xx.a(rpl-icmp6.o)
rpl_find_parent_any_dag                           contiki-srf06-cc26xx.a(rpl-dag.o)
                                                  contiki-srf06-cc26xx.a(rpl.o)
rpl_free_dag                                      contiki-srf06-cc26xx.a(rpl-dag.o)
                                                  contiki-srf06-cc26xx.a(rpl.o)
rpl_free_instance                                 contiki-srf06-cc26xx.a(rpl-dag.o)
rpl_get_any_dag                                   contiki-srf06-cc26xx.a(rpl-dag.o)
                                                  contiki-srf06-cc26xx.a(rpl-timers.o)
rpl_get_dag                                       contiki-srf06-cc26xx.a(rpl-dag.o)
rpl_get_default_instance                          contiki-srf06-cc26xx.a(rpl-dag.o)
rpl_get_instance                                  contiki-srf06-cc26xx.a(rpl-dag.o)
                                                  contiki-srf06-cc26xx.a(rpl-nbr-policy.)
                                                  contiki-srf06-cc26xx.a(rpl-icmp6.o)
                                                  contiki-srf06-cc26xx.a(rpl-ext-header.)
rpl_get_mode                                      contiki-srf06-cc26xx.a(rpl.o)
                                                  contiki-srf06-cc26xx.a(rpl-timers.o)
                                                  contiki-srf06-cc26xx.a(rpl-icmp6.o)
rpl_get_nbr                                       contiki-srf06-cc26xx.a(rpl-dag.o)
rpl_get_parent                                    contiki-srf06-cc26xx.a(rpl-dag.o)
                                                  contiki-srf06-cc26xx.a(rpl-nbr-policy.)
                                                  contiki-srf06-cc26xx.a(rpl-ext-header.)
rpl_get_parent_ipaddr                             contiki-srf06-cc26xx.a(rpl-dag.o)
                                                  contiki-srf06-cc26xx.a(rpl-timers.o)
                                                  contiki-srf06-cc26xx.a(rpl-icmp6.o)
rpl_get_parent_link_metric                        contiki-srf06-cc26xx.a(rpl-dag.o)
rpl_get_parent_link_stats                         contiki-srf06-cc26xx.a(rpl-dag.o)
                                                  contiki-srf06-cc26xx.a(rpl-timers.o)
                                                  contiki-srf06-cc26xx.a(rpl-mrhof.o)
rpl_get_parent_lladdr                             contiki-srf06-cc26xx.a(rpl-dag.o)
                                                  contiki-srf06-cc26xx.a(rpl-mrhof.o)
rpl_get_parent_rank                               contiki-srf06-cc26xx.a(rpl-dag.o)
rpl_has_downward_route                            contiki-srf06-cc26xx.a(rpl-dag.o)
rpl_icmp6_register_handlers                       contiki-srf06-cc26xx.a(rpl-icmp6.o)
                                                  contiki-srf06-cc26xx.a(rpl.o)
rpl_icmp6_update_nbr_table                        contiki-srf06-cc26xx.a(rpl-icmp6.o)
                                                  contiki-srf06-cc26xx.a(rpl-dag.o)
rpl_init                                          contiki-srf06-cc26xx.a(rpl.o)
                                                  contiki-srf06-cc26xx.a(tcpip.o)
rpl_ipv6_neighbor_callback                        contiki-srf06-cc26xx.a(rpl.o)
                                                  contiki-srf06-cc26xx.a(uip-ds6-nbr.o)
rpl_join_instance                                 contiki-srf06-cc26xx.a(rpl-dag.o)
rpl_link_neighbor_callback                        contiki-srf06-cc26xx.a(rpl.o)
                                                  contiki-srf06-cc26xx.a(uip-ds6-nbr.o)
rpl_local_repair                                  contiki-srf06-cc26xx.a(rpl-dag.o)
                                                  contiki-srf06-cc26xx.a(rpl-icmp6.o)
rpl_move_parent                                   contiki-srf06-cc26xx.a(rpl-dag.o)
rpl_mrhof                                         contiki-srf06-cc26xx.a(rpl-mrhof.o)
                                                  contiki-srf06-cc26xx.a(rpl-dag.o)
rpl_nbr_policy_find_removable                     contiki-srf06-cc26xx.a(rpl-nbr-policy.)
                                                  contiki-srf06-cc26xx.a(nbr-table.o)
rpl_nullify_parent                                contiki-srf06-cc26xx.a(rpl-dag.o)
rpl_parent_is_fresh                               contiki-srf06-cc26xx.a(rpl-dag.o)
                                                  contiki-srf06-cc26xx.a(rpl-timers.o)
rpl_parent_is_reachable                           contiki-srf06-cc26xx.a(rpl-dag.o)
rpl_parents                                       contiki-srf06-cc26xx.a(rpl-dag.o)
                                                  contiki-srf06-cc26xx.a(rpl-timers.o)
                                                  contiki-srf06-cc26xx.a(rpl-ext-header.)
rpl_print_neighbor_list                           contiki-srf06-cc26xx.a(rpl-dag.o)
rpl_process_dio                                   contiki-srf06-cc26xx.a(rpl-dag.o)
                                                  contiki-srf06-cc26xx.a(rpl-icmp6.o)
rpl_process_parent_event                          contiki-srf06-cc26xx.a(rpl-dag.o)
rpl_purge_dags                                    contiki-srf06-cc26xx.a(rpl.o)
                                                  contiki-srf06-cc26xx.a(rpl-timers.o)
rpl_purge_routes                                  contiki-srf06-cc26xx.a(rpl.o)
                                                  contiki-srf06-cc26xx.a(rpl-timers.o)
rpl_rank_via_parent                               contiki-srf06-cc26xx.a(rpl-dag.o)
                                                  contiki-srf06-cc26xx.a(rpl-timers.o)
rpl_recalculate_ranks                             contiki-srf06-cc26xx.a(rpl-dag.o)
                                                  contiki-srf06-cc26xx.a(rpl-timers.o)
rpl_remove_header                                 contiki-srf06-cc26xx.a(rpl-ext-header.)
                                                  contiki-srf06-cc26xx.a(uip-icmp6.o)
rpl_remove_parent                                 contiki-srf06-cc26xx.a(rpl-dag.o)
rpl_remove_routes                                 contiki-srf06-cc26xx.a(rpl.o)
                                                  contiki-srf06-cc26xx.a(rpl-dag.o)
rpl_remove_routes_by_nexthop                      contiki-srf06-cc26xx.a(rpl.o)
                                                  contiki-srf06-cc26xx.a(rpl-dag.o)
rpl_repair_root                                   contiki-srf06-cc26xx.a(rpl-dag.o)
                                                  udp-server.co
rpl_reset_dio_timer                               contiki-srf06-cc26xx.a(rpl-timers.o)
                                                  contiki-srf06-cc26xx.a(rpl-icmp6.o)
                                                  contiki-srf06-cc26xx.a(rpl-ext-header.)
                                                  contiki-srf06-cc26xx.a(rpl-dag.o)
                                                  contiki-srf06-cc26xx.a(tcpip.o)
rpl_reset_periodic_timer                          contiki-srf06-cc26xx.a(rpl-timers.o)
                                                  contiki-srf06-cc26xx.a(rpl.o)
rpl_schedule_dao                                  contiki-srf06-cc26xx.a(rpl-timers.o)
                                                  contiki-srf06-cc26xx.a(rpl-dag.o)
rpl_schedule_dao_immediately                      contiki-srf06-cc26xx.a(rpl-timers.o)
                                                  contiki-srf06-cc26xx.a(rpl.o)
rpl_schedule_probing                              contiki-srf06-cc26xx.a(rpl-timers.o)
                                                  contiki-srf06-cc26xx.a(rpl-dag.o)
rpl_schedule_unicast_dio_immediately              contiki-srf06-cc26xx.a(rpl-timers.o)
                                                  contiki-srf06-cc26xx.a(rpl-ext-header.)
rpl_select_dag                                    contiki-srf06-cc26xx.a(rpl-dag.o)
rpl_select_parent                                 contiki-srf06-cc26xx.a(rpl-dag.o)
rpl_set_default_instance                          contiki-srf06-cc26xx.a(rpl-dag.o)
rpl_set_default_route                             contiki-srf06-cc26xx.a(rpl-dag.o)
rpl_set_mode                                      contiki-srf06-cc26xx.a(rpl.o)
rpl_set_prefix                                    contiki-srf06-cc26xx.a(rpl-dag.o)
                                                  udp-server.co
rpl_set_root                                      contiki-srf06-cc26xx.a(rpl-dag.o)
                                                  udp-server.co
rpl_update_header                                 contiki-srf06-cc26xx.a(rpl-ext-header.)
                                                  contiki-srf06-cc26xx.a(tcpip.o)
rpl_verify_hbh_header                             contiki-srf06-cc26xx.a(rpl-ext-header.)
                                                  contiki-srf06-cc26xx.a(uip6.o)
rtimer_arch_init                                  contiki-srf06-cc26xx.a(rtimer-arch.o)
                                                  contiki-srf06-cc26xx.a(rtimer.o)
rtimer_arch_now                                   contiki-srf06-cc26xx.a(rtimer-arch.o)
                                                  contiki-srf06-cc26xx.a(lpm.o)
                                                  contiki-srf06-cc26xx.a(soc-rtc.o)
                                                  contiki-srf06-cc26xx.a(prop-mode.o)
rtimer_arch_schedule                              contiki-srf06-cc26xx.a(rtimer-arch.o)
                                                  contiki-srf06-cc26xx.a(rtimer.o)
rtimer_init                                       contiki-srf06-cc26xx.a(rtimer.o)
                                                  contiki-srf06-cc26xx.a(contiki-main.o)
rtimer_run_next                                   contiki-srf06-cc26xx.a(rtimer.o)
                                                  contiki-srf06-cc26xx.a(soc-rtc.o)
rtimer_set                                        contiki-srf06-cc26xx.a(rtimer.o)
sensors                                           contiki-srf06-cc26xx.a(srf06-sensors.o)
                                                  contiki-srf06-cc26xx.a(sensors.o)
sensors_changed                                   contiki-srf06-cc26xx.a(sensors.o)
                                                  contiki-srf06-cc26xx.a(button-sensor.o)
sensors_event                                     contiki-srf06-cc26xx.a(sensors.o)
sensors_find                                      contiki-srf06-cc26xx.a(sensors.o)
sensors_first                                     contiki-srf06-cc26xx.a(sensors.o)
sensors_flags                                     contiki-srf06-cc26xx.a(srf06-sensors.o)
                                                  contiki-srf06-cc26xx.a(sensors.o)
sensors_next                                      contiki-srf06-cc26xx.a(sensors.o)
sensors_process                                   contiki-srf06-cc26xx.a(sensors.o)
                                                  contiki-srf06-cc26xx.a(contiki-main.o)
serial_data_len                                   contiki-srf06-cc26xx.a(serial-line.o)
                                                  udp-server.co
serial_line_event_message                         contiki-srf06-cc26xx.a(serial-line.o)
                                                  udp-server.co
serial_line_init                                  contiki-srf06-cc26xx.a(serial-line.o)
                                                  contiki-srf06-cc26xx.a(contiki-main.o)
                                                  udp-server.co
serial_line_input_byte                            contiki-srf06-cc26xx.a(serial-line.o)
                                                  udp-server.co
serial_line_process                               contiki-srf06-cc26xx.a(serial-line.o)
sicslowpan_driver                                 contiki-srf06-cc26xx.a(sicslowpan.o)
                                                  contiki-srf06-cc26xx.a(noncoresec.o)
                                                  contiki-srf06-cc26xx.a(netstack.o)
                                                  contiki-srf06-cc26xx.a(contiki-main.o)
sicslowpan_get_last_rssi                          contiki-srf06-cc26xx.a(sicslowpan.o)
sicslowpan_init                                   contiki-srf06-cc26xx.a(sicslowpan.o)
smartrf_settings_cmd_fs                           contiki-srf06-cc26xx.a(smartrf-setting)
                                                  contiki-srf06-cc26xx.a(prop-mode.o)
smartrf_settings_cmd_prop_radio_div_setup         contiki-srf06-cc26xx.a(smartrf-setting)
                                                  contiki-srf06-cc26xx.a(prop-mode.o)
smartrf_settings_cmd_prop_rx_adv                  contiki-srf06-cc26xx.a(smartrf-setting)
                                                  contiki-srf06-cc26xx.a(prop-mode.o)
smartrf_settings_cmd_prop_tx_adv                  contiki-srf06-cc26xx.a(smartrf-setting)
                                                  contiki-srf06-cc26xx.a(prop-mode.o)
soc_rtc_get_next_trigger                          contiki-srf06-cc26xx.a(soc-rtc.o)
soc_rtc_init                                      contiki-srf06-cc26xx.a(soc-rtc.o)
                                                  contiki-srf06-cc26xx.a(contiki-main.o)
soc_rtc_last_isr_time                             contiki-srf06-cc26xx.a(soc-rtc.o)
                                                  contiki-srf06-cc26xx.a(lpm.o)
soc_rtc_schedule_one_shot                         contiki-srf06-cc26xx.a(soc-rtc.o)
                                                  contiki-srf06-cc26xx.a(lpm.o)
                                                  contiki-srf06-cc26xx.a(rtimer-arch.o)
soc_trng_init                                     contiki-srf06-cc26xx.a(soc-trng.o)
                                                  contiki-srf06-cc26xx.a(random.o)
soc_trng_process                                  contiki-srf06-cc26xx.a(soc-trng.o)
soc_trng_rand_asynchronous                        contiki-srf06-cc26xx.a(soc-trng.o)
soc_trng_rand_synchronous                         contiki-srf06-cc26xx.a(soc-trng.o)
                                                  contiki-srf06-cc26xx.a(random.o)
stimer_elapsed                                    contiki-srf06-cc26xx.a(stimer.o)
stimer_expired                                    contiki-srf06-cc26xx.a(stimer.o)
                                                  contiki-srf06-cc26xx.a(uip-ds6-route.o)
                                                  contiki-srf06-cc26xx.a(uip-ds6.o)
stimer_remaining                                  contiki-srf06-cc26xx.a(stimer.o)
stimer_reset                                      contiki-srf06-cc26xx.a(stimer.o)
stimer_restart                                    contiki-srf06-cc26xx.a(stimer.o)
stimer_set                                        contiki-srf06-cc26xx.a(stimer.o)
                                                  contiki-srf06-cc26xx.a(uip-ds6-route.o)
                                                  contiki-srf06-cc26xx.a(uip-ds6.o)
strlen                                            /usr/lib/gcc/arm-none-eabi/4.8.2/../../../arm-none-eabi/lib/armv7-m/libc.a(lib_a-strlen.o)
                                                  contiki-srf06-cc26xx.a(rf-ble.o)
                                                  contiki-srf06-cc26xx.a(putchar.o)
                                                  contiki-srf06-cc26xx.a(sensors.o)
strncmp                                           /usr/lib/gcc/arm-none-eabi/4.8.2/../../../arm-none-eabi/lib/armv7-m/libc.a(lib_a-strncmp.o)
                                                  contiki-srf06-cc26xx.a(sensors.o)
                                                  udp-server.co
tcp_attach                                        contiki-srf06-cc26xx.a(tcpip.o)
tcp_connect                                       contiki-srf06-cc26xx.a(tcpip.o)
tcp_listen                                        contiki-srf06-cc26xx.a(tcpip.o)
tcp_unlisten                                      contiki-srf06-cc26xx.a(tcpip.o)
tcpip_event                                       contiki-srf06-cc26xx.a(tcpip.o)
                                                  udp-server.co
tcpip_get_inputfunc                               contiki-srf06-cc26xx.a(tcpip.o)
tcpip_get_outputfunc                              contiki-srf06-cc26xx.a(tcpip.o)
tcpip_icmp6_call                                  contiki-srf06-cc26xx.a(tcpip.o)
                                                  contiki-srf06-cc26xx.a(uip6.o)
tcpip_icmp6_event                                 contiki-srf06-cc26xx.a(tcpip.o)
tcpip_input                                       contiki-srf06-cc26xx.a(tcpip.o)
                                                  contiki-srf06-cc26xx.a(sicslowpan.o)
tcpip_inputfunc                                   contiki-srf06-cc26xx.a(tcpip.o)
tcpip_ipv6_output                                 contiki-srf06-cc26xx.a(tcpip.o)
                                                  contiki-srf06-cc26xx.a(uip-udp-packet.)
                                                  contiki-srf06-cc26xx.a(uip-icmp6.o)
tcpip_output                                      contiki-srf06-cc26xx.a(tcpip.o)
tcpip_poll_tcp                                    contiki-srf06-cc26xx.a(tcpip.o)
tcpip_poll_udp                                    contiki-srf06-cc26xx.a(tcpip.o)
tcpip_process                                     contiki-srf06-cc26xx.a(tcpip.o)
                                                  contiki-srf06-cc26xx.a(contiki-main.o)
tcpip_set_inputfunc                               contiki-srf06-cc26xx.a(tcpip.o)
tcpip_set_outputfunc                              contiki-srf06-cc26xx.a(tcpip.o)
                                                  contiki-srf06-cc26xx.a(sicslowpan.o)
tcpip_uipcall                                     contiki-srf06-cc26xx.a(tcpip.o)
                                                  contiki-srf06-cc26xx.a(uip6.o)
timer_expired                                     contiki-srf06-cc26xx.a(timer.o)
                                                  contiki-srf06-cc26xx.a(sicslowpan.o)
                                                  contiki-srf06-cc26xx.a(etimer.o)
                                                  contiki-srf06-cc26xx.a(button-sensor.o)
timer_remaining                                   contiki-srf06-cc26xx.a(timer.o)
timer_reset                                       contiki-srf06-cc26xx.a(timer.o)
                                                  contiki-srf06-cc26xx.a(etimer.o)
timer_restart                                     contiki-srf06-cc26xx.a(timer.o)
                                                  contiki-srf06-cc26xx.a(etimer.o)
timer_set                                         contiki-srf06-cc26xx.a(timer.o)
                                                  contiki-srf06-cc26xx.a(sicslowpan.o)
                                                  contiki-srf06-cc26xx.a(etimer.o)
                                                  contiki-srf06-cc26xx.a(button-sensor.o)
tx_power_current                                  contiki-srf06-cc26xx.a(prop-mode.o)
uDMAErrIntHandler                                 obj_srf06-cc26xx/startup_gcc.o
uDMAIntHandler                                    obj_srf06-cc26xx/startup_gcc.o
udp_attach                                        contiki-srf06-cc26xx.a(tcpip.o)
udp_broadcast_new                                 contiki-srf06-cc26xx.a(tcpip.o)
udp_new                                           contiki-srf06-cc26xx.a(tcpip.o)
                                                  udp-server.co
udp_server_process                                udp-server.co
uip_acc32                                         contiki-srf06-cc26xx.a(uip6.o)
uip_add32                                         contiki-srf06-cc26xx.a(uip6.o)
uip_aligned_buf                                   contiki-srf06-cc26xx.a(uip6.o)
                                                  contiki-srf06-cc26xx.a(rpl-nbr-policy.)
                                                  contiki-srf06-cc26xx.a(rpl-icmp6.o)
                                                  contiki-srf06-cc26xx.a(rpl-ext-header.)
                                                  contiki-srf06-cc26xx.a(uip-udp-packet.)
                                                  contiki-srf06-cc26xx.a(tcpip.o)
                                                  contiki-srf06-cc26xx.a(uip-nd6.o)
                                                  contiki-srf06-cc26xx.a(uip-icmp6.o)
                                                  contiki-srf06-cc26xx.a(sicslowpan.o)
uip_appdata                                       contiki-srf06-cc26xx.a(uip6.o)
                                                  udp-server.co
uip_chksum                                        contiki-srf06-cc26xx.a(uip6.o)
uip_conn                                          contiki-srf06-cc26xx.a(uip6.o)
                                                  contiki-srf06-cc26xx.a(tcpip.o)
uip_connect                                       contiki-srf06-cc26xx.a(uip6.o)
                                                  contiki-srf06-cc26xx.a(tcpip.o)
uip_conns                                         contiki-srf06-cc26xx.a(uip6.o)
                                                  contiki-srf06-cc26xx.a(tcpip.o)
uip_debug_ipaddr_print                            contiki-srf06-cc26xx.a(uip-debug.o)
                                                  contiki-srf06-cc26xx.a(uip-ds6-route.o)
                                                  udp-server.co
uip_debug_lladdr_print                            contiki-srf06-cc26xx.a(uip-debug.o)
uip_ds6_aaddr_add                                 contiki-srf06-cc26xx.a(uip-ds6.o)
uip_ds6_aaddr_lookup                              contiki-srf06-cc26xx.a(uip-ds6.o)
uip_ds6_aaddr_rm                                  contiki-srf06-cc26xx.a(uip-ds6.o)
uip_ds6_addr_add                                  contiki-srf06-cc26xx.a(uip-ds6.o)
                                                  contiki-srf06-cc26xx.a(rpl-dag.o)
                                                  udp-server.co
uip_ds6_addr_lookup                               contiki-srf06-cc26xx.a(uip-ds6.o)
                                                  contiki-srf06-cc26xx.a(rpl-ext-header.)
                                                  contiki-srf06-cc26xx.a(rpl-dag.o)
                                                  contiki-srf06-cc26xx.a(uip-nd6.o)
                                                  contiki-srf06-cc26xx.a(uip6.o)
                                                  udp-server.co
uip_ds6_addr_rm                                   contiki-srf06-cc26xx.a(uip-ds6.o)
                                                  contiki-srf06-cc26xx.a(rpl-dag.o)
uip_ds6_addr_size                                 contiki-srf06-cc26xx.a(uip-ds6.o)
uip_ds6_compute_reachable_time                    contiki-srf06-cc26xx.a(uip-ds6.o)
uip_ds6_defrt_add                                 contiki-srf06-cc26xx.a(uip-ds6-route.o)
                                                  contiki-srf06-cc26xx.a(rpl-dag.o)
uip_ds6_defrt_choose                              contiki-srf06-cc26xx.a(uip-ds6-route.o)
                                                  contiki-srf06-cc26xx.a(tcpip.o)
uip_ds6_defrt_head                                contiki-srf06-cc26xx.a(uip-ds6-route.o)
uip_ds6_defrt_lookup                              contiki-srf06-cc26xx.a(uip-ds6-route.o)
uip_ds6_defrt_periodic                            contiki-srf06-cc26xx.a(uip-ds6-route.o)
                                                  contiki-srf06-cc26xx.a(uip-ds6.o)
uip_ds6_defrt_rm                                  contiki-srf06-cc26xx.a(uip-ds6-route.o)
                                                  contiki-srf06-cc26xx.a(rpl-dag.o)
uip_ds6_get_addr_number                           contiki-srf06-cc26xx.a(uip-ds6.o)
uip_ds6_get_global                                contiki-srf06-cc26xx.a(uip-ds6.o)
uip_ds6_get_link_local                            contiki-srf06-cc26xx.a(uip-ds6.o)
                                                  contiki-srf06-cc26xx.a(rpl-timers.o)
uip_ds6_if                                        contiki-srf06-cc26xx.a(uip-ds6.o)
                                                  contiki-srf06-cc26xx.a(rpl-icmp6.o)
                                                  contiki-srf06-cc26xx.a(rpl-ext-header.)
                                                  contiki-srf06-cc26xx.a(uip-icmp6.o)
                                                  contiki-srf06-cc26xx.a(uip6.o)
                                                  udp-server.co
uip_ds6_init                                      contiki-srf06-cc26xx.a(uip-ds6.o)
                                                  contiki-srf06-cc26xx.a(uip6.o)
uip_ds6_is_addr_onlink                            contiki-srf06-cc26xx.a(uip-ds6.o)
                                                  contiki-srf06-cc26xx.a(tcpip.o)
                                                  contiki-srf06-cc26xx.a(uip6.o)
uip_ds6_link_neighbor_callback                    contiki-srf06-cc26xx.a(uip-ds6-nbr.o)
                                                  contiki-srf06-cc26xx.a(sicslowpan.o)
uip_ds6_list_loop                                 contiki-srf06-cc26xx.a(uip-ds6.o)
uip_ds6_maddr_add                                 contiki-srf06-cc26xx.a(uip-ds6.o)
                                                  contiki-srf06-cc26xx.a(rpl.o)
uip_ds6_maddr_lookup                              contiki-srf06-cc26xx.a(uip-ds6.o)
                                                  contiki-srf06-cc26xx.a(uip6.o)
uip_ds6_maddr_rm                                  contiki-srf06-cc26xx.a(uip-ds6.o)
uip_ds6_nbr_add                                   contiki-srf06-cc26xx.a(uip-ds6-nbr.o)
                                                  contiki-srf06-cc26xx.a(rpl-icmp6.o)
                                                  contiki-srf06-cc26xx.a(uip-nd6.o)
                                                  udp-server.co
uip_ds6_nbr_get_ipaddr                            contiki-srf06-cc26xx.a(uip-ds6-nbr.o)
uip_ds6_nbr_get_ll                                contiki-srf06-cc26xx.a(uip-ds6-nbr.o)
                                                  contiki-srf06-cc26xx.a(rpl-dag.o)
                                                  contiki-srf06-cc26xx.a(tcpip.o)
                                                  contiki-srf06-cc26xx.a(uip-nd6.o)
                                                  udp-server.co
uip_ds6_nbr_ipaddr_from_lladdr                    contiki-srf06-cc26xx.a(uip-ds6-nbr.o)
                                                  contiki-srf06-cc26xx.a(rpl-dag.o)
                                                  contiki-srf06-cc26xx.a(uip-ds6-route.o)
uip_ds6_nbr_ll_lookup                             contiki-srf06-cc26xx.a(uip-ds6-nbr.o)
uip_ds6_nbr_lladdr_from_ipaddr                    contiki-srf06-cc26xx.a(uip-ds6-nbr.o)
                                                  contiki-srf06-cc26xx.a(rpl-dag.o)
                                                  contiki-srf06-cc26xx.a(uip-ds6-route.o)
uip_ds6_nbr_lookup                                contiki-srf06-cc26xx.a(uip-ds6-nbr.o)
                                                  contiki-srf06-cc26xx.a(rpl-icmp6.o)
                                                  contiki-srf06-cc26xx.a(rpl-dag.o)
                                                  contiki-srf06-cc26xx.a(tcpip.o)
                                                  contiki-srf06-cc26xx.a(uip-nd6.o)
                                                  contiki-srf06-cc26xx.a(uip-ds6-route.o)
                                                  udp-server.co
uip_ds6_nbr_num                                   contiki-srf06-cc26xx.a(uip-ds6-nbr.o)
                                                  contiki-srf06-cc26xx.a(rpl-dag.o)
uip_ds6_nbr_rm                                    contiki-srf06-cc26xx.a(uip-ds6-nbr.o)
uip_ds6_nbr_update_lladdr                         contiki-srf06-cc26xx.a(uip-ds6-nbr.o)
                                                  contiki-srf06-cc26xx.a(uip-nd6.o)
uip_ds6_neighbors_init                            contiki-srf06-cc26xx.a(uip-ds6-nbr.o)
                                                  contiki-srf06-cc26xx.a(uip-ds6.o)
uip_ds6_netif_addr_list_offset                    contiki-srf06-cc26xx.a(uip-ds6.o)
uip_ds6_notification_add                          contiki-srf06-cc26xx.a(uip-ds6-route.o)
uip_ds6_notification_rm                           contiki-srf06-cc26xx.a(uip-ds6-route.o)
uip_ds6_periodic                                  contiki-srf06-cc26xx.a(uip-ds6.o)
                                                  contiki-srf06-cc26xx.a(tcpip.o)
uip_ds6_prefix_add                                contiki-srf06-cc26xx.a(uip-ds6.o)
uip_ds6_prefix_list                               contiki-srf06-cc26xx.a(uip-ds6.o)
uip_ds6_prefix_lookup                             contiki-srf06-cc26xx.a(uip-ds6.o)
uip_ds6_prefix_rm                                 contiki-srf06-cc26xx.a(uip-ds6.o)
uip_ds6_route_add                                 contiki-srf06-cc26xx.a(uip-ds6-route.o)
                                                  contiki-srf06-cc26xx.a(rpl.o)
uip_ds6_route_head                                contiki-srf06-cc26xx.a(uip-ds6-route.o)
                                                  contiki-srf06-cc26xx.a(rpl-icmp6.o)
                                                  contiki-srf06-cc26xx.a(rpl.o)
                                                  udp-server.co
uip_ds6_route_init                                contiki-srf06-cc26xx.a(uip-ds6-route.o)
                                                  contiki-srf06-cc26xx.a(uip-ds6.o)
uip_ds6_route_is_nexthop                          contiki-srf06-cc26xx.a(uip-ds6-route.o)
                                                  contiki-srf06-cc26xx.a(rpl-nbr-policy.)
                                                  contiki-srf06-cc26xx.a(rpl-dag.o)
uip_ds6_route_lookup                              contiki-srf06-cc26xx.a(uip-ds6-route.o)
                                                  contiki-srf06-cc26xx.a(rpl-icmp6.o)
                                                  contiki-srf06-cc26xx.a(rpl-ext-header.)
                                                  contiki-srf06-cc26xx.a(rpl.o)
                                                  contiki-srf06-cc26xx.a(tcpip.o)
uip_ds6_route_next                                contiki-srf06-cc26xx.a(uip-ds6-route.o)
                                                  contiki-srf06-cc26xx.a(rpl-icmp6.o)
                                                  contiki-srf06-cc26xx.a(rpl.o)
                                                  udp-server.co
uip_ds6_route_nexthop                             contiki-srf06-cc26xx.a(uip-ds6-route.o)
                                                  contiki-srf06-cc26xx.a(rpl-icmp6.o)
                                                  contiki-srf06-cc26xx.a(rpl.o)
                                                  contiki-srf06-cc26xx.a(tcpip.o)
uip_ds6_route_num_routes                          contiki-srf06-cc26xx.a(uip-ds6-route.o)
uip_ds6_route_rm                                  contiki-srf06-cc26xx.a(uip-ds6-route.o)
                                                  contiki-srf06-cc26xx.a(rpl-icmp6.o)
                                                  contiki-srf06-cc26xx.a(rpl-ext-header.)
                                                  contiki-srf06-cc26xx.a(rpl.o)
                                                  contiki-srf06-cc26xx.a(tcpip.o)
uip_ds6_route_rm_by_nexthop                       contiki-srf06-cc26xx.a(uip-ds6-route.o)
uip_ds6_select_src                                contiki-srf06-cc26xx.a(uip-ds6.o)
                                                  contiki-srf06-cc26xx.a(uip-icmp6.o)
                                                  contiki-srf06-cc26xx.a(uip6.o)
uip_ds6_set_addr_iid                              contiki-srf06-cc26xx.a(uip-ds6.o)
                                                  contiki-srf06-cc26xx.a(rpl-dag.o)
                                                  contiki-srf06-cc26xx.a(rpl.o)
                                                  contiki-srf06-cc26xx.a(sicslowpan.o)
                                                  udp-server.co
uip_ds6_timer_periodic                            contiki-srf06-cc26xx.a(uip-ds6.o)
                                                  contiki-srf06-cc26xx.a(tcpip.o)
uip_ds6_timer_ra                                  contiki-srf06-cc26xx.a(uip-ds6.o)
uip_ext_bitmap                                    contiki-srf06-cc26xx.a(uip6.o)
uip_ext_len                                       contiki-srf06-cc26xx.a(uip6.o)
                                                  contiki-srf06-cc26xx.a(rpl-icmp6.o)
                                                  contiki-srf06-cc26xx.a(rpl-ext-header.)
                                                  contiki-srf06-cc26xx.a(tcpip.o)
                                                  contiki-srf06-cc26xx.a(uip-nd6.o)
                                                  contiki-srf06-cc26xx.a(uip-icmp6.o)
uip_ext_opt_offset                                contiki-srf06-cc26xx.a(uip6.o)
uip_flags                                         contiki-srf06-cc26xx.a(uip6.o)
                                                  contiki-srf06-cc26xx.a(tcpip.o)
                                                  udp-server.co
uip_htonl                                         contiki-srf06-cc26xx.a(uip6.o)
                                                  contiki-srf06-cc26xx.a(uip-icmp6.o)
uip_htons                                         contiki-srf06-cc26xx.a(uip6.o)
uip_icmp6_conns                                   contiki-srf06-cc26xx.a(uip6.o)
                                                  contiki-srf06-cc26xx.a(tcpip.o)
uip_icmp6_echo_reply_callback_add                 contiki-srf06-cc26xx.a(uip-icmp6.o)
uip_icmp6_echo_reply_callback_rm                  contiki-srf06-cc26xx.a(uip-icmp6.o)
uip_icmp6_error_output                            contiki-srf06-cc26xx.a(uip-icmp6.o)
                                                  contiki-srf06-cc26xx.a(uip6.o)
uip_icmp6_init                                    contiki-srf06-cc26xx.a(uip-icmp6.o)
                                                  contiki-srf06-cc26xx.a(uip6.o)
uip_icmp6_input                                   contiki-srf06-cc26xx.a(uip-icmp6.o)
                                                  contiki-srf06-cc26xx.a(uip6.o)
uip_icmp6_register_input_handler                  contiki-srf06-cc26xx.a(uip-icmp6.o)
                                                  contiki-srf06-cc26xx.a(rpl-icmp6.o)
                                                  contiki-srf06-cc26xx.a(uip-nd6.o)
uip_icmp6_send                                    contiki-srf06-cc26xx.a(uip-icmp6.o)
                                                  contiki-srf06-cc26xx.a(rpl-icmp6.o)
uip_icmp6chksum                                   contiki-srf06-cc26xx.a(uip6.o)
                                                  contiki-srf06-cc26xx.a(uip-nd6.o)
                                                  contiki-srf06-cc26xx.a(uip-icmp6.o)
uip_init                                          contiki-srf06-cc26xx.a(uip6.o)
                                                  contiki-srf06-cc26xx.a(tcpip.o)
uip_ipchksum                                      contiki-srf06-cc26xx.a(uip6.o)
uip_len                                           contiki-srf06-cc26xx.a(uip6.o)
                                                  contiki-srf06-cc26xx.a(rpl-icmp6.o)
                                                  contiki-srf06-cc26xx.a(rpl-ext-header.)
                                                  contiki-srf06-cc26xx.a(tcpip.o)
                                                  contiki-srf06-cc26xx.a(uip-nd6.o)
                                                  contiki-srf06-cc26xx.a(uip-icmp6.o)
                                                  contiki-srf06-cc26xx.a(sicslowpan.o)
                                                  udp-server.co
uip_listen                                        contiki-srf06-cc26xx.a(uip6.o)
                                                  contiki-srf06-cc26xx.a(tcpip.o)
uip_listenports                                   contiki-srf06-cc26xx.a(uip6.o)
uip_lladdr                                        contiki-srf06-cc26xx.a(uip6.o)
                                                  contiki-srf06-cc26xx.a(rpl-dag.o)
                                                  contiki-srf06-cc26xx.a(uip-nd6.o)
                                                  contiki-srf06-cc26xx.a(uip-ds6.o)
                                                  contiki-srf06-cc26xx.a(sicslowpan.o)
                                                  contiki-srf06-cc26xx.a(contiki-main.o)
                                                  udp-server.co
uip_nd6_init                                      contiki-srf06-cc26xx.a(uip-nd6.o)
                                                  contiki-srf06-cc26xx.a(uip6.o)
uip_next_hdr                                      contiki-srf06-cc26xx.a(uip6.o)
uip_process                                       contiki-srf06-cc26xx.a(uip6.o)
                                                  contiki-srf06-cc26xx.a(uip-udp-packet.)
                                                  contiki-srf06-cc26xx.a(tcpip.o)
uip_sappdata                                      contiki-srf06-cc26xx.a(uip6.o)
uip_send                                          contiki-srf06-cc26xx.a(uip6.o)
uip_slen                                          contiki-srf06-cc26xx.a(uip6.o)
                                                  contiki-srf06-cc26xx.a(uip-udp-packet.)
uip_tcpchksum                                     contiki-srf06-cc26xx.a(uip6.o)
uip_udp_conn                                      contiki-srf06-cc26xx.a(uip6.o)
                                                  contiki-srf06-cc26xx.a(uip-udp-packet.)
                                                  contiki-srf06-cc26xx.a(tcpip.o)
uip_udp_conns                                     contiki-srf06-cc26xx.a(uip6.o)
                                                  contiki-srf06-cc26xx.a(tcpip.o)
uip_udp_new                                       contiki-srf06-cc26xx.a(uip6.o)
                                                  contiki-srf06-cc26xx.a(tcpip.o)
uip_udp_packet_send                               contiki-srf06-cc26xx.a(uip-udp-packet.)
uip_udp_packet_sendto                             contiki-srf06-cc26xx.a(uip-udp-packet.)
                                                  udp-server.co
uip_udpchksum                                     contiki-srf06-cc26xx.a(uip6.o)
uip_unlisten                                      contiki-srf06-cc26xx.a(uip6.o)
                                                  contiki-srf06-cc26xx.a(tcpip.o)
unc_ctxconf                                       contiki-srf06-cc26xx.a(sicslowpan.o)
unc_llconf                                        contiki-srf06-cc26xx.a(sicslowpan.o)
unc_mxconf                                        contiki-srf06-cc26xx.a(sicslowpan.o)
watchdog_init                                     contiki-srf06-cc26xx.a(contiki-watchdo)
                                                  contiki-srf06-cc26xx.a(contiki-main.o)
watchdog_periodic                                 contiki-srf06-cc26xx.a(contiki-watchdo)
                                                  contiki-srf06-cc26xx.a(sicslowpan.o)
                                                  contiki-srf06-cc26xx.a(rf-core.o)
                                                  contiki-srf06-cc26xx.a(lpm.o)
                                                  contiki-srf06-cc26xx.a(prop-mode.o)
                                                  contiki-srf06-cc26xx.a(contiki-main.o)
watchdog_reboot                                   contiki-srf06-cc26xx.a(contiki-watchdo)
watchdog_start                                    contiki-srf06-cc26xx.a(contiki-watchdo)
                                                  contiki-srf06-cc26xx.a(contiki-main.o)
watchdog_stop                                     contiki-srf06-cc26xx.a(contiki-watchdo)
