Archive member included to satisfy reference by file (symbol)

contiki-native.a(cmd.o)       (--whole-archive)
contiki-native.a(packetutils.o)
                              (--whole-archive)
contiki-native.a(httpd.o)     (--whole-archive)
contiki-native.a(httpd-cgi.o)
                              (--whole-archive)
contiki-native.a(httpd-urlconv.o)
                              (--whole-archive)
contiki-native.a(webserver.o)
                              (--whole-archive)
contiki-native.a(webserver-utils)
                              (--whole-archive)
contiki-native.a(webserver-main.)
                              (--whole-archive)
contiki-native.a(webserver-netwo)
                              (--whole-archive)
contiki-native.a(webserver-confi)
                              (--whole-archive)
contiki-native.a(webserver-stati)
                              (--whole-archive)
contiki-native.a(webserver-admin)
                              (--whole-archive)
contiki-native.a(webserver-log.o)
                              (--whole-archive)
contiki-native.a(webserver-rpl.o)
                              (--whole-archive)
contiki-native.a(webserver-file.)
                              (--whole-archive)
contiki-native.a(webserver-senso)
                              (--whole-archive)
contiki-native.a(webserver-senso)
                              (--whole-archive)
contiki-native.a(webserver-node-)
                              (--whole-archive)
contiki-native.a(udp-server.o)
                              (--whole-archive)
contiki-native.a(node-config.o)
                              (--whole-archive)
contiki-native.a(node-config-ip6)
                              (--whole-archive)
contiki-native.a(node-config-fil)
                              (--whole-archive)
contiki-native.a(node-info.o)
                              (--whole-archive)
contiki-native.a(node-info-expor)
                              (--whole-archive)
contiki-native.a(webserver-node-)
                              (--whole-archive)
contiki-native.a(dns-proxy.o)
                              (--whole-archive)
contiki-native.a(er-coap.o)   (--whole-archive)
contiki-native.a(er-coap-engine.)
                              (--whole-archive)
contiki-native.a(er-coap-transac)
                              (--whole-archive)
contiki-native.a(er-coap-observe)
                              (--whole-archive)
contiki-native.a(er-coap-separat)
                              (--whole-archive)
contiki-native.a(er-coap-res-wel)
                              (--whole-archive)
contiki-native.a(er-coap-block1.)
                              (--whole-archive)
contiki-native.a(er-coap-observe)
                              (--whole-archive)
contiki-native.a(er-coap-udp.o)
                              (--whole-archive)
contiki-native.a(rest-engine.o)
                              (--whole-archive)
contiki-native.a(coap-server.o)
                              (--whole-archive)
contiki-native.a(block-transfer.)
                              (--whole-archive)
contiki-native.a(coap-common.o)
                              (--whole-archive)
contiki-native.a(coap-push.o)
                              (--whole-archive)
contiki-native.a(core-interface.)
                              (--whole-archive)
contiki-native.a(coap-binding.o)
                              (--whole-archive)
contiki-native.a(coap-linked-bat)
                              (--whole-archive)
contiki-native.a(rd-client.o)
                              (--whole-archive)
contiki-native.a(rest-type-text.)
                              (--whole-archive)
contiki-native.a(rest-type-json.)
                              (--whole-archive)
contiki-native.a(rest-type-senml)
                              (--whole-archive)
contiki-native.a(rest-type-xml.o)
                              (--whole-archive)
contiki-native.a(ctk-conio.o)
                              (--whole-archive)
contiki-native.a(contiki-main.o)
                              (--whole-archive)
contiki-native.a(clock.o)     (--whole-archive)
contiki-native.a(leds.o)      (--whole-archive)
contiki-native.a(leds-arch.o)
                              (--whole-archive)
contiki-native.a(button-sensor.o)
                              (--whole-archive)
contiki-native.a(pir-sensor.o)
                              (--whole-archive)
contiki-native.a(vib-sensor.o)
                              (--whole-archive)
contiki-native.a(xmem.o)      (--whole-archive)
contiki-native.a(sensors.o)   (--whole-archive)
contiki-native.a(irq.o)       (--whole-archive)
contiki-native.a(cfs-posix.o)
                              (--whole-archive)
contiki-native.a(cfs-posix-dir.o)
                              (--whole-archive)
contiki-native.a(ctk-curses.o)
                              (--whole-archive)
contiki-native.a(tapdev-drv.o)
                              (--whole-archive)
contiki-native.a(linuxradio-drv.)
                              (--whole-archive)
contiki-native.a(tapdev6.o)   (--whole-archive)
contiki-native.a(mtarch.o)    (--whole-archive)
contiki-native.a(rtimer-arch.o)
                              (--whole-archive)
contiki-native.a(elfloader-stub.)
                              (--whole-archive)
contiki-native.a(watchdog.o)  (--whole-archive)
contiki-native.a(eeprom.o)    (--whole-archive)
contiki-native.a(noncoresec.o)
                              (--whole-archive)
contiki-native.a(akes.o)      (--whole-archive)
contiki-native.a(akes-delete.o)
                              (--whole-archive)
contiki-native.a(coresec-strateg)
                              (--whole-archive)
contiki-native.a(akes-trickle.o)
                              (--whole-archive)
contiki-native.a(noncoresec-stra)
                              (--whole-archive)
contiki-native.a(akes-single.o)
                              (--whole-archive)
contiki-native.a(adaptivesec.o)
                              (--whole-archive)
contiki-native.a(akes-nbr.o)  (--whole-archive)
contiki-native.a(ip64-dns64.o)
                              (--whole-archive)
contiki-native.a(ip64-arp.o)  (--whole-archive)
contiki-native.a(ip64-addrmap.o)
                              (--whole-archive)
contiki-native.a(ip64-ipv4-dhcp.)
                              (--whole-archive)
contiki-native.a(ip64-null-drive)
                              (--whole-archive)
contiki-native.a(ip64-eth-interf)
                              (--whole-archive)
contiki-native.a(ip64.o)      (--whole-archive)
contiki-native.a(ip64-special-po)
                              (--whole-archive)
contiki-native.a(ip64-slip-inter)
                              (--whole-archive)
contiki-native.a(ip64-dhcpc.o)
                              (--whole-archive)
contiki-native.a(ip64-eth.o)  (--whole-archive)
contiki-native.a(autostart.o)
                              (--whole-archive)
contiki-native.a(stimer.o)    (--whole-archive)
contiki-native.a(energest.o)  (--whole-archive)
contiki-native.a(arg.o)       (--whole-archive)
contiki-native.a(ctimer.o)    (--whole-archive)
contiki-native.a(etimer.o)    (--whole-archive)
contiki-native.a(compower.o)  (--whole-archive)
contiki-native.a(process.o)   (--whole-archive)
contiki-native.a(rtimer.o)    (--whole-archive)
contiki-native.a(mt.o)        (--whole-archive)
contiki-native.a(procinit.o)  (--whole-archive)
contiki-native.a(timer.o)     (--whole-archive)
contiki-native.a(serial-line.o)
                              (--whole-archive)
contiki-native.a(slip.o)      (--whole-archive)
contiki-native.a(nullradio.o)
                              (--whole-archive)
contiki-native.a(me_tabs.o)   (--whole-archive)
contiki-native.a(settings.o)  (--whole-archive)
contiki-native.a(crc16.o)     (--whole-archive)
contiki-native.a(mmem.o)      (--whole-archive)
contiki-native.a(iq-seeder.o)
                              (--whole-archive)
contiki-native.a(ccm-star.o)  (--whole-archive)
contiki-native.a(ifft.o)      (--whole-archive)
contiki-native.a(null-seeder.o)
                              (--whole-archive)
contiki-native.a(ringbufindex.o)
                              (--whole-archive)
contiki-native.a(list.o)      (--whole-archive)
contiki-native.a(gcr.o)       (--whole-archive)
contiki-native.a(aes-128.o)   (--whole-archive)
contiki-native.a(trickle-timer.o)
                              (--whole-archive)
contiki-native.a(memb.o)      (--whole-archive)
contiki-native.a(me.o)        (--whole-archive)
contiki-native.a(print-stats.o)
                              (--whole-archive)
contiki-native.a(csprng.o)    (--whole-archive)
contiki-native.a(petsciiconv.o)
                              (--whole-archive)
contiki-native.a(random.o)    (--whole-archive)
contiki-native.a(assert.o)    (--whole-archive)
contiki-native.a(ringbuf.o)   (--whole-archive)
contiki-native.a(websocket.o)
                              (--whole-archive)
contiki-native.a(uip-icmp6.o)
                              (--whole-archive)
contiki-native.a(uip-ds6.o)   (--whole-archive)
contiki-native.a(uip-ds6-route.o)
                              (--whole-archive)
contiki-native.a(uip6.o)      (--whole-archive)
contiki-native.a(uip-ds6-nbr.o)
                              (--whole-archive)
contiki-native.a(uip-nd6.o)   (--whole-archive)
contiki-native.a(websocket-http-)
                              (--whole-archive)
contiki-native.a(sicslowpan.o)
                              (--whole-archive)
contiki-native.a(slipdev.o)   (--whole-archive)
contiki-native.a(uip-debug.o)
                              (--whole-archive)
contiki-native.a(uip-packetqueue)
                              (--whole-archive)
contiki-native.a(tcp-socket.o)
                              (--whole-archive)
contiki-native.a(ip64-addr.o)
                              (--whole-archive)
contiki-native.a(uip-udp-packet.)
                              (--whole-archive)
contiki-native.a(psock.o)     (--whole-archive)
contiki-native.a(dhcpc.o)     (--whole-archive)
contiki-native.a(tcpip.o)     (--whole-archive)
contiki-native.a(resolv.o)    (--whole-archive)
contiki-native.a(uip-nameserver.)
                              (--whole-archive)
contiki-native.a(uip-split.o)
                              (--whole-archive)
contiki-native.a(udp-socket.o)
                              (--whole-archive)
contiki-native.a(simple-udp.o)
                              (--whole-archive)
contiki-native.a(uiplib.o)    (--whole-archive)
contiki-native.a(rpl-nbr-policy.)
                              (--whole-archive)
contiki-native.a(rpl-of0.o)   (--whole-archive)
contiki-native.a(rpl-dag.o)   (--whole-archive)
contiki-native.a(rpl-timers.o)
                              (--whole-archive)
contiki-native.a(rpl-ext-header.)
                              (--whole-archive)
contiki-native.a(rpl.o)       (--whole-archive)
contiki-native.a(rpl-mrhof.o)
                              (--whole-archive)
contiki-native.a(rpl-ns.o)    (--whole-archive)
contiki-native.a(rpl-icmp6.o)
                              (--whole-archive)
contiki-native.a(rpl-dag-root.o)
                              (--whole-archive)
contiki-native.a(queuebuf.o)  (--whole-archive)
contiki-native.a(cmd-broker.o)
                              (--whole-archive)
contiki-native.a(nbr-table.o)
                              (--whole-archive)
contiki-native.a(packetbuf.o)
                              (--whole-archive)
contiki-native.a(netstack.o)  (--whole-archive)
contiki-native.a(linkaddr.o)  (--whole-archive)
contiki-native.a(net-debug.o)
                              (--whole-archive)
contiki-native.a(link-stats.o)
                              (--whole-archive)
contiki-native.a(nullmac.o)   (--whole-archive)
contiki-native.a(nullrdc-noframe)
                              (--whole-archive)
contiki-native.a(frame802154e-ie)
                              (--whole-archive)
contiki-native.a(mac-sequence.o)
                              (--whole-archive)
contiki-native.a(nordc.o)     (--whole-archive)
contiki-native.a(csma.o)      (--whole-archive)
contiki-native.a(frame802154.o)
                              (--whole-archive)
contiki-native.a(framer-nullmac.)
                              (--whole-archive)
contiki-native.a(mac.o)       (--whole-archive)
contiki-native.a(framer-802154.o)
                              (--whole-archive)
contiki-native.a(phase.o)     (--whole-archive)
contiki-native.a(nullrdc.o)   (--whole-archive)
contiki-native.a(ctk-textentry-c)
                              (--whole-archive)
contiki-native.a(ctk-filedialog.)
                              (--whole-archive)
contiki-native.a(ctk-textentry-c)
                              (--whole-archive)
contiki-native.a(ctk-textentry-m)
                              (--whole-archive)
contiki-native.a(ctk.o)       (--whole-archive)
contiki-native.a(nullsec.o)   (--whole-archive)
contiki-native.a(anti-replay.o)
                              (--whole-archive)
contiki-native.a(ccm-star-packet)
                              (--whole-archive)
contiki-native.a(symbols.o)   (--whole-archive)
/usr/lib/x86_64-linux-gnu/libpthread_nonshared.a(pthread_atfork.oS)
                              (--whole-archive)
/usr/lib/x86_64-linux-gnu/libc_nonshared.a(elf-init.oS)
                              /usr/lib/gcc/x86_64-linux-gnu/5/../../../x86_64-linux-gnu/crt1.o (__libc_csu_init)
/usr/lib/x86_64-linux-gnu/libc_nonshared.a(atexit.oS)
                              obj_native/raw-tap-dev.o (atexit)
/usr/lib/x86_64-linux-gnu/libc_nonshared.a(fstat.oS)
                              contiki-native.a(webserver-log.o) (fstat)

As-needed library included to satisfy reference by file (symbol)

libdl.so.2                    obj_native/plugin.o (dlsym@@GLIBC_2.2.5)
libncurses.so.5               contiki-native.a(ctk-curses.o) (getmouse@@NCURSES_5.0.19991023)
libtinfo.so.5                 contiki-native.a(ctk-curses.o) (acs_map@@NCURSES_TINFO_5.0.19991023)
librt.so.1                    obj_native/raw-tap-dev.o (clock_gettime@@GLIBC_2.2.5)
libpthread.so.0               obj_native/native-nvm.o (write@@GLIBC_2.2.5)

Allocating common symbols
Common symbol       size              file

default_instance    0x8               contiki-native.a(rpl-dag.o)
rpl_stats           0x14              contiki-native.a(rpl.o)
nvm_data            0xfc              obj_native/nvm-config.o
ctk_signal_menu_activate
                    0x1               contiki-native.a(ctk.o)
native_rdc_parse_error
                    0x4               obj_native/native-rdc.o
raw_buf             0x8e              obj_native/sicslow-ethernet.o
uip_ds6_prefix_list
                    0x60              contiki-native.a(uip-ds6.o)
eth_ip64_gateway    0x4               cetic-6lbr.co
compower_idle_activity
                    0x8               contiki-native.a(compower.o)
node_info_table     0x7d00            contiki-native.a(node-info.o)
webserver_result_text
                    0x8               contiki-native.a(webserver-utils)
linkaddr_node_addr  0x8               contiki-native.a(linkaddr.o)
periodic_timer      0x40              contiki-native.a(link-stats.o)
ip64_eth_addr       0x6               contiki-native.a(ip64-eth.o)
uip_slen            0x2               contiki-native.a(uip6.o)
cetic_6lbr_reload_event
                    0x1               cetic-6lbr.co
ctk_signal_widget_activate
                    0x1               contiki-native.a(ctk.o)
csma_dropped        0x4               contiki-native.a(csma.o)
uip_ds6_timer_periodic
                    0x20              contiki-native.a(uip-ds6.o)
uip_acc32           0x4               contiki-native.a(uip6.o)
eth_net_prefix      0x10              cetic-6lbr.co
csma_sent_packets   0x4               contiki-native.a(csma.o)
uip_conns           0x8c0             contiki-native.a(uip6.o)
command_context     0x1               obj_native/slip-cmds.o
uip_icmp6_conns     0x10              contiki-native.a(uip6.o)
packet_filter_wsn_packet
                    0x4               obj_native/packet-forwarding-engine.o
mouse_x             0x2               contiki-native.a(ctk.o)
prefixBuffer        0x60              obj_native/sicslow-ethernet.o
uip_ds6_netif_addr_list_offset
                    0x1               contiki-native.a(uip-ds6.o)
packet_filter_eth_packet
                    0x4               obj_native/packet-forwarding-engine.o
csma_received_packets
                    0x4               contiki-native.a(csma.o)
uip_lladdr          0x8               contiki-native.a(uip6.o)
uip_hostaddr        0x10              contiki-native.a(ip64-ipv4-dhcp.)
ctk_signal_screensaver_stop
                    0x1               contiki-native.a(ctk.o)
instance_table      0x280             contiki-native.a(rpl-dag.o)
noncoresec_nonauthentic
                    0x4               contiki-native.a(noncoresec.o)
native_rdc_ack_timeout
                    0x4               obj_native/native-rdc.o
if_idx              0x28              obj_native/raw-tap-dev.o
serial_line_event_message
                    0x1               contiki-native.a(serial-line.o)
uip_appdata         0x8               contiki-native.a(uip6.o)
ctk_signal_pointer_move
                    0x1               contiki-native.a(ctk.o)
webserver_result_title
                    0x8               contiki-native.a(webserver-utils)
resolv_event_found  0x1               contiki-native.a(resolv.o)
ip64_packet_buffer_aligned
                    0x510             contiki-native.a(ip64.o)
cetic_6lbr_restart_type
                    0x4               cetic-6lbr.co
csma_noack          0x4               contiki-native.a(csma.o)
eth_mac64_addr      0x8               cetic-6lbr.co
uip_ds6_if          0x250             contiki-native.a(uip-ds6.o)
uip_flags           0x1               contiki-native.a(uip6.o)
uip_ds6_timer_ra    0x10              contiki-native.a(uip-ds6.o)
tcpip_icmp6_event   0x1               contiki-native.a(tcpip.o)
blen                0x4               contiki-native.a(webserver-utils)
ctk_signal_window_close
                    0x1               contiki-native.a(ctk.o)
avail_memory        0x4               contiki-native.a(mmem.o)
noncoresec_reboot   0x4               contiki-native.a(noncoresec.o)
wsn_net_prefix      0x10              cetic-6lbr.co
ctk_signal_button_hover
                    0x1               contiki-native.a(ctk.o)
adaptivesec_group_key
                    0x10              contiki-native.a(adaptivesec.o)
ctk_signal_widget_select
                    0x1               contiki-native.a(ctk.o)
mouse_button        0x2               contiki-native.a(ctk.o)
noncoresec_replayed
                    0x4               contiki-native.a(noncoresec.o)
packetbuf_attrs     0x26              contiki-native.a(packetbuf.o)
ctk_signal_hyperlink_activate
                    0x1               contiki-native.a(ctk.o)
neighbor_overflow   0x4               contiki-native.a(csma.o)
uip_ds6_addr_size   0x1               contiki-native.a(uip-ds6.o)
wsn_ip_local_addr   0x10              cetic-6lbr.co
webserver_result_refresh
                    0x4               contiki-native.a(webserver-utils)
uip_aligned_buf     0x510             contiki-native.a(uip6.o)
wsn_ip_addr         0x10              cetic-6lbr.co
uip_all_zeroes_addr
                    0x10              contiki-native.a(ip64-arp.o)
contiki_argv        0x8               contiki-native.a(contiki-main.o)
buf                 0x200             contiki-native.a(webserver-utils)
eth_ip_local_addr   0x10              cetic-6lbr.co
ctk_signal_keypress
                    0x1               contiki-native.a(ctk.o)
callback_count      0x4               obj_native/native-rdc.o
packet_overflow     0x4               contiki-native.a(csma.o)
ctk_signal_hyperlink_hover
                    0x1               contiki-native.a(ctk.o)
uip_listenports     0x50              contiki-native.a(uip6.o)
uip_len             0x2               contiki-native.a(uip6.o)
noncoresec_invalid_level
                    0x4               contiki-native.a(noncoresec.o)
slip_active         0x1               contiki-native.a(slip.o)
cetic_dag           0x8               cetic-6lbr.co
uip_ds6_route_info_list
                    0x18              obj_native/rio.o
mouse_y             0x2               contiki-native.a(ctk.o)
cetic_6lbr_restart_event
                    0x1               cetic-6lbr.co
tcpip_event         0x1               contiki-native.a(tcpip.o)
eth_ip64_addr       0x4               cetic-6lbr.co
uip_sappdata        0x8               contiki-native.a(uip6.o)
sensors_event       0x1               contiki-native.a(sensors.o)
uip_udp_conns       0x1e0             contiki-native.a(uip6.o)
cetic_6lbr_startup  0x8               cetic-6lbr.co
eth_ip64_netmask    0x4               cetic-6lbr.co
eth_ip_addr         0x10              cetic-6lbr.co
addr_contexts       0x14              contiki-native.a(sicslowpan.o)
slip_default_device
                    0x8               obj_native/slip-dev.o
packetbuf_addrs     0x10              contiki-native.a(packetbuf.o)
csma_retransmissions
                    0x4               contiki-native.a(csma.o)
uip_udp_conn        0x8               contiki-native.a(uip6.o)
csma_collisions     0x4               contiki-native.a(csma.o)
ctk_signal_screensaver_start
                    0x1               contiki-native.a(ctk.o)
sensors_flags       0x4               contiki-native.a(contiki-main.o)
eth_mac_addr        0x6               cetic-6lbr.co
csma_deferred       0x4               contiki-native.a(csma.o)
ctk_signal_button_activate
                    0x1               contiki-native.a(ctk.o)
uip_next_hdr        0x8               contiki-native.a(uip6.o)
ctk_signal_pointer_button
                    0x1               contiki-native.a(ctk.o)
wsn_mac_addr        0x8               cetic-6lbr.co
uip_conn            0x8               contiki-native.a(uip6.o)
eth_dft_router      0x10              cetic-6lbr.co
uip_stat            0x7c              contiki-native.a(uip6.o)
wsn_net_prefix_len  0x1               cetic-6lbr.co

Discarded input sections

 .note.GNU-stack
                0x0000000000000000        0x0 /usr/lib/gcc/x86_64-linux-gnu/5/../../../x86_64-linux-gnu/crt1.o
 .note.GNU-stack
                0x0000000000000000        0x0 /usr/lib/gcc/x86_64-linux-gnu/5/../../../x86_64-linux-gnu/crti.o
 .note.GNU-stack
                0x0000000000000000        0x0 /usr/lib/gcc/x86_64-linux-gnu/5/crtbegin.o
 .note.GNU-stack
                0x0000000000000000        0x0 cetic-6lbr.co
 .note.GNU-stack
                0x0000000000000000        0x0 obj_native/native-init.o
 .note.GNU-stack
                0x0000000000000000        0x0 obj_native/native-nvm.o
 .note.GNU-stack
                0x0000000000000000        0x0 obj_native/native-config.o
 .note.GNU-stack
                0x0000000000000000        0x0 obj_native/native-config-file.o
 .note.GNU-stack
                0x0000000000000000        0x0 obj_native/native-config-handlers.o
 .note.GNU-stack
                0x0000000000000000        0x0 obj_native/raw-tap-eth-drv.o
 .note.GNU-stack
                0x0000000000000000        0x0 obj_native/raw-tap-dev.o
 .note.GNU-stack
                0x0000000000000000        0x0 obj_native/native-rdc.o
 .note.GNU-stack
                0x0000000000000000        0x0 obj_native/slip-cmds.o
 .note.GNU-stack
                0x0000000000000000        0x0 obj_native/native-args.o
 .note.GNU-stack
                0x0000000000000000        0x0 obj_native/slip-dev.o
 .note.GNU-stack
                0x0000000000000000        0x0 obj_native/6lbr-watchdog.o
 .note.GNU-stack
                0x0000000000000000        0x0 obj_native/plugin.o
 .note.GNU-stack
                0x0000000000000000        0x0 obj_native/lost-symbols.o
 .note.GNU-stack
                0x0000000000000000        0x0 obj_native/ini.o
 .note.GNU-stack
                0x0000000000000000        0x0 obj_native/log-6lbr.o
 .note.GNU-stack
                0x0000000000000000        0x0 obj_native/rio.o
 .note.GNU-stack
                0x0000000000000000        0x0 obj_native/packet-forwarding-engine.o
 .note.GNU-stack
                0x0000000000000000        0x0 obj_native/sicslow-ethernet.o
 .note.GNU-stack
                0x0000000000000000        0x0 obj_native/nvm-config.o
 .note.GNU-stack
                0x0000000000000000        0x0 obj_native/mac-wrapper.o
 .note.GNU-stack
                0x0000000000000000        0x0 obj_native/switch-lookup.o
 .note.GNU-stack
                0x0000000000000000        0x0 obj_native/network-itf.o
 .note.GNU-stack
                0x0000000000000000        0x0 obj_native/multi-radio.o
 .note.GNU-stack
                0x0000000000000000        0x0 obj_native/llsec-wrapper.o
 .note.GNU-stack
                0x0000000000000000        0x0 obj_native/framer-wrapper.o
 .note.GNU-stack
                0x0000000000000000        0x0 obj_native/strategy-wrapper.o
 .note.GNU-stack
                0x0000000000000000        0x0 obj_native/ip64-eth-driver.o
 .note.GNU-stack
                0x0000000000000000        0x0 contiki-native.a(cmd.o)
 .note.GNU-stack
                0x0000000000000000        0x0 contiki-native.a(packetutils.o)
 .note.GNU-stack
                0x0000000000000000        0x0 contiki-native.a(httpd.o)
 .note.GNU-stack
                0x0000000000000000        0x0 contiki-native.a(httpd-cgi.o)
 .note.GNU-stack
                0x0000000000000000        0x0 contiki-native.a(httpd-urlconv.o)
 .note.GNU-stack
                0x0000000000000000        0x0 contiki-native.a(webserver.o)
 .note.GNU-stack
                0x0000000000000000        0x0 contiki-native.a(webserver-utils)
 .note.GNU-stack
                0x0000000000000000        0x0 contiki-native.a(webserver-main.)
 .note.GNU-stack
                0x0000000000000000        0x0 contiki-native.a(webserver-netwo)
 .note.GNU-stack
                0x0000000000000000        0x0 contiki-native.a(webserver-confi)
 .note.GNU-stack
                0x0000000000000000        0x0 contiki-native.a(webserver-stati)
 .note.GNU-stack
                0x0000000000000000        0x0 contiki-native.a(webserver-admin)
 .note.GNU-stack
                0x0000000000000000        0x0 contiki-native.a(webserver-log.o)
 .note.GNU-stack
                0x0000000000000000        0x0 contiki-native.a(webserver-rpl.o)
 .note.GNU-stack
                0x0000000000000000        0x0 contiki-native.a(webserver-file.)
 .note.GNU-stack
                0x0000000000000000        0x0 contiki-native.a(webserver-senso)
 .note.GNU-stack
                0x0000000000000000        0x0 contiki-native.a(webserver-senso)
 .note.GNU-stack
                0x0000000000000000        0x0 contiki-native.a(webserver-node-)
 .note.GNU-stack
                0x0000000000000000        0x0 contiki-native.a(udp-server.o)
 .note.GNU-stack
                0x0000000000000000        0x0 contiki-native.a(node-config.o)
 .note.GNU-stack
                0x0000000000000000        0x0 contiki-native.a(node-config-ip6)
 .note.GNU-stack
                0x0000000000000000        0x0 contiki-native.a(node-config-fil)
 .note.GNU-stack
                0x0000000000000000        0x0 contiki-native.a(node-info.o)
 .note.GNU-stack
                0x0000000000000000        0x0 contiki-native.a(node-info-expor)
 .note.GNU-stack
                0x0000000000000000        0x0 contiki-native.a(webserver-node-)
 .note.GNU-stack
                0x0000000000000000        0x0 contiki-native.a(dns-proxy.o)
 .note.GNU-stack
                0x0000000000000000        0x0 contiki-native.a(er-coap.o)
 .note.GNU-stack
                0x0000000000000000        0x0 contiki-native.a(er-coap-engine.)
 .note.GNU-stack
                0x0000000000000000        0x0 contiki-native.a(er-coap-transac)
 .note.GNU-stack
                0x0000000000000000        0x0 contiki-native.a(er-coap-observe)
 .note.GNU-stack
                0x0000000000000000        0x0 contiki-native.a(er-coap-separat)
 .note.GNU-stack
                0x0000000000000000        0x0 contiki-native.a(er-coap-res-wel)
 .note.GNU-stack
                0x0000000000000000        0x0 contiki-native.a(er-coap-block1.)
 .note.GNU-stack
                0x0000000000000000        0x0 contiki-native.a(er-coap-observe)
 .note.GNU-stack
                0x0000000000000000        0x0 contiki-native.a(er-coap-udp.o)
 .note.GNU-stack
                0x0000000000000000        0x0 contiki-native.a(rest-engine.o)
 .note.GNU-stack
                0x0000000000000000        0x0 contiki-native.a(coap-server.o)
 .note.GNU-stack
                0x0000000000000000        0x0 contiki-native.a(block-transfer.)
 .note.GNU-stack
                0x0000000000000000        0x0 contiki-native.a(coap-common.o)
 .note.GNU-stack
                0x0000000000000000        0x0 contiki-native.a(coap-push.o)
 .note.GNU-stack
                0x0000000000000000        0x0 contiki-native.a(core-interface.)
 .note.GNU-stack
                0x0000000000000000        0x0 contiki-native.a(coap-binding.o)
 .note.GNU-stack
                0x0000000000000000        0x0 contiki-native.a(coap-linked-bat)
 .note.GNU-stack
                0x0000000000000000        0x0 contiki-native.a(rd-client.o)
 .note.GNU-stack
                0x0000000000000000        0x0 contiki-native.a(rest-type-text.)
 .note.GNU-stack
                0x0000000000000000        0x0 contiki-native.a(rest-type-json.)
 .note.GNU-stack
                0x0000000000000000        0x0 contiki-native.a(rest-type-senml)
 .note.GNU-stack
                0x0000000000000000        0x0 contiki-native.a(rest-type-xml.o)
 .note.GNU-stack
                0x0000000000000000        0x0 contiki-native.a(ctk-conio.o)
 .note.GNU-stack
                0x0000000000000000        0x0 contiki-native.a(contiki-main.o)
 .note.GNU-stack
                0x0000000000000000        0x0 contiki-native.a(clock.o)
 .note.GNU-stack
                0x0000000000000000        0x0 contiki-native.a(leds.o)
 .note.GNU-stack
                0x0000000000000000        0x0 contiki-native.a(leds-arch.o)
 .note.GNU-stack
                0x0000000000000000        0x0 contiki-native.a(button-sensor.o)
 .note.GNU-stack
                0x0000000000000000        0x0 contiki-native.a(pir-sensor.o)
 .note.GNU-stack
                0x0000000000000000        0x0 contiki-native.a(vib-sensor.o)
 .note.GNU-stack
                0x0000000000000000        0x0 contiki-native.a(xmem.o)
 .note.GNU-stack
                0x0000000000000000        0x0 contiki-native.a(sensors.o)
 .note.GNU-stack
                0x0000000000000000        0x0 contiki-native.a(irq.o)
 .note.GNU-stack
                0x0000000000000000        0x0 contiki-native.a(cfs-posix.o)
 .note.GNU-stack
                0x0000000000000000        0x0 contiki-native.a(cfs-posix-dir.o)
 .note.GNU-stack
                0x0000000000000000        0x0 contiki-native.a(ctk-curses.o)
 .note.GNU-stack
                0x0000000000000000        0x0 contiki-native.a(tapdev-drv.o)
 .note.GNU-stack
                0x0000000000000000        0x0 contiki-native.a(linuxradio-drv.)
 .note.GNU-stack
                0x0000000000000000        0x0 contiki-native.a(tapdev6.o)
 .note.GNU-stack
                0x0000000000000000        0x0 contiki-native.a(mtarch.o)
 .note.GNU-stack
                0x0000000000000000        0x0 contiki-native.a(rtimer-arch.o)
 .note.GNU-stack
                0x0000000000000000        0x0 contiki-native.a(elfloader-stub.)
 .note.GNU-stack
                0x0000000000000000        0x0 contiki-native.a(watchdog.o)
 .note.GNU-stack
                0x0000000000000000        0x0 contiki-native.a(eeprom.o)
 .note.GNU-stack
                0x0000000000000000        0x0 contiki-native.a(noncoresec.o)
 .note.GNU-stack
                0x0000000000000000        0x0 contiki-native.a(akes.o)
 .note.GNU-stack
                0x0000000000000000        0x0 contiki-native.a(akes-delete.o)
 .note.GNU-stack
                0x0000000000000000        0x0 contiki-native.a(coresec-strateg)
 .note.GNU-stack
                0x0000000000000000        0x0 contiki-native.a(akes-trickle.o)
 .note.GNU-stack
                0x0000000000000000        0x0 contiki-native.a(noncoresec-stra)
 .note.GNU-stack
                0x0000000000000000        0x0 contiki-native.a(akes-single.o)
 .note.GNU-stack
                0x0000000000000000        0x0 contiki-native.a(adaptivesec.o)
 .note.GNU-stack
                0x0000000000000000        0x0 contiki-native.a(akes-nbr.o)
 .note.GNU-stack
                0x0000000000000000        0x0 contiki-native.a(ip64-dns64.o)
 .note.GNU-stack
                0x0000000000000000        0x0 contiki-native.a(ip64-arp.o)
 .note.GNU-stack
                0x0000000000000000        0x0 contiki-native.a(ip64-addrmap.o)
 .note.GNU-stack
                0x0000000000000000        0x0 contiki-native.a(ip64-ipv4-dhcp.)
 .note.GNU-stack
                0x0000000000000000        0x0 contiki-native.a(ip64-null-drive)
 .note.GNU-stack
                0x0000000000000000        0x0 contiki-native.a(ip64-eth-interf)
 .note.GNU-stack
                0x0000000000000000        0x0 contiki-native.a(ip64.o)
 .note.GNU-stack
                0x0000000000000000        0x0 contiki-native.a(ip64-special-po)
 .note.GNU-stack
                0x0000000000000000        0x0 contiki-native.a(ip64-slip-inter)
 .note.GNU-stack
                0x0000000000000000        0x0 contiki-native.a(ip64-dhcpc.o)
 .note.GNU-stack
                0x0000000000000000        0x0 contiki-native.a(ip64-eth.o)
 .note.GNU-stack
                0x0000000000000000        0x0 contiki-native.a(autostart.o)
 .note.GNU-stack
                0x0000000000000000        0x0 contiki-native.a(stimer.o)
 .note.GNU-stack
                0x0000000000000000        0x0 contiki-native.a(energest.o)
 .note.GNU-stack
                0x0000000000000000        0x0 contiki-native.a(arg.o)
 .note.GNU-stack
                0x0000000000000000        0x0 contiki-native.a(ctimer.o)
 .note.GNU-stack
                0x0000000000000000        0x0 contiki-native.a(etimer.o)
 .note.GNU-stack
                0x0000000000000000        0x0 contiki-native.a(compower.o)
 .note.GNU-stack
                0x0000000000000000        0x0 contiki-native.a(process.o)
 .note.GNU-stack
                0x0000000000000000        0x0 contiki-native.a(rtimer.o)
 .note.GNU-stack
                0x0000000000000000        0x0 contiki-native.a(mt.o)
 .note.GNU-stack
                0x0000000000000000        0x0 contiki-native.a(procinit.o)
 .note.GNU-stack
                0x0000000000000000        0x0 contiki-native.a(timer.o)
 .note.GNU-stack
                0x0000000000000000        0x0 contiki-native.a(serial-line.o)
 .note.GNU-stack
                0x0000000000000000        0x0 contiki-native.a(slip.o)
 .note.GNU-stack
                0x0000000000000000        0x0 contiki-native.a(nullradio.o)
 .note.GNU-stack
                0x0000000000000000        0x0 contiki-native.a(me_tabs.o)
 .note.GNU-stack
                0x0000000000000000        0x0 contiki-native.a(settings.o)
 .note.GNU-stack
                0x0000000000000000        0x0 contiki-native.a(crc16.o)
 .note.GNU-stack
                0x0000000000000000        0x0 contiki-native.a(mmem.o)
 .note.GNU-stack
                0x0000000000000000        0x0 contiki-native.a(iq-seeder.o)
 .note.GNU-stack
                0x0000000000000000        0x0 contiki-native.a(ccm-star.o)
 .note.GNU-stack
                0x0000000000000000        0x0 contiki-native.a(ifft.o)
 .note.GNU-stack
                0x0000000000000000        0x0 contiki-native.a(null-seeder.o)
 .note.GNU-stack
                0x0000000000000000        0x0 contiki-native.a(ringbufindex.o)
 .note.GNU-stack
                0x0000000000000000        0x0 contiki-native.a(list.o)
 .note.GNU-stack
                0x0000000000000000        0x0 contiki-native.a(gcr.o)
 .note.GNU-stack
                0x0000000000000000        0x0 contiki-native.a(aes-128.o)
 .note.GNU-stack
                0x0000000000000000        0x0 contiki-native.a(trickle-timer.o)
 .note.GNU-stack
                0x0000000000000000        0x0 contiki-native.a(memb.o)
 .note.GNU-stack
                0x0000000000000000        0x0 contiki-native.a(me.o)
 .note.GNU-stack
                0x0000000000000000        0x0 contiki-native.a(print-stats.o)
 .note.GNU-stack
                0x0000000000000000        0x0 contiki-native.a(csprng.o)
 .note.GNU-stack
                0x0000000000000000        0x0 contiki-native.a(petsciiconv.o)
 .note.GNU-stack
                0x0000000000000000        0x0 contiki-native.a(random.o)
 .note.GNU-stack
                0x0000000000000000        0x0 contiki-native.a(assert.o)
 .note.GNU-stack
                0x0000000000000000        0x0 contiki-native.a(ringbuf.o)
 .note.GNU-stack
                0x0000000000000000        0x0 contiki-native.a(websocket.o)
 .note.GNU-stack
                0x0000000000000000        0x0 contiki-native.a(uip-icmp6.o)
 .note.GNU-stack
                0x0000000000000000        0x0 contiki-native.a(uip-ds6.o)
 .note.GNU-stack
                0x0000000000000000        0x0 contiki-native.a(uip-ds6-route.o)
 .note.GNU-stack
                0x0000000000000000        0x0 contiki-native.a(uip6.o)
 .note.GNU-stack
                0x0000000000000000        0x0 contiki-native.a(uip-ds6-nbr.o)
 .note.GNU-stack
                0x0000000000000000        0x0 contiki-native.a(uip-nd6.o)
 .note.GNU-stack
                0x0000000000000000        0x0 contiki-native.a(websocket-http-)
 .note.GNU-stack
                0x0000000000000000        0x0 contiki-native.a(sicslowpan.o)
 .note.GNU-stack
                0x0000000000000000        0x0 contiki-native.a(slipdev.o)
 .note.GNU-stack
                0x0000000000000000        0x0 contiki-native.a(uip-debug.o)
 .note.GNU-stack
                0x0000000000000000        0x0 contiki-native.a(uip-packetqueue)
 .note.GNU-stack
                0x0000000000000000        0x0 contiki-native.a(tcp-socket.o)
 .note.GNU-stack
                0x0000000000000000        0x0 contiki-native.a(ip64-addr.o)
 .note.GNU-stack
                0x0000000000000000        0x0 contiki-native.a(uip-udp-packet.)
 .note.GNU-stack
                0x0000000000000000        0x0 contiki-native.a(psock.o)
 .note.GNU-stack
                0x0000000000000000        0x0 contiki-native.a(dhcpc.o)
 .note.GNU-stack
                0x0000000000000000        0x0 contiki-native.a(tcpip.o)
 .note.GNU-stack
                0x0000000000000000        0x0 contiki-native.a(resolv.o)
 .note.GNU-stack
                0x0000000000000000        0x0 contiki-native.a(uip-nameserver.)
 .note.GNU-stack
                0x0000000000000000        0x0 contiki-native.a(uip-split.o)
 .note.GNU-stack
                0x0000000000000000        0x0 contiki-native.a(udp-socket.o)
 .note.GNU-stack
                0x0000000000000000        0x0 contiki-native.a(simple-udp.o)
 .note.GNU-stack
                0x0000000000000000        0x0 contiki-native.a(uiplib.o)
 .note.GNU-stack
                0x0000000000000000        0x0 contiki-native.a(rpl-nbr-policy.)
 .note.GNU-stack
                0x0000000000000000        0x0 contiki-native.a(rpl-of0.o)
 .note.GNU-stack
                0x0000000000000000        0x0 contiki-native.a(rpl-dag.o)
 .note.GNU-stack
                0x0000000000000000        0x0 contiki-native.a(rpl-timers.o)
 .note.GNU-stack
                0x0000000000000000        0x0 contiki-native.a(rpl-ext-header.)
 .note.GNU-stack
                0x0000000000000000        0x0 contiki-native.a(rpl.o)
 .note.GNU-stack
                0x0000000000000000        0x0 contiki-native.a(rpl-mrhof.o)
 .note.GNU-stack
                0x0000000000000000        0x0 contiki-native.a(rpl-ns.o)
 .note.GNU-stack
                0x0000000000000000        0x0 contiki-native.a(rpl-icmp6.o)
 .note.GNU-stack
                0x0000000000000000        0x0 contiki-native.a(rpl-dag-root.o)
 .note.GNU-stack
                0x0000000000000000        0x0 contiki-native.a(queuebuf.o)
 .note.GNU-stack
                0x0000000000000000        0x0 contiki-native.a(cmd-broker.o)
 .note.GNU-stack
                0x0000000000000000        0x0 contiki-native.a(nbr-table.o)
 .note.GNU-stack
                0x0000000000000000        0x0 contiki-native.a(packetbuf.o)
 .note.GNU-stack
                0x0000000000000000        0x0 contiki-native.a(netstack.o)
 .note.GNU-stack
                0x0000000000000000        0x0 contiki-native.a(linkaddr.o)
 .note.GNU-stack
                0x0000000000000000        0x0 contiki-native.a(net-debug.o)
 .note.GNU-stack
                0x0000000000000000        0x0 contiki-native.a(link-stats.o)
 .note.GNU-stack
                0x0000000000000000        0x0 contiki-native.a(nullmac.o)
 .note.GNU-stack
                0x0000000000000000        0x0 contiki-native.a(nullrdc-noframe)
 .note.GNU-stack
                0x0000000000000000        0x0 contiki-native.a(frame802154e-ie)
 .note.GNU-stack
                0x0000000000000000        0x0 contiki-native.a(mac-sequence.o)
 .note.GNU-stack
                0x0000000000000000        0x0 contiki-native.a(nordc.o)
 .note.GNU-stack
                0x0000000000000000        0x0 contiki-native.a(csma.o)
 .note.GNU-stack
                0x0000000000000000        0x0 contiki-native.a(frame802154.o)
 .note.GNU-stack
                0x0000000000000000        0x0 contiki-native.a(framer-nullmac.)
 .note.GNU-stack
                0x0000000000000000        0x0 contiki-native.a(mac.o)
 .note.GNU-stack
                0x0000000000000000        0x0 contiki-native.a(framer-802154.o)
 .note.GNU-stack
                0x0000000000000000        0x0 contiki-native.a(phase.o)
 .note.GNU-stack
                0x0000000000000000        0x0 contiki-native.a(nullrdc.o)
 .note.GNU-stack
                0x0000000000000000        0x0 contiki-native.a(ctk-textentry-c)
 .note.GNU-stack
                0x0000000000000000        0x0 contiki-native.a(ctk-filedialog.)
 .note.GNU-stack
                0x0000000000000000        0x0 contiki-native.a(ctk-textentry-c)
 .note.GNU-stack
                0x0000000000000000        0x0 contiki-native.a(ctk-textentry-m)
 .note.GNU-stack
                0x0000000000000000        0x0 contiki-native.a(ctk.o)
 .note.GNU-stack
                0x0000000000000000        0x0 contiki-native.a(nullsec.o)
 .note.GNU-stack
                0x0000000000000000        0x0 contiki-native.a(anti-replay.o)
 .note.GNU-stack
                0x0000000000000000        0x0 contiki-native.a(ccm-star-packet)
 .note.GNU-stack
                0x0000000000000000        0x0 contiki-native.a(symbols.o)
 .note.GNU-stack
                0x0000000000000000        0x0 /usr/lib/x86_64-linux-gnu/libpthread_nonshared.a(pthread_atfork.oS)
 .note.GNU-stack
                0x0000000000000000        0x0 /usr/lib/x86_64-linux-gnu/libc_nonshared.a(elf-init.oS)
 .note.GNU-stack
                0x0000000000000000        0x0 /usr/lib/x86_64-linux-gnu/libc_nonshared.a(atexit.oS)
 .note.GNU-stack
                0x0000000000000000        0x0 /usr/lib/x86_64-linux-gnu/libc_nonshared.a(fstat.oS)
 .note.GNU-stack
                0x0000000000000000        0x0 /usr/lib/gcc/x86_64-linux-gnu/5/crtend.o
 .note.GNU-stack
                0x0000000000000000        0x0 /usr/lib/gcc/x86_64-linux-gnu/5/../../../x86_64-linux-gnu/crtn.o

Memory Configuration

Name             Origin             Length             Attributes
*default*        0x0000000000000000 0xffffffffffffffff

Linker script and memory map

LOAD /usr/lib/gcc/x86_64-linux-gnu/5/../../../x86_64-linux-gnu/crt1.o
LOAD /usr/lib/gcc/x86_64-linux-gnu/5/../../../x86_64-linux-gnu/crti.o
LOAD /usr/lib/gcc/x86_64-linux-gnu/5/crtbegin.o
LOAD cetic-6lbr.co
LOAD obj_native/native-init.o
LOAD obj_native/native-nvm.o
LOAD obj_native/native-config.o
LOAD obj_native/native-config-file.o
LOAD obj_native/native-config-handlers.o
LOAD obj_native/raw-tap-eth-drv.o
LOAD obj_native/raw-tap-dev.o
LOAD obj_native/native-rdc.o
LOAD obj_native/slip-cmds.o
LOAD obj_native/native-args.o
LOAD obj_native/slip-dev.o
LOAD obj_native/6lbr-watchdog.o
LOAD obj_native/plugin.o
LOAD obj_native/lost-symbols.o
LOAD obj_native/ini.o
LOAD obj_native/log-6lbr.o
LOAD obj_native/rio.o
LOAD obj_native/packet-forwarding-engine.o
LOAD obj_native/sicslow-ethernet.o
LOAD obj_native/nvm-config.o
LOAD obj_native/mac-wrapper.o
LOAD obj_native/switch-lookup.o
LOAD obj_native/network-itf.o
LOAD obj_native/multi-radio.o
LOAD obj_native/llsec-wrapper.o
LOAD obj_native/framer-wrapper.o
LOAD obj_native/strategy-wrapper.o
LOAD obj_native/ip64-eth-driver.o
LOAD contiki-native.a
LOAD /usr/lib/gcc/x86_64-linux-gnu/5/../../../x86_64-linux-gnu/libdl.so
LOAD /usr/lib/gcc/x86_64-linux-gnu/5/../../../x86_64-linux-gnu/libncurses.so
LOAD /lib/x86_64-linux-gnu/libncurses.so.5
LOAD /usr/lib/gcc/x86_64-linux-gnu/5/../../../x86_64-linux-gnu/libtinfo.so
LOAD /usr/lib/gcc/x86_64-linux-gnu/5/../../../x86_64-linux-gnu/libtinfo.so
LOAD /usr/lib/gcc/x86_64-linux-gnu/5/../../../x86_64-linux-gnu/librt.so
LOAD /usr/lib/gcc/x86_64-linux-gnu/5/../../../x86_64-linux-gnu/libpthread.so
START GROUP
LOAD /lib/x86_64-linux-gnu/libpthread.so.0
LOAD /usr/lib/x86_64-linux-gnu/libpthread_nonshared.a
END GROUP
LOAD /usr/lib/gcc/x86_64-linux-gnu/5/libgcc.a
LOAD /usr/lib/gcc/x86_64-linux-gnu/5/libgcc_s.so
LOAD /usr/lib/gcc/x86_64-linux-gnu/5/../../../x86_64-linux-gnu/libc.so
START GROUP
LOAD /lib/x86_64-linux-gnu/libc.so.6
LOAD /usr/lib/x86_64-linux-gnu/libc_nonshared.a
LOAD /lib/x86_64-linux-gnu/ld-linux-x86-64.so.2
END GROUP
LOAD /usr/lib/gcc/x86_64-linux-gnu/5/libgcc.a
LOAD /usr/lib/gcc/x86_64-linux-gnu/5/libgcc_s.so
LOAD /usr/lib/gcc/x86_64-linux-gnu/5/crtend.o
LOAD /usr/lib/gcc/x86_64-linux-gnu/5/../../../x86_64-linux-gnu/crtn.o
                [!provide]                        PROVIDE (__executable_start, 0x400000)
                0x0000000000400238                . = (0x400000 + SIZEOF_HEADERS)

.interp         0x0000000000400238       0x1c
 *(.interp)
 .interp        0x0000000000400238       0x1c /usr/lib/gcc/x86_64-linux-gnu/5/../../../x86_64-linux-gnu/crt1.o

.note.ABI-tag   0x0000000000400254       0x20
 .note.ABI-tag  0x0000000000400254       0x20 /usr/lib/gcc/x86_64-linux-gnu/5/../../../x86_64-linux-gnu/crt1.o

.note.gnu.build-id
                0x0000000000400274       0x24
 *(.note.gnu.build-id)
 .note.gnu.build-id
                0x0000000000400274       0x24 /usr/lib/gcc/x86_64-linux-gnu/5/../../../x86_64-linux-gnu/crt1.o

.hash
 *(.hash)

.gnu.hash       0x0000000000400298     0x28d0
 *(.gnu.hash)
 .gnu.hash      0x0000000000400298     0x28d0 /usr/lib/gcc/x86_64-linux-gnu/5/../../../x86_64-linux-gnu/crt1.o

.dynsym         0x0000000000402b68     0x8928
 *(.dynsym)
 .dynsym        0x0000000000402b68     0x8928 /usr/lib/gcc/x86_64-linux-gnu/5/../../../x86_64-linux-gnu/crt1.o

.dynstr         0x000000000040b490     0x6524
 *(.dynstr)
 .dynstr        0x000000000040b490     0x6524 /usr/lib/gcc/x86_64-linux-gnu/5/../../../x86_64-linux-gnu/crt1.o

.gnu.version    0x00000000004119b4      0xb6e
 *(.gnu.version)
 .gnu.version   0x00000000004119b4      0xb6e /usr/lib/gcc/x86_64-linux-gnu/5/../../../x86_64-linux-gnu/crt1.o

.gnu.version_d  0x0000000000412528        0x0
 *(.gnu.version_d)
 .gnu.version_d
                0x0000000000412528        0x0 /usr/lib/gcc/x86_64-linux-gnu/5/../../../x86_64-linux-gnu/crt1.o

.gnu.version_r  0x0000000000412528      0x110
 *(.gnu.version_r)
 .gnu.version_r
                0x0000000000412528      0x110 /usr/lib/gcc/x86_64-linux-gnu/5/../../../x86_64-linux-gnu/crt1.o

.rela.dyn       0x0000000000412638       0xc0
 *(.rela.init)
 *(.rela.text .rela.text.* .rela.gnu.linkonce.t.*)
 .rela.text     0x0000000000412638        0x0 /usr/lib/gcc/x86_64-linux-gnu/5/../../../x86_64-linux-gnu/crt1.o
 *(.rela.fini)
 *(.rela.rodata .rela.rodata.* .rela.gnu.linkonce.r.*)
 *(.rela.data .rela.data.* .rela.gnu.linkonce.d.*)
 .rela.data.rel
                0x0000000000412638        0x0 /usr/lib/gcc/x86_64-linux-gnu/5/../../../x86_64-linux-gnu/crt1.o
 .rela.data.rel.ro
                0x0000000000412638        0x0 /usr/lib/gcc/x86_64-linux-gnu/5/../../../x86_64-linux-gnu/crt1.o
 *(.rela.tdata .rela.tdata.* .rela.gnu.linkonce.td.*)
 *(.rela.tbss .rela.tbss.* .rela.gnu.linkonce.tb.*)
 *(.rela.ctors)
 *(.rela.dtors)
 *(.rela.got)
 .rela.got      0x0000000000412638       0xc0 /usr/lib/gcc/x86_64-linux-gnu/5/../../../x86_64-linux-gnu/crt1.o
 *(.rela.bss .rela.bss.* .rela.gnu.linkonce.b.*)
 .rela.bss      0x00000000004126f8        0x0 /usr/lib/gcc/x86_64-linux-gnu/5/../../../x86_64-linux-gnu/crt1.o
 *(.rela.ldata .rela.ldata.* .rela.gnu.linkonce.l.*)
 *(.rela.lbss .rela.lbss.* .rela.gnu.linkonce.lb.*)
 *(.rela.lrodata .rela.lrodata.* .rela.gnu.linkonce.lr.*)
 *(.rela.ifunc)

.rela.plt       0x00000000004126f8      0xc30
 *(.rela.plt)
 .rela.plt      0x00000000004126f8      0xc30 /usr/lib/gcc/x86_64-linux-gnu/5/../../../x86_64-linux-gnu/crt1.o
                [!provide]                        PROVIDE (__rela_iplt_start, .)
 *(.rela.iplt)
 .rela.iplt     0x0000000000413328        0x0 /usr/lib/gcc/x86_64-linux-gnu/5/../../../x86_64-linux-gnu/crt1.o
                [!provide]                        PROVIDE (__rela_iplt_end, .)

.init           0x0000000000413328       0x1a
 *(SORT(.init))
 .init          0x0000000000413328       0x15 /usr/lib/gcc/x86_64-linux-gnu/5/../../../x86_64-linux-gnu/crti.o
                0x0000000000413328                _init
 .init          0x000000000041333d        0x5 /usr/lib/gcc/x86_64-linux-gnu/5/../../../x86_64-linux-gnu/crtn.o

.plt            0x0000000000413350      0x830
 *(.plt)
 .plt           0x0000000000413350      0x830 /usr/lib/gcc/x86_64-linux-gnu/5/../../../x86_64-linux-gnu/crt1.o
                0x0000000000413360                inet_ntop@@GLIBC_2.2.5
                0x0000000000413370                getenv@@GLIBC_2.2.5
                0x0000000000413380                free@@GLIBC_2.2.5
                0x0000000000413390                putchar@@GLIBC_2.2.5
                0x00000000004133a0                strcasecmp@@GLIBC_2.2.5
                0x00000000004133b0                abort@@GLIBC_2.2.5
                0x00000000004133c0                __errno_location@@GLIBC_2.2.5
                0x00000000004133d0                strncpy@@GLIBC_2.2.5
                0x00000000004133e0                remove@@GLIBC_2.2.5
                0x00000000004133f0                strncmp@@GLIBC_2.2.5
                0x0000000000413400                localtime_r@@GLIBC_2.2.5
                0x0000000000413410                strcpy@@GLIBC_2.2.5
                0x0000000000413420                mkdir@@GLIBC_2.2.5
                0x0000000000413430                puts@@GLIBC_2.2.5
                0x0000000000413440                wclear@@NCURSES_5.0.19991023
                0x0000000000413450                sigaction@@GLIBC_2.2.5
                0x0000000000413460                fread@@GLIBC_2.2.5
                0x0000000000413470                vsnprintf@@GLIBC_2.2.5
                0x0000000000413480                setsockopt@@GLIBC_2.2.5
                0x0000000000413490                wtimeout@@NCURSES_TINFO_5.0.19991023
                0x00000000004134a0                fcntl@@GLIBC_2.2.5
                0x00000000004134b0                write@@GLIBC_2.2.5
                0x00000000004134c0                fclose@@GLIBC_2.2.5
                0x00000000004134d0                opendir@@GLIBC_2.2.5
                0x00000000004134e0                cfsetospeed@@GLIBC_2.2.5
                0x00000000004134f0                curs_set@@NCURSES_TINFO_5.0.19991023
                0x0000000000413500                wrefresh@@NCURSES_5.0.19991023
                0x0000000000413510                strlen@@GLIBC_2.2.5
                0x0000000000413520                initscr@@NCURSES_5.0.19991023
                0x0000000000413530                intrflush@@NCURSES_TINFO_5.0.19991023
                0x0000000000413540                __stack_chk_fail@@GLIBC_2.4
                0x0000000000413550                system@@GLIBC_2.2.5
                0x0000000000413560                htons@@GLIBC_2.2.5
                0x0000000000413570                send@@GLIBC_2.2.5
                0x0000000000413580                tcflush@@GLIBC_2.2.5
                0x0000000000413590                strchr@@GLIBC_2.2.5
                0x00000000004135a0                printf@@GLIBC_2.2.5
                0x00000000004135b0                swapcontext@@GLIBC_2.2.5
                0x00000000004135c0                snprintf@@GLIBC_2.2.5
                0x00000000004135d0                getmouse@@NCURSES_5.0.19991023
                0x00000000004135e0                gai_strerror@@GLIBC_2.2.5
                0x00000000004135f0                lseek@@GLIBC_2.2.5
                0x0000000000413600                gettimeofday@@GLIBC_2.2.5
                0x0000000000413610                waddnstr@@NCURSES_5.0.19991023
                0x0000000000413620                memset@@GLIBC_2.2.5
                0x0000000000413630                freopen@@GLIBC_2.2.5
                0x0000000000413640                noecho@@NCURSES_5.0.19991023
                0x0000000000413650                ioctl@@GLIBC_2.2.5
                0x0000000000413660                index@@GLIBC_2.2.5
                0x0000000000413670                strncat@@GLIBC_2.2.5
                0x0000000000413680                close@@GLIBC_2.2.5
                0x0000000000413690                closedir@@GLIBC_2.2.5
                0x00000000004136a0                fputc@@GLIBC_2.2.5
                0x00000000004136b0                __register_atfork@@GLIBC_2.3.2
                0x00000000004136c0                memchr@@GLIBC_2.2.5
                0x00000000004136d0                read@@GLIBC_2.2.5
                0x00000000004136e0                __libc_start_main@@GLIBC_2.2.5
                0x00000000004136f0                srand@@GLIBC_2.2.5
                0x0000000000413700                memcmp@@GLIBC_2.2.5
                0x0000000000413710                tmpfile@@GLIBC_2.2.5
                0x0000000000413720                strcmp@@GLIBC_2.2.5
                0x0000000000413730                signal@@GLIBC_2.2.5
                0x0000000000413740                fprintf@@GLIBC_2.2.5
                0x0000000000413750                ftell@@GLIBC_2.2.5
                0x0000000000413760                strtol@@GLIBC_2.2.5
                0x0000000000413770                clearerr@@GLIBC_2.2.5
                0x0000000000413780                memcpy@@GLIBC_2.14
                0x0000000000413790                makecontext@@GLIBC_2.2.5
                0x00000000004137a0                inotify_init@@GLIBC_2.4
                0x00000000004137b0                cbreak@@NCURSES_TINFO_5.0.19991023
                0x00000000004137c0                select@@GLIBC_2.2.5
                0x00000000004137d0                readdir@@GLIBC_2.2.5
                0x00000000004137e0                dlopen@@GLIBC_2.2.5
                0x00000000004137f0                tolower@@GLIBC_2.2.5
                0x0000000000413800                malloc@@GLIBC_2.2.5
                0x0000000000413810                strncasecmp@@GLIBC_2.2.5
                0x0000000000413820                fflush@@GLIBC_2.2.5
                0x0000000000413830                inotify_add_watch@@GLIBC_2.4
                0x0000000000413840                keypad@@NCURSES_TINFO_5.0.19991023
                0x0000000000413850                __isoc99_sscanf@@GLIBC_2.7
                0x0000000000413860                waddch@@NCURSES_5.0.19991023
                0x0000000000413870                ungetc@@GLIBC_2.2.5
                0x0000000000413880                __fxstat@@GLIBC_2.2.5
                0x0000000000413890                wmove@@NCURSES_5.0.19991023
                0x00000000004138a0                clock_gettime@@GLIBC_2.2.5
                0x00000000004138b0                wgetch@@NCURSES_5.0.19991023
                0x00000000004138c0                fseek@@GLIBC_2.2.5
                0x00000000004138d0                endwin@@NCURSES_5.0.19991023
                0x00000000004138e0                fdopen@@GLIBC_2.2.5
                0x00000000004138f0                setitimer@@GLIBC_2.2.5
                0x0000000000413900                cfmakeraw@@GLIBC_2.2.5
                0x0000000000413910                setvbuf@@GLIBC_2.2.5
                0x0000000000413920                bind@@GLIBC_2.2.5
                0x0000000000413930                mousemask@@NCURSES_5.0.19991023
                0x0000000000413940                memmove@@GLIBC_2.2.5
                0x0000000000413950                nonl@@NCURSES_5.0.19991023
                0x0000000000413960                tcgetattr@@GLIBC_2.2.5
                0x0000000000413970                tcsetattr@@GLIBC_2.2.5
                0x0000000000413980                open@@GLIBC_2.2.5
                0x0000000000413990                access@@GLIBC_2.2.5
                0x00000000004139a0                fopen@@GLIBC_2.2.5
                0x00000000004139b0                cfsetispeed@@GLIBC_2.2.5
                0x00000000004139c0                perror@@GLIBC_2.2.5
                0x00000000004139d0                getopt@@GLIBC_2.2.5
                0x00000000004139e0                strtoul@@GLIBC_2.2.5
                0x00000000004139f0                __cxa_atexit@@GLIBC_2.2.5
                0x0000000000413a00                atoi@@GLIBC_2.2.5
                0x0000000000413a10                strcat@@GLIBC_2.2.5
                0x0000000000413a20                gethostname@@GLIBC_2.2.5
                0x0000000000413a30                sprintf@@GLIBC_2.2.5
                0x0000000000413a40                exit@@GLIBC_2.2.5
                0x0000000000413a50                connect@@GLIBC_2.2.5
                0x0000000000413a60                fwrite@@GLIBC_2.2.5
                0x0000000000413a70                getaddrinfo@@GLIBC_2.2.5
                0x0000000000413a80                strdup@@GLIBC_2.2.5
                0x0000000000413a90                strerror@@GLIBC_2.2.5
                0x0000000000413aa0                dlsym@@GLIBC_2.2.5
                0x0000000000413ab0                putp@@NCURSES_TINFO_5.0.19991023
                0x0000000000413ac0                getcontext@@GLIBC_2.2.5
                0x0000000000413ad0                whline@@NCURSES_5.0.19991023
                0x0000000000413ae0                strstr@@GLIBC_2.2.5
                0x0000000000413af0                wvline@@NCURSES_5.0.19991023
                0x0000000000413b00                rand@@GLIBC_2.2.5
                0x0000000000413b10                dlerror@@GLIBC_2.2.5
                0x0000000000413b20                start_color@@NCURSES_5.0.19991023
                0x0000000000413b30                __ctype_b_loc@@GLIBC_2.3
                0x0000000000413b40                usleep@@GLIBC_2.2.5
                0x0000000000413b50                freeaddrinfo@@GLIBC_2.2.5
                0x0000000000413b60                socket@@GLIBC_2.2.5
                0x0000000000413b70                init_pair@@NCURSES_5.0.19991023
 *(.iplt)
 .iplt          0x0000000000413b80        0x0 /usr/lib/gcc/x86_64-linux-gnu/5/../../../x86_64-linux-gnu/crt1.o

.plt.got        0x0000000000413b80        0x8
 *(.plt.got)
 .plt.got       0x0000000000413b80        0x8 /usr/lib/gcc/x86_64-linux-gnu/5/../../../x86_64-linux-gnu/crt1.o

.plt.bnd
 *(.plt.bnd)

.text           0x0000000000413b90    0x5f49f
 *(.text.unlikely .text.*_unlikely .text.unlikely.*)
 .text.unlikely
                0x0000000000413b90        0x0 /usr/lib/gcc/x86_64-linux-gnu/5/crtbegin.o
 .text.unlikely
                0x0000000000413b90        0x0 /usr/lib/x86_64-linux-gnu/libpthread_nonshared.a(pthread_atfork.oS)
 .text.unlikely
                0x0000000000413b90        0x0 /usr/lib/x86_64-linux-gnu/libc_nonshared.a(elf-init.oS)
 .text.unlikely
                0x0000000000413b90        0x0 /usr/lib/x86_64-linux-gnu/libc_nonshared.a(atexit.oS)
 .text.unlikely
                0x0000000000413b90        0x0 /usr/lib/x86_64-linux-gnu/libc_nonshared.a(fstat.oS)
 *(.text.exit .text.exit.*)
 *(.text.startup .text.startup.*)
 *(.text.hot .text.hot.*)
 *(.text .stub .text.* .gnu.linkonce.t.*)
 .text          0x0000000000413b90       0x2a /usr/lib/gcc/x86_64-linux-gnu/5/../../../x86_64-linux-gnu/crt1.o
                0x0000000000413b90                _start
 .text          0x0000000000413bba        0x0 /usr/lib/gcc/x86_64-linux-gnu/5/../../../x86_64-linux-gnu/crti.o
 *fill*         0x0000000000413bba        0x6 
 .text          0x0000000000413bc0       0xc6 /usr/lib/gcc/x86_64-linux-gnu/5/crtbegin.o
 .text          0x0000000000413c86     0x183d cetic-6lbr.co
                0x0000000000413c86                cetic_6lbr_set_prefix
                0x0000000000413c98                cetic_6lbr_ip64_dhcpc_configured
                0x0000000000413d4a                cetic_6lbr_allowed_node_default_hook
                0x0000000000413d60                cetic_6lbr_init
                0x0000000000414408                cetic_6lbr_start_dodag_root
                0x000000000041462e                cetic_6lbr_end_dodag_root
                0x00000000004146c9                is_dodag_available
                0x0000000000414704                is_own_dodag
                0x00000000004149f2                cetic_6lbr_dis_input_default_hook
                0x00000000004149fd                cetic_6lbr_dio_input_default_hook
                0x0000000000414a18                cetic_6lbr_start_delayed_dodag_root
                0x0000000000414b6c                cetic_6lbr_init_finalize
 .text          0x00000000004154c3      0x77f obj_native/native-init.o
                0x00000000004154ef                platform_init
                0x00000000004155fa                platform_finalize
                0x0000000000415606                platform_load_config
                0x0000000000415637                platform_radio_init
                0x0000000000415643                platform_set_wsn_mac
                0x000000000041566a                cetic_6lbr_save_ip
                0x0000000000415904                cetic_6lbr_clear_ip
                0x0000000000415a2a                platform_restart
 .text          0x0000000000415c42      0x377 obj_native/native-nvm.o
                0x0000000000415c42                nvm_data_read
                0x0000000000415e18                nvm_data_write
 .text          0x0000000000415fb9        0x0 obj_native/native-config.o
 .text          0x0000000000415fb9      0x382 obj_native/native-config-file.o
                0x00000000004160b2                native_config_load
                0x00000000004162c2                native_config_add_callback
                0x0000000000416325                native_config_init
 .text          0x000000000041633b      0xe4e obj_native/native-config-handlers.o
                0x0000000000417106                native_config_handlers_init
 .text          0x0000000000417189      0x40c obj_native/raw-tap-eth-drv.o
                0x0000000000417189                eth_drv_send
                0x0000000000417267                eth_drv_input
                0x000000000041739a                eth_drv_exit
                0x00000000004173a1                eth_drv_init
 .text          0x0000000000417595     0x107a obj_native/raw-tap-dev.o
                0x0000000000417fc9                eth_dev_init
                0x00000000004181e8                eth_dev_output
 .text          0x000000000041860f     0x1984 obj_native/native-rdc.o
                0x0000000000418696                packet_sent
                0x0000000000419753                slip_got_mac
                0x000000000041984e                slip_set_mac
                0x0000000000419a04                send_slip_cmd
                0x0000000000419ac2                native_rdc_init
                0x0000000000419af6                native_rdc_reset_slip
                0x0000000000419b0c                slip_error_callback
 .text          0x0000000000419f93      0x55f obj_native/slip-cmds.o
                0x000000000041a32f                border_router_cmd_output
 .text          0x000000000041a4f2      0x7fb obj_native/native-args.o
                0x000000000041a4f2                native_args_handle_arguments
 .text          0x000000000041aced     0x279a obj_native/slip-dev.o
                0x000000000041aced                convert_baud_rate
                0x000000000041b07a                find_slip_dev
                0x000000000041c242                write_to_slip
                0x000000000041cd13                slip_init_dev
                0x000000000041d104                slip_init_all_dev
                0x000000000041d15b                slip_new_device
                0x000000000041d3f2                slip_init
                0x000000000041d430                slip_close
 .text          0x000000000041d487      0x1b1 obj_native/6lbr-watchdog.o
 .text          0x000000000041d638      0x799 obj_native/plugin.o
                0x000000000041d9b2                plugins_load
                0x000000000041dc1b                plugins_init
                0x000000000041dd67                plugins_list_head
                0x000000000041dd7c                plugins_get_plugin_by_name
 .text          0x000000000041ddd1       0x3f obj_native/lost-symbols.o
                0x000000000041ddd1                procinit
                0x000000000041ddd8                slip_arch_writeb
                0x000000000041dddf                dhcpc_configured
                0x000000000041dde6                dhcpc_unconfigured
                0x000000000041dded                slipdev_char_put
                0x000000000041ddf4                slipdev_char_poll
                0x000000000041ddfb                ctk_dialog_new
                0x000000000041de02                ctk_dialog_open
                0x000000000041de09                ctk_dialog_close
 .text          0x000000000041de10      0x66f obj_native/ini.o
                0x000000000041dfa5                ini_parse_stream
                0x000000000041e3e7                ini_parse_file
                0x000000000041e41b                ini_parse
 .text          0x000000000041e47f      0x1a3 obj_native/log-6lbr.o
                0x000000000041e47f                log6lbr_ethaddr_print
                0x000000000041e4f2                log6lbr_timestamp
                0x000000000041e589                log6lbr_dump_packet
 .text          0x000000000041e622      0x51b obj_native/rio.o
                0x000000000041e622                uip_ds6_route_info_add
                0x000000000041e7a5                uip_ds6_route_info_rm
                0x000000000041e7bf                uip_ds6_route_info_lookup
                0x000000000041e812                uip_ds6_route_info_callback
 .text          0x000000000041eb3d     0x1851 obj_native/packet-forwarding-engine.o
                0x000000000041ee22                wireless_output
                0x000000000041f150                eth_input
                0x0000000000420357                packet_filter_init
 .text          0x000000000042038e      0x6e1 obj_native/sicslow-ethernet.o
                0x000000000042038e                mac_translateIPLinkLayer
                0x0000000000420412                mac_translateIcmpLinkLayer
                0x00000000004208bd                mac_createSicslowpanLongAddr
                0x0000000000420938                mac_createEthernetAddr
                0x00000000004209b2                mac_createDefaultEthernetAddr
                0x00000000004209d8                slide
 .text          0x0000000000420a6f      0x726 obj_native/nvm-config.o
                0x0000000000420a6f                check_nvm
                0x000000000042109a                load_nvm_config
                0x0000000000421189                store_nvm_config
 .text          0x0000000000421195      0x286 obj_native/mac-wrapper.o
                0x0000000000421195                mac_wrapper_init
                0x000000000042137d                mac_wrapper_name
 .text          0x000000000042141b      0x187 obj_native/switch-lookup.o
                0x000000000042141b                switch_lookup_learn_addr
                0x000000000042154d                switch_lookup_get_itf_for
 .text          0x00000000004215a2      0x1c7 obj_native/network-itf.o
                0x00000000004215a2                network_itf_init
                0x00000000004215bf                network_itf_register
                0x000000000042165f                network_itf_get_itf
                0x00000000004216a2                network_itf_set_mac
                0x00000000004216e3                network_itf_known_mac
 .text          0x0000000000421769      0x34b obj_native/multi-radio.o
 .text          0x0000000000421ab4      0x29f obj_native/llsec-wrapper.o
                0x0000000000421ab4                llsec_wrapper_init
                0x0000000000421cfa                llsec_wrapper_name
 .text          0x0000000000421d53      0x287 obj_native/framer-wrapper.o
                0x0000000000421d53                framer_wrapper_init
 .text          0x0000000000421fda      0x172 obj_native/strategy-wrapper.o
                0x0000000000421fda                llsec_strategy_wrapper_init
 .text          0x000000000042214c       0x32 obj_native/ip64-eth-driver.o
 .text          0x000000000042217e       0xf2 contiki-native.a(cmd.o)
                0x000000000042217e                cmd_input
                0x000000000042224d                cmd_send
 .text          0x0000000000422270      0x196 contiki-native.a(packetutils.o)
                0x0000000000422270                packetutils_serialize_atts
                0x0000000000422339                packetutils_deserialize_atts
 .text          0x0000000000422406      0xcc4 contiki-native.a(httpd.o)
                0x00000000004230af                httpd_init
 .text          0x00000000004230ca      0x3b2 contiki-native.a(httpd-cgi.o)
                0x00000000004230ca                httpd_group_add
                0x000000000042318f                httpd_group_head
                0x000000000042319c                httpd_group_add_page
                0x0000000000423232                httpd_cgi_add
                0x00000000004232f7                httpd_cgi
                0x000000000042334a                httpd_cgi_head
                0x0000000000423357                httpd_cgi_command_add
                0x000000000042341c                httpd_cgi_command
                0x000000000042346f                httpd_cgi_command_head
 .text          0x000000000042347c      0x14d contiki-native.a(httpd-urlconv.o)
                0x000000000042347c                urlconv_tofilename
 .text          0x00000000004235c9      0x31f contiki-native.a(webserver.o)
                0x00000000004235c9                webserver_init
 .text          0x00000000004238e8     0x11a5 contiki-native.a(webserver-utils)
                0x00000000004238e8                ip4addr_add_u8
                0x000000000042395b                ipaddr_add_u8_len
                0x0000000000423a4f                ipaddr_add_u8
                0x0000000000423a6f                lladdr_add
                0x0000000000423ae7                ethaddr_add
                0x0000000000423b5d                add_key
                0x0000000000423baa                key_conv
                0x0000000000423e8b                generate_top
                0x00000000004241a2                generate_bottom
                0x0000000000424373                generate_result_page
                0x00000000004246c3                generate_404
                0x00000000004248b6                add_div_home
                0x00000000004248dd                add_div_footer
                0x00000000004248f5                reset_buf
                0x0000000000424909                add
 .text          0x0000000000424a8d      0x494 contiki-native.a(webserver-main.)
                0x0000000000424a8d                generate_index
 .text          0x0000000000424f21     0x17db contiki-native.a(webserver-netwo)
 .text          0x00000000004266fc     0x5e89 contiki-native.a(webserver-confi)
 .text          0x000000000042c585      0xf32 contiki-native.a(webserver-stati)
 .text          0x000000000042d4b7      0x5bd contiki-native.a(webserver-admin)
 .text          0x000000000042da74      0xb8a contiki-native.a(webserver-log.o)
 .text          0x000000000042e5fe      0xcf0 contiki-native.a(webserver-rpl.o)
 .text          0x000000000042f2ee      0x280 contiki-native.a(webserver-file.)
                0x000000000042f2ee                send_file
 .text          0x000000000042f56e     0x272c contiki-native.a(webserver-senso)
 .text          0x0000000000431c9a      0xb0e contiki-native.a(webserver-senso)
 .text          0x00000000004327a8      0x2b9 contiki-native.a(webserver-node-)
 .text          0x0000000000432a61      0x36d contiki-native.a(udp-server.o)
                0x0000000000432d9e                udp_server_init
 .text          0x0000000000432dce      0x391 contiki-native.a(node-config.o)
                0x0000000000432dce                node_config_find_by_ip
                0x0000000000432e32                node_config_find_by_port
                0x0000000000432e8b                node_config_find_by_lladdr
                0x0000000000432eed                node_config_get_name
                0x0000000000432f1c                node_config_allowed_node_hook
                0x00000000004330da                node_config_init
 .text          0x000000000043315f      0x4a1 contiki-native.a(node-config-ip6)
                0x000000000043315f                ip64_special_ports_translate_incoming
                0x00000000004332b5                ip64_special_ports_translate_outgoing
                0x000000000043342b                ip64_special_ports_incoming_is_special
                0x00000000004335ac                ip64_special_ports_outgoing_is_special
 .text          0x0000000000433600      0x95f contiki-native.a(node-config-fil)
                0x0000000000433600                node_config_add_br
                0x000000000043366c                node_config_handler
                0x000000000043398b                node_config_load
                0x0000000000433bbb                node_config_purge
                0x0000000000433c82                node_config_reload
                0x0000000000433dc4                node_config_impl_init
                0x0000000000433f4a                node_config_list_head
 .text          0x0000000000433f5f      0xcec contiki-native.a(node-info.o)
                0x0000000000433f5f                node_info_route_notification_cb
                0x0000000000433fa8                node_info_config
                0x0000000000433fb4                node_info_init
                0x0000000000433fef                node_info_add
                0x0000000000434322                node_info_update
                0x000000000043470d                node_info_node_seen
                0x0000000000434760                node_info_set_flags
                0x00000000004347cb                node_info_clear_flags
                0x0000000000434838                node_info_flags_text
                0x000000000043486e                node_info_analyze_packet
                0x00000000004349fa                node_info_rm
                0x0000000000434a89                node_info_rm_by_addr
                0x0000000000434ab6                node_info_lookup
                0x0000000000434b23                node_info_reset_statistics
                0x0000000000434bdf                node_info_reset_statistics_all
 .text          0x0000000000434c4b      0xe58 contiki-native.a(node-info-expor)
                0x000000000043577e                node_info_export_set_interval
                0x00000000004357a7                node_info_export_set_enable
                0x00000000004357d0                node_info_export_set_global
                0x00000000004359f9                node_info_export_config
                0x0000000000435a51                node_info_export_init
 .text          0x0000000000435aa3      0x4c0 contiki-native.a(webserver-node-)
 .text          0x0000000000435f63      0x344 contiki-native.a(dns-proxy.o)
                0x0000000000436275                dns_proxy_init
 .text          0x00000000004362a7     0x2339 contiki-native.a(er-coap.o)
                0x00000000004368c2                coap_init_connection
                0x00000000004368f7                coap_get_mid
                0x0000000000436915                coap_init_message
                0x000000000043696f                coap_serialize_message
                0x00000000004370aa                coap_parse_message
                0x000000000043783a                coap_get_query_variable
                0x0000000000437891                coap_get_post_variable
                0x00000000004378ef                coap_set_status_code
                0x000000000043791d                coap_set_token
                0x0000000000437980                coap_get_header_content_format
                0x00000000004379c5                coap_set_header_content_format
                0x0000000000437a00                coap_get_header_accept
                0x0000000000437a48                coap_set_header_accept
                0x0000000000437a86                coap_get_header_max_age
                0x0000000000437acc                coap_set_header_max_age
                0x0000000000437b04                coap_get_header_etag
                0x0000000000437b4d                coap_set_header_etag
                0x0000000000437bc4                coap_get_header_if_match
                0x0000000000437c13                coap_set_header_if_match
                0x0000000000437c96                coap_get_header_if_none_match
                0x0000000000437cb6                coap_set_header_if_none_match
                0x0000000000437cd9                coap_get_header_proxy_uri
                0x0000000000437d1f                coap_set_header_proxy_uri
                0x0000000000437d78                coap_get_header_uri_host
                0x0000000000437dbe                coap_set_header_uri_host
                0x0000000000437e17                coap_get_header_uri_path
                0x0000000000437e63                coap_set_header_uri_path
                0x0000000000437ed7                coap_get_header_uri_query
                0x0000000000437f1d                coap_set_header_uri_query
                0x0000000000437f91                coap_get_header_location_path
                0x0000000000437fd7                coap_set_header_location_path
                0x000000000043809d                coap_get_header_location_query
                0x00000000004380e9                coap_set_header_location_query
                0x000000000043815d                coap_get_header_observe
                0x00000000004381a3                coap_set_header_observe
                0x00000000004381de                coap_get_header_block2
                0x0000000000438277                coap_set_header_block2
                0x000000000043830a                coap_get_header_block1
                0x00000000004383a9                coap_set_header_block1
                0x0000000000438437                coap_get_header_size2
                0x000000000043847b                coap_set_header_size2
                0x00000000004384b6                coap_get_header_size1
                0x00000000004384fa                coap_set_header_size1
                0x0000000000438535                coap_get_payload
                0x000000000043858d                coap_set_payload
 .text          0x00000000004385e0      0xaf2 contiki-native.a(er-coap-engine.)
                0x00000000004385e0                coap_receive
                0x0000000000438d32                coap_init_engine
                0x0000000000438d4d                coap_set_service_callback
                0x0000000000438d63                coap_get_rest_method
                0x0000000000438e3c                coap_blocking_request_callback
                0x0000000000438e73                coap_blocking_request
 .text          0x00000000004390d2      0x354 contiki-native.a(er-coap-transac)
                0x00000000004390d2                coap_register_as_transaction_handler
                0x00000000004390ea                coap_new_transaction
                0x000000000043917e                coap_set_transaction_context
                0x0000000000439199                coap_send_transaction
                0x0000000000439313                coap_clear_transaction
                0x0000000000439362                coap_get_transaction_by_mid
                0x00000000004393ba                coap_check_transactions
 .text          0x0000000000439426      0x95e contiki-native.a(er-coap-observe)
                0x000000000043953c                coap_remove_observer
                0x0000000000439574                coap_remove_observer_by_client
                0x00000000004395ff                coap_remove_observer_by_token
                0x00000000004396c2                coap_remove_observer_by_uri
                0x000000000043979b                coap_remove_observer_by_mid
                0x000000000043983a                coap_notify_observers
                0x000000000043985a                coap_notify_observers_sub
                0x0000000000439bfb                coap_observe_handler
 .text          0x0000000000439d84      0x33a contiki-native.a(er-coap-separat)
                0x0000000000439d84                coap_separate_reject
                0x0000000000439da9                coap_separate_accept
                0x000000000043a024                coap_separate_resume
 .text          0x000000000043a0be      0x6dc contiki-native.a(er-coap-res-wel)
                0x000000000043a0be                well_known_core_get_handler
 .text          0x000000000043a79a      0x1b8 contiki-native.a(er-coap-block1.)
                0x000000000043a79a                coap_block1_handler
 .text          0x000000000043a952        0x0 contiki-native.a(er-coap-observe)
 .text          0x000000000043a952       0xd0 contiki-native.a(er-coap-udp.o)
                0x000000000043a952                coap_init_communication_layer
                0x000000000043a98a                coap_send_message
                0x000000000043aa07                coap_handle_receive
 .text          0x000000000043aa22      0x581 contiki-native.a(rest-engine.o)
                0x000000000043aa22                rest_init_engine
                0x000000000043aa84                rest_activate_resource
                0x000000000043ab6f                rest_get_resources
                0x000000000043ab7c                rest_invoke_restful_service
 .text          0x000000000043afa3       0x2c contiki-native.a(coap-server.o)
                0x000000000043afa3                coap_server_init
 .text          0x000000000043afcf      0x2e5 contiki-native.a(block-transfer.)
                0x000000000043afcf                coap_blocking_request_block
 .text          0x000000000043b2b4      0xfbd contiki-native.a(coap-common.o)
                0x000000000043b2b4                coap_strtoul
                0x000000000043b32b                coap_strtofix
                0x000000000043b3dd                coap_format_binding_value
                0x000000000043b58e                coap_parse_binding_value
                0x000000000043b65e                rest_find_resource_by_url
                0x000000000043b714                coap_add_ipaddr
                0x000000000043b846                full_resource_config_attr_handler
                0x000000000043bac7                simple_resource_get_handler
                0x000000000043bc7c                simple_resource_set_handler
                0x000000000043be0d                full_resource_get_handler
                0x000000000043c11f                full_resource_config_handler
 .text          0x000000000043c271      0x5dc contiki-native.a(coap-push.o)
                0x000000000043c271                coap_push_get_bindings
                0x000000000043c27e                coap_push_add_binding
                0x000000000043c2dd                coap_push_remove_binding
                0x000000000043c32e                coap_push_update_binding
                0x000000000043c3a4                coap_blocking_push
                0x000000000043c823                coap_push_init
 .text          0x000000000043c84d      0xc7c contiki-native.a(core-interface.)
                0x000000000043c84d                resource_batch_get_data_handler
                0x000000000043cc02                resource_linked_list_get_handler
                0x000000000043d38a                resource_batch_get_handler
 .text          0x000000000043d4c9      0x97b contiki-native.a(coap-binding.o)
                0x000000000043d4c9                coap_binding_serialize
                0x000000000043d59f                coap_binding_deserialize
                0x000000000043d6a0                coap_binding_parse_filter_tag
                0x000000000043d946                coap_binding_parse_filters
                0x000000000043db72                coap_binding_trigger_cond
                0x000000000043dce9                coap_binding_add_resource
                0x000000000043de1a                coap_binding_init
 .text          0x000000000043de44       0x7c contiki-native.a(coap-linked-bat)
                0x000000000043de44                coap_linked_batch_serialize
                0x000000000043de6e                coap_linked_batch_deserialize
 .text          0x000000000043dec0      0x887 contiki-native.a(rd-client.o)
                0x000000000043dec0                client_registration_request_handler
                0x000000000043dfaf                client_registration_response_handler
                0x000000000043e0ad                client_update_response_handler
                0x000000000043e612                rd_client_init
                0x000000000043e67e                rd_client_status
                0x000000000043e68a                rd_client_set_rd_address
                0x000000000043e6f5                rd_client_set_resources_list
 .text          0x000000000043e747      0x675 contiki-native.a(rest-type-text.)
 .text          0x000000000043edbc      0x952 contiki-native.a(rest-type-json.)
 .text          0x000000000043f70e      0xbc9 contiki-native.a(rest-type-senml)
 .text          0x00000000004402d7      0x8aa contiki-native.a(rest-type-xml.o)
 .text          0x0000000000440b81      0x849 contiki-native.a(ctk-conio.o)
                0x0000000000440bce                ctk_draw_init
                0x00000000004410f7                ctk_draw_widget
                0x000000000044118a                ctk_draw_clear_window
                0x000000000044130b                ctk_draw_window
                0x000000000044136b                ctk_draw_clear
                0x00000000004413b0                ctk_draw_height
                0x00000000004413bd                ctk_draw_width
 .text          0x00000000004413ca      0x4f0 contiki-native.a(contiki-main.o)
                0x00000000004413ca                select_set_callback
                0x0000000000441561                main
                0x0000000000441850                log_message
                0x0000000000441889                uip_log
 .text          0x00000000004418ba       0xc4 contiki-native.a(clock.o)
                0x00000000004418ba                clock_init
                0x00000000004418c1                clock_time
                0x0000000000441932                clock_seconds
                0x0000000000441974                clock_delay
 .text          0x000000000044197e      0x136 contiki-native.a(leds.o)
                0x00000000004419d1                leds_init
                0x00000000004419e4                leds_blink
                0x0000000000441a1b                leds_get
                0x0000000000441a26                leds_set
                0x0000000000441a41                leds_on
                0x0000000000441a65                leds_off
                0x0000000000441a90                leds_toggle
 .text          0x0000000000441ab4       0x31 contiki-native.a(leds-arch.o)
                0x0000000000441ab4                leds_arch_init
                0x0000000000441ac2                leds_arch_get
                0x0000000000441acf                leds_arch_set
 .text          0x0000000000441ae5       0x43 contiki-native.a(button-sensor.o)
                0x0000000000441ae5                button_press
 .text          0x0000000000441b28       0x5c contiki-native.a(pir-sensor.o)
                0x0000000000441b28                pir_sensor_changed
 .text          0x0000000000441b84       0x53 contiki-native.a(vib-sensor.o)
                0x0000000000441b84                vib_sensor_changed
 .text          0x0000000000441bd7       0xb5 contiki-native.a(xmem.o)
                0x0000000000441bd7                xmem_pwrite
                0x0000000000441c12                xmem_pread
                0x0000000000441c4d                xmem_erase
                0x0000000000441c85                xmem_init
 .text          0x0000000000441c8c      0x340 contiki-native.a(sensors.o)
                0x0000000000441cd1                sensors_first
                0x0000000000441ce1                sensors_next
                0x0000000000441d0c                sensors_changed
                0x0000000000441d55                sensors_find
 .text          0x0000000000441fcc        0x7 contiki-native.a(irq.o)
                0x0000000000441fcc                irq_init
 .text          0x0000000000441fd3      0x176 contiki-native.a(cfs-posix.o)
                0x0000000000441fd3                cfs_open
                0x000000000044206a                cfs_close
                0x0000000000442082                cfs_read
                0x00000000004420aa                cfs_write
                0x00000000004420d2                cfs_seek
                0x000000000044212f                cfs_remove
 .text          0x0000000000442149       0xec contiki-native.a(cfs-posix-dir.o)
                0x0000000000442149                cfs_opendir
                0x0000000000442189                cfs_readdir
                0x0000000000442203                cfs_closedir
 .text          0x0000000000442235      0xaef contiki-native.a(ctk-curses.o)
                0x000000000044229d                console_init
                0x00000000004423e4                console_exit
                0x0000000000442422                console_resize
                0x000000000044250e                wherex
                0x0000000000442566                wherey
                0x00000000004425be                clrscr
                0x00000000004425d7                bgcolor
                0x0000000000442615                bordercolor
                0x000000000044262a                screensize
                0x00000000004426a5                revers
                0x00000000004426c4                console_cputc
                0x0000000000442774                console_cputs
                0x00000000004427b3                cclear
                0x00000000004427f0                chline
                0x0000000000442839                cvline
                0x0000000000442870                gotoxy
                0x00000000004428a1                cclearxy
                0x00000000004428d6                chlinexy
                0x000000000044290b                cvlinexy
                0x0000000000442940                cputsxy
                0x0000000000442976                cputcxy
                0x00000000004429ab                textcolor
                0x0000000000442c60                ctk_arch_getkey
                0x0000000000442ca7                ctk_arch_keyavail
                0x0000000000442cb9                ctk_mouse_init
                0x0000000000442cc0                ctk_mouse_x
                0x0000000000442cd2                ctk_mouse_y
                0x0000000000442ce4                ctk_mouse_xtoc
                0x0000000000442cf4                ctk_mouse_ytoc
                0x0000000000442d04                ctk_mouse_button
                0x0000000000442d16                ctk_mouse_hide
                0x0000000000442d1d                ctk_mouse_show
 .text          0x0000000000442d24      0x149 contiki-native.a(tapdev-drv.o)
 .text          0x0000000000442e6d      0x3c4 contiki-native.a(linuxradio-drv.)
 .text          0x0000000000443231      0x3f5 contiki-native.a(tapdev6.o)
                0x0000000000443231                tapdev_fd
                0x000000000044323d                tapdev_poll
                0x0000000000443381                tapdev_init
                0x000000000044350f                tapdev_send
                0x0000000000443606                tapdev_do_send
                0x0000000000443612                tapdev_exit
 .text          0x0000000000443626      0x13f contiki-native.a(mtarch.o)
                0x0000000000443626                mtarch_init
                0x000000000044362d                mtarch_remove
                0x0000000000443634                mtarch_start
                0x00000000004436d8                mtarch_yield
                0x00000000004436f5                mtarch_exec
                0x0000000000443739                mtarch_stop
                0x0000000000443757                mtarch_pstart
                0x000000000044375e                mtarch_pstop
 .text          0x0000000000443765       0xf8 contiki-native.a(rtimer-arch.o)
                0x0000000000443789                rtimer_arch_init
                0x00000000004437a1                rtimer_arch_schedule
 .text          0x000000000044385d       0xbe contiki-native.a(elfloader-stub.)
                0x000000000044385d                elfloader_arch_allocate_ram
                0x000000000044386d                elfloader_arch_allocate_rom
                0x000000000044387d                elfloader_arch_write_rom
                0x00000000004438b6                elfloader_arch_relocate
 .text          0x000000000044391b       0x2a contiki-native.a(watchdog.o)
                0x000000000044391b                watchdog_init
                0x0000000000443922                watchdog_start
                0x0000000000443929                watchdog_periodic
                0x0000000000443930                watchdog_stop
                0x0000000000443937                watchdog_reboot
 .text          0x0000000000443945      0x3ba contiki-native.a(eeprom.o)
                0x0000000000443a16                eeprom_init
                0x0000000000443b65                eeprom_write
                0x0000000000443c32                eeprom_read
 .text          0x0000000000443cff      0x4d2 contiki-native.a(noncoresec.o)
 .text          0x00000000004441d1      0x978 contiki-native.a(akes.o)
                0x00000000004442dd                akes_change_hello_challenge
                0x00000000004442f5                akes_broadcast_hello
                0x000000000044435a                akes_get_random_waiting_period
                0x00000000004448fa                akes_send_update
                0x0000000000444ad2                akes_get_receiver_status
                0x0000000000444b12                akes_init
 .text          0x0000000000444b49      0x28f contiki-native.a(akes-delete.o)
                0x0000000000444d99                akes_delete_on_update_sent
                0x0000000000444dbd                akes_delete_init
 .text          0x0000000000444dd8        0x0 contiki-native.a(coresec-strateg)
 .text          0x0000000000444dd8      0x2ac contiki-native.a(akes-trickle.o)
                0x0000000000444dd8                reset_trickle_info
                0x0000000000444e1c                akes_trickle_on_fresh_authentic_hello
                0x0000000000444fe9                akes_trickle_on_new_nbr
                0x0000000000445032                akes_trickle_stop
                0x0000000000445051                akes_trickle_reset
                0x000000000044506e                akes_trickle_start
 .text          0x0000000000445084      0x145 contiki-native.a(noncoresec-stra)
 .text          0x00000000004451c9       0x18 contiki-native.a(akes-single.o)
 .text          0x00000000004451e1      0x5b7 contiki-native.a(adaptivesec.o)
                0x00000000004451e1                adaptivesec_get_cmd_id
                0x00000000004451ef                adaptivesec_get_sec_lvl
                0x0000000000445287                adaptivesec_add_security_header
                0x00000000004452bf                adaptivesec_prepare_command
                0x0000000000445317                adaptivesec_send_command_frame
                0x0000000000445450                adaptivesec_mic_len
                0x0000000000445471                adaptivesec_aead
                0x000000000044556a                adaptivesec_verify
 .text          0x0000000000445798      0x504 contiki-native.a(akes-nbr.o)
                0x00000000004457ca                akes_nbr_copy_challenge
                0x00000000004457e7                akes_nbr_copy_key
                0x000000000044580c                akes_nbr_get_addr
                0x0000000000445884                akes_nbr_head
                0x0000000000445899                akes_nbr_next
                0x00000000004458bd                akes_nbr_count
                0x000000000044590e                akes_nbr_new
                0x0000000000445a5a                akes_nbr_update
                0x0000000000445ad7                akes_nbr_do_prolong
                0x0000000000445b03                akes_nbr_prolong
                0x0000000000445b23                akes_nbr_get_sender_entry
                0x0000000000445b48                akes_nbr_get_receiver_entry
                0x0000000000445b6d                akes_nbr_delete
                0x0000000000445bcd                akes_nbr_is_expired
                0x0000000000445c01                akes_nbr_delete_expired_tentatives
                0x0000000000445c69                akes_nbr_init
 .text          0x0000000000445c9c      0x4c1 contiki-native.a(ip64-dns64.o)
                0x0000000000445c9c                ip64_dns64_6to4
                0x0000000000445d96                ip64_dns64_4to6
 .text          0x000000000044615d      0x9c8 contiki-native.a(ip64-arp.o)
                0x000000000044615d                ip64_arp_init
                0x00000000004461aa                ip64_arp_timer
                0x0000000000446457                ip64_arp_arp_input
                0x00000000004465f7                ip64_arp_check_cache
                0x000000000044676b                ip64_arp_create_ethhdr
                0x000000000044697d                ip64_arp_create_arp_request
 .text          0x0000000000446b25      0x4fb contiki-native.a(ip64-addrmap.o)
                0x0000000000446b25                ip64_addrmap_list
                0x0000000000446b3a                ip64_addrmap_init
                0x0000000000446cc1                ip64_addrmap_lookup
                0x0000000000446da9                ip64_addrmap_lookup_port
                0x0000000000446e5e                ip64_addrmap_create
                0x0000000000446fc9                ip64_addrmap_set_lifetime
                0x0000000000446ffa                ip64_addrmap_set_recycleble
 .text          0x0000000000447020      0x25d contiki-native.a(ip64-ipv4-dhcp.)
                0x0000000000447020                ip64_ipv4_dhcp_init
                0x00000000004470e8                ip64_dhcpc_configured
                0x0000000000447272                ip64_dhcpc_unconfigured
 .text          0x000000000044727d       0x1c contiki-native.a(ip64-null-drive)
 .text          0x0000000000447299      0x1ca contiki-native.a(ip64-eth-interf)
                0x0000000000447299                ip64_eth_interface_input
 .text          0x0000000000447463     0x10f3 contiki-native.a(ip64.o)
                0x0000000000447463                ip64_init
                0x000000000044751e                ip64_set_hostaddr
                0x0000000000447547                ip64_set_netmask
                0x0000000000447569                ip64_set_draddr
                0x000000000044758b                ip64_get_hostaddr
                0x0000000000447598                ip64_get_netmask
                0x00000000004475a5                ip64_get_draddr
                0x00000000004475b2                ip64_set_ipv4_address
                0x00000000004475dd                ip64_set_ipv6_address
                0x0000000000447852                ip64_6to4
                0x0000000000447ead                ip64_4to6
                0x000000000044851b                ip64_hostaddr_is_configured
 .text          0x0000000000448556        0x0 contiki-native.a(ip64-special-po)
 .text          0x0000000000448556      0x294 contiki-native.a(ip64-slip-inter)
                0x0000000000448556                ip64_slip_interface_input
 .text          0x00000000004487ea      0xcc7 contiki-native.a(ip64-dhcpc.o)
                0x000000000044932d                ip64_dhcpc_init
                0x0000000000449408                ip64_dhcpc_appcall
                0x0000000000449443                ip64_dhcpc_request
 .text          0x00000000004494b1       0x22 contiki-native.a(ip64-eth.o)
                0x00000000004494b1                ip64_eth_addr_set
 .text          0x00000000004494d3       0xb3 contiki-native.a(autostart.o)
                0x00000000004494d3                autostart_start
                0x000000000044952f                autostart_exit
 .text          0x0000000000449586      0x106 contiki-native.a(stimer.o)
                0x0000000000449586                stimer_set
                0x00000000004495b4                stimer_reset
                0x00000000004495d8                stimer_restart
                0x00000000004495f6                stimer_expired
                0x0000000000449637                stimer_remaining
                0x0000000000449669                stimer_elapsed
 .text          0x000000000044968c       0x2a contiki-native.a(energest.o)
                0x000000000044968c                energest_type_set
                0x000000000044969a                energest_init
                0x00000000004496a1                energest_type_time
                0x00000000004496af                energest_flush
 .text          0x00000000004496b6       0x58 contiki-native.a(arg.o)
                0x00000000004496b6                arg_init
                0x00000000004496c4                arg_alloc
                0x00000000004496ef                arg_free
 .text          0x000000000044970e      0x421 contiki-native.a(ctimer.o)
                0x000000000044986c                ctimer_init
                0x000000000044989d                ctimer_set
                0x00000000004498dd                ctimer_set_with_process
                0x0000000000449993                ctimer_reset
                0x0000000000449a00                ctimer_restart
                0x0000000000449a6d                ctimer_stop
                0x0000000000449ac7                ctimer_expired
 .text          0x0000000000449b2f      0x53f contiki-native.a(etimer.o)
                0x0000000000449dce                etimer_request_poll
                0x0000000000449e78                etimer_set
                0x0000000000449eaa                etimer_reset_with_new_interval
                0x0000000000449ee1                etimer_reset
                0x0000000000449f08                etimer_restart
                0x0000000000449f2f                etimer_adjust
                0x0000000000449f5c                etimer_expired
                0x0000000000449f77                etimer_expiration_time
                0x0000000000449f93                etimer_start_time
                0x0000000000449fa4                etimer_pending
                0x0000000000449fba                etimer_next_expiration_time
                0x0000000000449fd7                etimer_stop
 .text          0x000000000044a06e      0x152 contiki-native.a(compower.o)
                0x000000000044a06e                compower_init
                0x000000000044a084                compower_accumulate
                0x000000000044a0fc                compower_clear
                0x000000000044a11f                compower_attrconv
                0x000000000044a175                compower_accumulate_attrs
 .text          0x000000000044a1c0      0x641 contiki-native.a(process.o)
                0x000000000044a1c0                process_alloc_event
                0x000000000044a1d6                process_start
                0x000000000044a43b                process_exit
                0x000000000044a463                process_init
                0x000000000044a653                process_run
                0x000000000044a684                process_nevents
                0x000000000044a6a0                process_post
                0x000000000044a764                process_post_synch
                0x000000000044a7ae                process_poll
                0x000000000044a7e7                process_is_running
 .text          0x000000000044a801       0xf9 contiki-native.a(rtimer.o)
                0x000000000044a801                rtimer_init
                0x000000000044a80d                rtimer_set
                0x000000000044a88b                rtimer_run_next
 .text          0x000000000044a8fa       0xd7 contiki-native.a(mt.o)
                0x000000000044a8fa                mt_init
                0x000000000044a906                mt_remove
                0x000000000044a912                mt_start
                0x000000000044a94e                mt_exec
                0x000000000044a983                mt_yield
                0x000000000044a994                mt_exit
                0x000000000044a9b2                mt_stop
 .text          0x000000000044a9d1       0x4c contiki-native.a(procinit.o)
                0x000000000044a9d1                procinit_init
 .text          0x000000000044aa1d       0xdf contiki-native.a(timer.o)
                0x000000000044aa1d                timer_set
                0x000000000044aa4b                timer_reset
                0x000000000044aa6f                timer_restart
                0x000000000044aa8d                timer_expired
                0x000000000044aaca                timer_remaining
 .text          0x000000000044aafc      0x2ed contiki-native.a(serial-line.o)
                0x000000000044aafc                serial_line_input_byte
                0x000000000044adb6                serial_line_init
 .text          0x000000000044ade9      0xa28 contiki-native.a(slip.o)
                0x000000000044ade9                slip_set_input_callback
                0x000000000044ae49                slip_send
                0x000000000044af45                slip_write
                0x000000000044b688                slip_input_byte
 .text          0x000000000044b811       0xfd contiki-native.a(nullradio.o)
 .text          0x000000000044b90e        0x0 contiki-native.a(me_tabs.o)
 .text          0x000000000044b90e        0x0 contiki-native.a(settings.o)
 .text          0x000000000044b90e       0xc0 contiki-native.a(crc16.o)
                0x000000000044b90e                crc16_add
                0x000000000044b97e                crc16_data
 .text          0x000000000044b9ce      0x1a2 contiki-native.a(mmem.o)
                0x000000000044b9ce                mmem_alloc
                0x000000000044ba56                mmem_free
                0x000000000044bb37                mmem_init
 .text          0x000000000044bb70      0x290 contiki-native.a(iq-seeder.o)
 .text          0x000000000044be00      0x48f contiki-native.a(ccm-star.o)
 .text          0x000000000044c28f      0x4ec contiki-native.a(ifft.o)
                0x000000000044c394                ifft
 .text          0x000000000044c77b        0xb contiki-native.a(null-seeder.o)
 .text          0x000000000044c786      0x254 contiki-native.a(ringbufindex.o)
                0x000000000044c786                ringbufindex_init
                0x000000000044c7b3                ringbufindex_put
                0x000000000044c81a                ringbufindex_peek_put
                0x000000000044c877                ringbufindex_get
                0x000000000044c8e0                ringbufindex_peek_get
                0x000000000044c933                ringbufindex_size
                0x000000000044c94a                ringbufindex_elements
                0x000000000044c978                ringbufindex_full
                0x000000000044c9b8                ringbufindex_empty
 .text          0x000000000044c9da      0x311 contiki-native.a(list.o)
                0x000000000044c9da                list_init
                0x000000000044c9f0                list_head
                0x000000000044ca01                list_copy
                0x000000000044ca1e                list_tail
                0x000000000044ca63                list_add
                0x000000000044cac3                list_push
                0x000000000044cb02                list_chop
                0x000000000044cb8b                list_pop
                0x000000000044cbc1                list_remove
                0x000000000044cc49                list_length
                0x000000000044cc80                list_insert
                0x000000000044cccc                list_item_next
 .text          0x000000000044cceb      0x234 contiki-native.a(gcr.o)
                0x000000000044cceb                gcr_init
                0x000000000044cd02                gcr_finished
                0x000000000044cd14                gcr_encode
                0x000000000044cd8e                gcr_get_encoded
                0x000000000044cde0                gcr_decode
                0x000000000044ce22                gcr_valid
                0x000000000044ce8d                gcr_get_decoded
 .text          0x000000000044cf1f      0x6fd contiki-native.a(aes-128.o)
                0x000000000044d5a8                aes_128_set_padded_key
 .text          0x000000000044d61c      0x4f9 contiki-native.a(trickle-timer.o)
                0x000000000044d95b                trickle_timer_consistency
                0x000000000044d984                trickle_timer_inconsistency
                0x000000000044d9c2                trickle_timer_config
                0x000000000044da7a                trickle_timer_set
 .text          0x000000000044db15      0x20e contiki-native.a(memb.o)
                0x000000000044db15                memb_init
                0x000000000044db74                memb_alloc
                0x000000000044dbec                memb_free
                0x000000000044dc84                memb_inmemb
                0x000000000044dcd7                memb_numfree
 .text          0x000000000044dd23       0xa6 contiki-native.a(me.o)
                0x000000000044dd23                me_encode
                0x000000000044dd40                me_decode16
                0x000000000044dd91                me_decode8
                0x000000000044ddad                me_valid
 .text          0x000000000044ddc9        0x7 contiki-native.a(print-stats.o)
                0x000000000044ddc9                print_stats
 .text          0x000000000044ddd0       0xa3 contiki-native.a(csprng.o)
                0x000000000044ddd0                csprng_rand
                0x000000000044de58                csprng_init
 .text          0x000000000044de73       0xd7 contiki-native.a(petsciiconv.o)
                0x000000000044de73                petsciiconv_toascii
                0x000000000044defa                petsciiconv_topetscii
 .text          0x000000000044df4a       0x27 contiki-native.a(random.o)
                0x000000000044df4a                random_init
                0x000000000044df66                random_rand
 .text          0x000000000044df71       0x2d contiki-native.a(assert.o)
                0x000000000044df71                _xassert
 .text          0x000000000044df9e      0x189 contiki-native.a(ringbuf.o)
                0x000000000044df9e                ringbuf_init
                0x000000000044dfdb                ringbuf_put
                0x000000000044e066                ringbuf_get
                0x000000000044e0e0                ringbuf_size
                0x000000000044e0f8                ringbuf_elements
 .text          0x000000000044e127     0x1290 contiki-native.a(websocket.o)
                0x000000000044e360                call
                0x000000000044e4f4                websocket_http_client_aborted
                0x000000000044e53c                websocket_http_client_timedout
                0x000000000044e584                websocket_http_client_closed
                0x000000000044e5cc                websocket_http_client_connected
                0x000000000044e70e                websocket_http_client_datahandler
                0x000000000044ed49                websocket_init
                0x000000000044ed6d                websocket_set_proxy
                0x000000000044eda1                websocket_open
                0x000000000044ef9a                websocket_close
                0x000000000044f26d                websocket_send_str
                0x000000000044f2a3                websocket_send
                0x000000000044f2d4                websocket_ping
                0x000000000044f399                websocket_queuelen
 .text          0x000000000044f3b7      0xc1d contiki-native.a(uip-icmp6.o)
                0x000000000044f430                uip_icmp6_input
                0x000000000044f48a                uip_icmp6_register_input_handler
                0x000000000044f736                uip_icmp6_error_output
                0x000000000044fbaa                uip_icmp6_send
                0x000000000044ff4d                uip_icmp6_echo_reply_callback_add
                0x000000000044ff90                uip_icmp6_echo_reply_callback_rm
                0x000000000044ffb5                uip_icmp6_init
 .text          0x000000000044ffd4     0x10ee contiki-native.a(uip-ds6.o)
                0x000000000044ffd4                uip_ds6_init
                0x00000000004501c2                uip_ds6_periodic
                0x00000000004502f7                uip_ds6_list_loop
                0x00000000004503ba                uip_ds6_prefix_add
                0x0000000000450486                uip_ds6_prefix_rm
                0x00000000004504a0                uip_ds6_prefix_lookup
                0x00000000004504f3                uip_ds6_is_addr_onlink
                0x0000000000450583                uip_ds6_addr_add
                0x000000000045070e                uip_ds6_addr_rm
                0x00000000004507c2                uip_ds6_addr_lookup
                0x0000000000450810                uip_ds6_get_link_local
                0x00000000004508b1                uip_ds6_get_global
                0x0000000000450952                uip_ds6_get_addr_number
                0x00000000004509d5                uip_ds6_maddr_add
                0x0000000000450a4a                uip_ds6_maddr_rm
                0x0000000000450a64                uip_ds6_maddr_lookup
                0x0000000000450ab5                uip_ds6_aaddr_add
                0x0000000000450b2a                uip_ds6_aaddr_rm
                0x0000000000450b44                uip_ds6_aaddr_lookup
                0x0000000000450b95                uip_ds6_select_src
                0x0000000000450d1b                uip_ds6_set_addr_iid
                0x0000000000450d50                get_match_length
                0x0000000000450dfa                uip_ds6_dad
                0x0000000000450e87                uip_ds6_dad_failed
                0x0000000000450f37                uip_ds6_send_ra_sollicited
                0x0000000000450fa9                uip_ds6_send_ra_periodic
                0x0000000000451078                uip_ds6_compute_reachable_time
 .text          0x00000000004510c2      0xbb2 contiki-native.a(uip-ds6-route.o)
                0x0000000000451145                uip_ds6_notification_add
                0x0000000000451188                uip_ds6_notification_rm
                0x00000000004511ad                uip_ds6_route_init
                0x000000000045124b                uip_ds6_route_nexthop
                0x0000000000451292                uip_ds6_route_head
                0x00000000004512a7                uip_ds6_route_next
                0x00000000004512d7                uip_ds6_route_is_nexthop
                0x0000000000451325                uip_ds6_route_num_routes
                0x0000000000451331                uip_ds6_route_lookup
                0x000000000045140b                uip_ds6_route_add
                0x000000000045166a                uip_ds6_route_add_static
                0x0000000000451794                uip_ds6_route_rm
                0x0000000000451972                uip_ds6_route_rm_by_nexthop
                0x00000000004519ba                uip_ds6_defrt_head
                0x00000000004519cf                uip_ds6_defrt_add
                0x0000000000451a8c                uip_ds6_defrt_rm
                0x0000000000451b18                uip_ds6_defrt_lookup
                0x0000000000451b7d                uip_ds6_defrt_choose
                0x0000000000451bfc                uip_ds6_defrt_periodic
 .text          0x0000000000451c74     0x3692 contiki-native.a(uip6.o)
                0x0000000000451c74                uip_add32
                0x0000000000451e74                uip_chksum
                0x0000000000451f74                uip_icmp6chksum
                0x0000000000451f84                uip_tcpchksum
                0x0000000000451f94                uip_udpchksum
                0x0000000000451fa4                uip_init
                0x0000000000452069                uip_connect
                0x0000000000452223                remove_ext_hdr
                0x0000000000452359                uip_udp_new
                0x00000000004524c2                uip_unlisten
                0x000000000045250d                uip_listen
                0x0000000000452856                uip_process
                0x00000000004551bf                uip_htons
                0x00000000004551de                uip_htonl
                0x0000000000455220                uip_send
 .text          0x0000000000455306      0x818 contiki-native.a(uip-ds6-nbr.o)
                0x0000000000455306                uip_ds6_neighbors_init
                0x000000000045532e                uip_ds6_nbr_add
                0x000000000045542c                uip_ds6_nbr_rm
                0x000000000045547d                uip_ds6_nbr_update_lladdr
                0x00000000004555ab                uip_ds6_nbr_get_ipaddr
                0x00000000004555c7                uip_ds6_nbr_get_ll
                0x00000000004555ee                uip_ds6_nbr_num
                0x0000000000455642                uip_ds6_nbr_lookup
                0x00000000004556ba                uip_ds6_nbr_ll_lookup
                0x00000000004556e1                uip_ds6_nbr_ipaddr_from_lladdr
                0x0000000000455711                uip_ds6_nbr_lladdr_from_ipaddr
                0x0000000000455749                uip_ds6_link_neighbor_callback
                0x00000000004557ac                uip_ds6_neighbor_periodic
                0x0000000000455a3e                uip_ds6_nbr_refresh_reachable_state
                0x0000000000455a89                uip_ds6_get_least_lifetime_neighbor
 .text          0x0000000000455b1e     0x22a1 contiki-native.a(uip-nd6.o)
                0x000000000045651c                uip_nd6_ns_output
                0x00000000004572d1                uip_nd6_ra_output
                0x0000000000457d94                uip_nd6_init
 .text          0x0000000000457dbf      0xab0 contiki-native.a(websocket-http-)
                0x0000000000458450                websocket_http_client_register
                0x0000000000458574                websocket_http_client_get
                0x0000000000458706                websocket_http_client_send
                0x000000000045874b                websocket_http_client_sendbuflen
                0x0000000000458765                websocket_http_client_close
                0x0000000000458780                websocket_http_client_hostname
                0x0000000000458794                websocket_http_client_init
                0x0000000000458814                websocket_http_client_set_proxy
                0x0000000000458855                websocket_http_client_queuelen
 .text          0x000000000045886f     0x2d49 contiki-native.a(sicslowpan.o)
                0x0000000000459039                rime_sniffer_add
                0x000000000045904f                rime_sniffer_remove
                0x000000000045b537                sicslowpan_init
                0x000000000045b5ac                sicslowpan_get_last_rssi
 .text          0x000000000045b5b8      0x223 contiki-native.a(slipdev.o)
                0x000000000045b5b8                slipdev_send
                0x000000000045b67e                slipdev_poll
                0x000000000045b7c4                slipdev_init
 .text          0x000000000045b7db      0x1fa contiki-native.a(uip-debug.o)
                0x000000000045b7db                uip_debug_ipaddr_print
                0x000000000045b94f                uip_debug_lladdr_print
 .text          0x000000000045b9d5      0x197 contiki-native.a(uip-packetqueue)
                0x000000000045ba0d                uip_packetqueue_new
                0x000000000045ba23                uip_packetqueue_alloc
                0x000000000045ba99                uip_packetqueue_free
                0x000000000045baea                uip_packetqueue_buf
                0x000000000045bb12                uip_packetqueue_buflen
                0x000000000045bb3d                uip_packetqueue_set_buflen
 .text          0x000000000045bb6c      0xb5e contiki-native.a(tcp-socket.o)
                0x000000000045c27e                tcp_socket_register
                0x000000000045c342                tcp_socket_connect
                0x000000000045c3fe                tcp_socket_listen
                0x000000000045c487                tcp_socket_unlisten
                0x000000000045c50f                tcp_socket_send
                0x000000000045c5c8                tcp_socket_send_str
                0x000000000045c5fb                tcp_socket_close
                0x000000000045c62c                tcp_socket_unregister
                0x000000000045c691                tcp_socket_max_sendlen
                0x000000000045c6b5                tcp_socket_queuelen
 .text          0x000000000045c6ca      0x179 contiki-native.a(ip64-addr.o)
                0x000000000045c6ca                ip64_addr_copy4
                0x000000000045c6e5                ip64_addr_copy6
                0x000000000045c70a                ip64_addr_4to6
                0x000000000045c771                ip64_addr_6to4
                0x000000000045c7da                ip64_addr_is_ip64
                0x000000000045c810                ip64_addr_set_prefix
 .text          0x000000000045c843      0x13c contiki-native.a(uip-udp-packet.)
                0x000000000045c843                uip_udp_packet_send
                0x000000000045c8be                uip_udp_packet_sendto
 .text          0x000000000045c97f      0x7e5 contiki-native.a(psock.o)
                0x000000000045cd18                psock_send
                0x000000000045cda7                psock_generator_send
                0x000000000045ced6                psock_datalen
                0x000000000045cef5                psock_newdata
                0x000000000045cf4e                psock_readto
                0x000000000045d025                psock_readbuf_len
                0x000000000045d10d                psock_init
 .text          0x000000000045d164      0xc53 contiki-native.a(dhcpc.o)
                0x000000000045dc6f                dhcpc_init
                0x000000000045dd0e                dhcpc_appcall
                0x000000000045dd49                dhcpc_request
 .text          0x000000000045ddb7      0xfe6 contiki-native.a(tcpip.o)
                0x000000000045ddb7                tcpip_output
                0x000000000045ddf1                tcpip_set_outputfunc
                0x000000000045de07                tcpip_get_outputfunc
                0x000000000045de14                tcpip_input
                0x000000000045de30                tcpip_set_inputfunc
                0x000000000045de46                tcpip_get_inputfunc
                0x000000000045dee7                tcp_connect
                0x000000000045df51                tcp_unlisten
                0x000000000045dfbc                tcp_listen
                0x000000000045e023                tcp_attach
                0x000000000045e05b                udp_attach
                0x000000000045e093                udp_new
                0x000000000045e0fc                udp_broadcast_new
                0x000000000045e194                icmp6_new
                0x000000000045e1dc                tcpip_icmp6_call
                0x000000000045e495                tcpip_inputfunc
                0x000000000045e4cb                tcpip_ipv6_output
                0x000000000045eb5c                tcpip_poll_udp
                0x000000000045eb86                tcpip_poll_tcp
                0x000000000045ebb0                tcpip_uipcall
 .text          0x000000000045ed9d     0x2ebb contiki-native.a(resolv.o)
                0x0000000000460c48                resolv_set_hostname
                0x0000000000460cf7                resolv_get_hostname
                0x000000000046129b                resolv_query
                0x00000000004614d8                resolv_lookup
                0x00000000004617b2                resolv_query_service
                0x00000000004618d1                resolv_service_lookup
                0x0000000000461a8c                resolv_add_service
 .text          0x0000000000461c58       0xcd contiki-native.a(uip-nameserver.)
                0x0000000000461c58                uip_nameserver_update
                0x0000000000461c88                uip_nameserver_get
                0x0000000000461ca7                uip_nameserver_next_expiration
                0x0000000000461cb3                uip_nameserver_count
 .text          0x0000000000461d25      0x215 contiki-native.a(uip-split.o)
                0x0000000000461d25                uip_split_output
 .text          0x0000000000461f3a      0x472 contiki-native.a(udp-socket.o)
                0x0000000000461f67                udp_socket_register
                0x0000000000462023                udp_socket_close
                0x0000000000462062                udp_socket_bind
                0x00000000004620b1                udp_socket_connect
                0x0000000000462125                udp_socket_send
                0x0000000000462177                udp_socket_sendto
 .text          0x00000000004623ac      0x42c contiki-native.a(simple-udp.o)
                0x00000000004623d9                simple_udp_send
                0x0000000000462447                simple_udp_sendto
                0x00000000004624b5                simple_udp_sendto_port
                0x000000000046251f                simple_udp_register
 .text          0x00000000004627d8      0x2b0 contiki-native.a(uiplib.o)
                0x00000000004627d8                uiplib_ip6addrconv
                0x00000000004629ba                uiplib_ip4addrconv
 .text          0x0000000000462a88      0x3a4 contiki-native.a(rpl-nbr-policy.)
                0x0000000000462c93                find_removable_dis
                0x0000000000462cc1                find_removable_dio
                0x0000000000462d56                find_removable_dao
                0x0000000000462db7                rpl_nbr_policy_find_removable
 .text          0x0000000000462e2c      0x43f contiki-native.a(rpl-of0.o)
 .text          0x000000000046326b     0x3174 contiki-native.a(rpl-dag.o)
                0x000000000046326b                rpl_print_neighbor_list
                0x00000000004634af                rpl_get_nbr
                0x000000000046350f                rpl_dag_init
                0x000000000046352f                rpl_get_parent
                0x000000000046355e                rpl_get_parent_rank
                0x000000000046359f                rpl_get_parent_link_metric
                0x0000000000463610                rpl_rank_via_parent
                0x0000000000463681                rpl_get_parent_lladdr
                0x00000000004636a8                rpl_get_parent_ipaddr
                0x00000000004636d2                rpl_get_parent_link_stats
                0x00000000004636fc                rpl_parent_is_fresh
                0x0000000000463726                rpl_parent_is_reachable
                0x0000000000463b2f                rpl_set_root
                0x0000000000463eca                rpl_repair_root
                0x000000000046416c                rpl_set_prefix
                0x000000000046428f                rpl_set_default_route
                0x0000000000464315                rpl_alloc_instance
                0x00000000004643b5                rpl_alloc_dag
                0x00000000004644b7                rpl_set_default_instance
                0x00000000004644d0                rpl_get_default_instance
                0x00000000004644e0                rpl_free_instance
                0x00000000004645b4                rpl_free_dag
                0x0000000000464643                rpl_add_parent
                0x000000000046471a                rpl_find_parent
                0x0000000000464792                rpl_find_parent_any_dag
                0x00000000004647e3                rpl_select_dag
                0x0000000000464c74                rpl_select_parent
                0x0000000000464d63                rpl_remove_parent
                0x0000000000464d97                rpl_nullify_parent
                0x0000000000464e78                rpl_move_parent
                0x0000000000464f5d                rpl_has_downward_route
                0x0000000000464fd8                rpl_get_dag
                0x000000000046517e                rpl_get_any_dag
                0x0000000000465222                rpl_get_instance
                0x00000000004652c0                rpl_find_of
                0x000000000046537b                rpl_join_instance
                0x0000000000465687                rpl_add_dag
                0x0000000000465ae1                rpl_local_repair
                0x0000000000465c1a                rpl_recalculate_ranks
                0x0000000000465cbd                rpl_process_parent_event
                0x0000000000465e10                rpl_process_dio
 .text          0x00000000004663df      0xaf7 contiki-native.a(rpl-timers.o)
                0x000000000046671d                rpl_reset_periodic_timer
                0x000000000046677c                rpl_reset_dio_timer
                0x0000000000466a06                rpl_schedule_dao
                0x0000000000466a26                rpl_schedule_dao_immediately
                0x0000000000466a46                rpl_cancel_dao
                0x0000000000466ac1                rpl_schedule_unicast_dio_immediately
                0x0000000000466af3                get_probing_delay
                0x0000000000466b82                get_probing_target
                0x0000000000466e96                rpl_schedule_probing
 .text          0x0000000000466ed6     0x1792 contiki-native.a(rpl-ext-header.)
                0x0000000000466ed6                rpl_verify_hbh_header
                0x00000000004672ae                rpl_srh_get_next_hop
                0x0000000000467484                rpl_process_srh_header
                0x0000000000468368                rpl_remove_header
                0x0000000000468544                rpl_update_header
 .text          0x0000000000468668      0x726 contiki-native.a(rpl.o)
                0x0000000000468668                rpl_get_mode
                0x0000000000468674                rpl_set_mode
                0x0000000000468730                rpl_purge_routes
                0x0000000000468854                rpl_remove_routes
                0x00000000004688aa                rpl_remove_routes_by_nexthop
                0x000000000046891f                rpl_add_route
                0x0000000000468a1d                rpl_link_neighbor_callback
                0x0000000000468b06                rpl_ipv6_neighbor_callback
                0x0000000000468b8d                rpl_purge_dags
                0x0000000000468ce9                rpl_init
 .text          0x0000000000468d8e      0x3df contiki-native.a(rpl-mrhof.o)
 .text          0x000000000046916d      0x522 contiki-native.a(rpl-ns.o)
                0x000000000046916d                rpl_ns_num_nodes
                0x0000000000469205                rpl_ns_get_node
                0x0000000000469269                rpl_ns_is_node_reachable
                0x0000000000469304                rpl_ns_expire_parent
                0x0000000000469363                rpl_ns_update_node
                0x00000000004694d0                rpl_ns_init
                0x00000000004694fc                rpl_ns_node_head
                0x0000000000469511                rpl_ns_node_next
                0x000000000046952b                rpl_ns_get_node_global_addr
                0x000000000046957d                rpl_ns_periodic
 .text          0x000000000046968f     0x2972 contiki-native.a(rpl-icmp6.o)
                0x00000000004699b8                rpl_icmp6_update_nbr_table
                0x0000000000469aff                dis_output
                0x000000000046a338                dio_output
                0x000000000046b778                dao_output
                0x000000000046b8c8                dao_output_target
                0x000000000046bf22                dao_ack_output
                0x000000000046bfca                rpl_icmp6_register_handlers
 .text          0x000000000046c001      0x6c4 contiki-native.a(rpl-dag-root.o)
                0x000000000046c3ec                rpl_dag_root_init
                0x000000000046c424                rpl_dag_root_init_dag_immediately
                0x000000000046c635                rpl_dag_root_init_dag
                0x000000000046c66f                rpl_dag_root_is_root
 .text          0x000000000046c6c5      0x330 contiki-native.a(queuebuf.o)
                0x000000000046c6d6                queuebuf_init
                0x000000000046c6f5                queuebuf_numfree
                0x000000000046c707                queuebuf_new_from_packetbuf
                0x000000000046c7b0                queuebuf_update_attr_from_packetbuf
                0x000000000046c7ef                queuebuf_update_from_packetbuf
                0x000000000046c847                queuebuf_free
                0x000000000046c896                queuebuf_to_packetbuf
                0x000000000046c908                queuebuf_dataptr
                0x000000000046c948                queuebuf_datalen
                0x000000000046c974                queuebuf_addr
                0x000000000046c9b7                queuebuf_attr
                0x000000000046c9ee                queuebuf_debug_print
 .text          0x000000000046c9f5       0xd3 contiki-native.a(cmd-broker.o)
                0x000000000046c9f5                cmd_broker_subscribe
                0x000000000046ca1a                cmd_broker_unsubscribe
                0x000000000046ca3f                cmd_broker_publish
                0x000000000046cab2                cmd_broker_init
 .text          0x000000000046cac8      0x9aa contiki-native.a(nbr-table.o)
                0x000000000046d060                nbr_table_register
                0x000000000046d0c7                nbr_table_head
                0x000000000046d12e                nbr_table_next
                0x000000000046d1a4                nbr_table_add_lladdr
                0x000000000046d296                nbr_table_get_from_lladdr
                0x000000000046d2ee                nbr_table_remove
                0x000000000046d33e                nbr_table_lock
                0x000000000046d36c                nbr_table_unlock
                0x000000000046d39a                nbr_table_get_lladdr
                0x000000000046d3d9                nbr_table_update_lladdr
 .text          0x000000000046d472      0x4e2 contiki-native.a(packetbuf.o)
                0x000000000046d472                packetbuf_clear
                0x000000000046d49c                packetbuf_copyfrom
                0x000000000046d4f2                packetbuf_compact
                0x000000000046d57d                packetbuf_copyto
                0x000000000046d620                packetbuf_hdralloc
                0x000000000046d6aa                packetbuf_hdrreduce
                0x000000000046d6f6                packetbuf_set_datalen
                0x000000000046d70e                packetbuf_dataptr
                0x000000000046d730                packetbuf_hdrptr
                0x000000000046d73d                packetbuf_datalen
                0x000000000046d74a                packetbuf_hdrlen
                0x000000000046d762                packetbuf_totlen
                0x000000000046d781                packetbuf_remaininglen
                0x000000000046d795                packetbuf_attr_clear
                0x000000000046d7f5                packetbuf_attr_copyto
                0x000000000046d83c                packetbuf_attr_copyfrom
                0x000000000046d883                packetbuf_set_attr
                0x000000000046d8af                packetbuf_attr
                0x000000000046d8cc                packetbuf_set_addr
                0x000000000046d90e                packetbuf_addr
                0x000000000046d934                packetbuf_holds_broadcast
 .text          0x000000000046d954       0x47 contiki-native.a(netstack.o)
                0x000000000046d954                netstack_init
 .text          0x000000000046d99b       0x74 contiki-native.a(linkaddr.o)
                0x000000000046d99b                linkaddr_copy
                0x000000000046d9b8                linkaddr_cmp
                0x000000000046d9ea                linkaddr_set_node_addr
 .text          0x000000000046da0f       0x6c contiki-native.a(net-debug.o)
                0x000000000046da0f                net_debug_lladdr_print
 .text          0x000000000046da7b      0x36f contiki-native.a(link-stats.o)
                0x000000000046da7b                link_stats_from_lladdr
                0x000000000046da9f                link_stats_is_fresh
                0x000000000046daea                guess_etx_from_rssi
                0x000000000046db6b                link_stats_packet_sent
                0x000000000046dc91                link_stats_input_callback
                0x000000000046ddaf                link_stats_init
 .text          0x000000000046ddea       0x86 contiki-native.a(nullmac.o)
 .text          0x000000000046de70      0x118 contiki-native.a(nullrdc-noframe)
 .text          0x000000000046df88     0x1098 contiki-native.a(frame802154e-ie)
                0x000000000046e0b1                frame80215e_create_ie_header_ack_nack_time_correction
                0x000000000046e149                frame80215e_create_ie_header_list_termination_1
                0x000000000046e19a                frame80215e_create_ie_header_list_termination_2
                0x000000000046e1eb                frame80215e_create_ie_payload_list_termination
                0x000000000046e23c                frame80215e_create_ie_mlme
                0x000000000046e293                frame80215e_create_ie_tsch_synchronization
                0x000000000046e35b                frame80215e_create_ie_tsch_slotframe_and_link
                0x000000000046e597                frame80215e_create_ie_tsch_timeslot
                0x000000000046e68b                frame80215e_create_ie_tsch_channel_hopping_sequence
                0x000000000046ecf1                frame802154e_parse_information_elements
 .text          0x000000000046f020      0x1da contiki-native.a(mac-sequence.o)
                0x000000000046f020                mac_sequence_is_duplicate
                0x000000000046f101                mac_sequence_register_seqno
 .text          0x000000000046f1fa       0x54 contiki-native.a(nordc.o)
 .text          0x000000000046f24e      0x9e0 contiki-native.a(csma.o)
                0x000000000046f24e                csma_allocated_packets
                0x000000000046f269                csma_allocated_neighbors
 .text          0x000000000046fc2e      0xd44 contiki-native.a(frame802154.o)
                0x000000000046fc5c                frame802154_get_pan_id
                0x000000000046fc69                frame802154_set_pan_id
                0x000000000046fc81                frame802154_has_panid
                0x000000000046fe5c                frame802154_check_dest_panid
                0x000000000046fef0                frame802154_is_broadcast_addr
                0x000000000046ff43                frame802154_extract_linkaddr
                0x0000000000470231                frame802154_hdrlen
                0x00000000004702ac                frame802154_create
                0x0000000000470572                frame802154_parse
 .text          0x0000000000470972       0xc7 contiki-native.a(framer-nullmac.)
 .text          0x0000000000470a39       0x48 contiki-native.a(mac.o)
                0x0000000000470a39                mac_call_sent_callback
 .text          0x0000000000470a81      0x3b1 contiki-native.a(framer-802154.o)
                0x0000000000470a81                framer_802154_set_seqno
 .text          0x0000000000470e32      0x3ce contiki-native.a(phase.o)
                0x0000000000470e32                phase_update
                0x0000000000470fec                phase_wait
                0x00000000004711d9                phase_init
 .text          0x0000000000471200      0x20f contiki-native.a(nullrdc.o)
 .text          0x000000000047140f       0x4c contiki-native.a(ctk-textentry-c)
                0x000000000047140f                ctk_textentry_cmdline_input
 .text          0x000000000047145b      0x417 contiki-native.a(ctk-filedialog.)
                0x000000000047151f                ctk_filedialog_init
                0x000000000047152d                ctk_filedialog_open
                0x00000000004716b9                ctk_filedialog_eventhandler
 .text          0x0000000000471872       0x80 contiki-native.a(ctk-textentry-c)
                0x0000000000471872                ctk_textentry_checkbox_input
 .text          0x00000000004718f2      0x21c contiki-native.a(ctk-textentry-m)
                0x00000000004718f2                ctk_textentry_multiline_input
 .text          0x0000000000471b0e     0x113b contiki-native.a(ctk.o)
                0x0000000000471b0e                ctk_restore
                0x0000000000471b37                ctk_mode_set
                0x0000000000471b4d                ctk_mode_get
                0x0000000000471b5a                ctk_icon_add
                0x0000000000471b65                ctk_window_open
                0x0000000000471b86                ctk_window_close
                0x0000000000471b91                ctk_window_clear
                0x0000000000471bd1                ctk_menu_add
                0x0000000000471bdc                ctk_menu_remove
                0x0000000000471c6f                ctk_window_redraw
                0x0000000000471d44                ctk_window_new
                0x0000000000471d78                ctk_menu_new
                0x0000000000471d83                ctk_menuitem_add
                0x0000000000471e90                ctk_widget_redraw
                0x0000000000471ebf                ctk_widget_add
                0x0000000000471f04                ctk_desktop_width
                0x0000000000471f17                ctk_desktop_height
 .text          0x0000000000472c49       0x6e contiki-native.a(nullsec.o)
 .text          0x0000000000472cb7      0x1ca contiki-native.a(anti-replay.o)
                0x0000000000472cb7                anti_replay_parse_counter
                0x0000000000472d18                order_and_set_counter
                0x0000000000472d75                anti_replay_set_counter
                0x0000000000472dad                anti_replay_get_counter
                0x0000000000472df9                anti_replay_init_info
                0x0000000000472e1e                anti_replay_was_replayed
 .text          0x0000000000472e81       0xc5 contiki-native.a(ccm-star-packet)
                0x0000000000472e8f                ccm_star_packetbuf_set_nonce
 .text          0x0000000000472f46        0x0 contiki-native.a(symbols.o)
 *fill*         0x0000000000472f46        0xa 
 .text          0x0000000000472f50       0x1f /usr/lib/x86_64-linux-gnu/libpthread_nonshared.a(pthread_atfork.oS)
                0x0000000000472f50                __pthread_atfork
                0x0000000000472f50                pthread_atfork
 *fill*         0x0000000000472f6f        0x1 
 .text          0x0000000000472f70       0x72 /usr/lib/x86_64-linux-gnu/libc_nonshared.a(elf-init.oS)
                0x0000000000472f70                __libc_csu_init
                0x0000000000472fe0                __libc_csu_fini
 *fill*         0x0000000000472fe2        0xe 
 .text          0x0000000000472ff0       0x29 /usr/lib/x86_64-linux-gnu/libc_nonshared.a(atexit.oS)
                0x0000000000472ff0                atexit
 *fill*         0x0000000000473019        0x7 
 .text          0x0000000000473020        0xf /usr/lib/x86_64-linux-gnu/libc_nonshared.a(fstat.oS)
                0x0000000000473020                fstat
                0x0000000000473020                __fstat
 .text          0x000000000047302f        0x0 /usr/lib/gcc/x86_64-linux-gnu/5/crtend.o
 .text          0x000000000047302f        0x0 /usr/lib/gcc/x86_64-linux-gnu/5/../../../x86_64-linux-gnu/crtn.o
 *(.gnu.warning)

.fini           0x0000000000473030        0x9
 *(SORT(.fini))
 .fini          0x0000000000473030        0x4 /usr/lib/gcc/x86_64-linux-gnu/5/../../../x86_64-linux-gnu/crti.o
                0x0000000000473030                _fini
 .fini          0x0000000000473034        0x5 /usr/lib/gcc/x86_64-linux-gnu/5/../../../x86_64-linux-gnu/crtn.o
                [!provide]                        PROVIDE (__etext, .)
                [!provide]                        PROVIDE (_etext, .)
                [!provide]                        PROVIDE (etext, .)

.rodata         0x0000000000473040     0x9460
 *(.rodata .rodata.* .gnu.linkonce.r.*)
 .rodata.cst4   0x0000000000473040        0x4 /usr/lib/gcc/x86_64-linux-gnu/5/../../../x86_64-linux-gnu/crt1.o
                0x0000000000473040                _IO_stdin_used
 *fill*         0x0000000000473044        0x4 
 .rodata        0x0000000000473048      0x26d cetic-6lbr.co
 *fill*         0x00000000004732b5        0x3 
 .rodata        0x00000000004732b8       0xf8 obj_native/native-init.o
 .rodata        0x00000000004733b0       0x73 obj_native/native-nvm.o
 .rodata        0x0000000000473423       0x27 obj_native/native-config.o
 *fill*         0x000000000047344a        0x6 
 .rodata        0x0000000000473450       0xb8 obj_native/native-config-file.o
 .rodata        0x0000000000473508      0x209 obj_native/native-config-handlers.o
 .rodata        0x0000000000473711       0x9e obj_native/raw-tap-eth-drv.o
 *fill*         0x00000000004737af        0x1 
 .rodata        0x00000000004737b0      0x203 obj_native/raw-tap-dev.o
 *fill*         0x00000000004739b3        0x5 
 .rodata        0x00000000004739b8      0x2a3 obj_native/native-rdc.o
 *fill*         0x0000000000473c5b        0x5 
 .rodata        0x0000000000473c60      0x14b obj_native/slip-cmds.o
 *fill*         0x0000000000473dab        0x5 
 .rodata        0x0000000000473db0      0x588 obj_native/native-args.o
 .rodata        0x0000000000474338      0x248 obj_native/slip-dev.o
 .rodata        0x0000000000474580       0x76 obj_native/6lbr-watchdog.o
 *fill*         0x00000000004745f6        0x2 
 .rodata        0x00000000004745f8      0x149 obj_native/plugin.o
 .rodata        0x0000000000474741        0x9 obj_native/ini.o
 *fill*         0x000000000047474a        0x6 
 .rodata        0x0000000000474750       0x51 obj_native/log-6lbr.o
 *fill*         0x00000000004747a1        0x7 
 .rodata        0x00000000004747a8      0x138 obj_native/rio.o
 .rodata        0x00000000004748e0      0x3ed obj_native/packet-forwarding-engine.o
 *fill*         0x0000000000474ccd        0x3 
 .rodata        0x0000000000474cd0       0x64 obj_native/sicslow-ethernet.o
 *fill*         0x0000000000474d34        0x4 
 .rodata        0x0000000000474d38       0xd1 obj_native/nvm-config.o
 *fill*         0x0000000000474e09        0x7 
 .rodata        0x0000000000474e10       0x85 obj_native/mac-wrapper.o
 *fill*         0x0000000000474e95        0x3 
 .rodata        0x0000000000474e98       0x5d obj_native/switch-lookup.o
 *fill*         0x0000000000474ef5        0x3 
 .rodata        0x0000000000474ef8       0x84 obj_native/multi-radio.o
 *fill*         0x0000000000474f7c        0x4 
 .rodata        0x0000000000474f80       0xf4 obj_native/llsec-wrapper.o
 *fill*         0x0000000000475074        0x4 
 .rodata        0x0000000000475078       0xae obj_native/framer-wrapper.o
 *fill*         0x0000000000475126        0x2 
 .rodata        0x0000000000475128       0x86 obj_native/strategy-wrapper.o
 .rodata        0x00000000004751ae       0x1b contiki-native.a(cmd.o)
 *fill*         0x00000000004751c9       0x17 
 .rodata        0x00000000004751e0      0x1cf contiki-native.a(httpd.o)
                0x00000000004751e0                http_content_type_html
                0x0000000000475200                http_header_200
                0x0000000000475260                http_header_404
                0x00000000004752e5                http_get
                0x00000000004752ea                http_put
                0x00000000004752ef                http_post
                0x00000000004752f8                http_delete
                0x0000000000475300                http_index_html
 .rodata        0x00000000004753af       0x48 contiki-native.a(httpd-cgi.o)
 .rodata        0x00000000004753f7       0x3e contiki-native.a(webserver.o)
 *fill*         0x0000000000475435        0x3 
 .rodata        0x0000000000475438      0x36e contiki-native.a(webserver-utils)
 *fill*         0x00000000004757a6        0x2 
 .rodata        0x00000000004757a8      0x136 contiki-native.a(webserver-main.)
 *fill*         0x00000000004758de        0x2 
 .rodata        0x00000000004758e0      0x3d1 contiki-native.a(webserver-netwo)
 *fill*         0x0000000000475cb1        0x7 
 .rodata        0x0000000000475cb8     0x2315 contiki-native.a(webserver-confi)
 *fill*         0x0000000000477fcd        0x3 
 .rodata        0x0000000000477fd0      0x589 contiki-native.a(webserver-stati)
 *fill*         0x0000000000478559        0x7 
 .rodata        0x0000000000478560      0x42f contiki-native.a(webserver-admin)
 *fill*         0x000000000047898f        0x1 
 .rodata        0x0000000000478990      0x344 contiki-native.a(webserver-log.o)
 *fill*         0x0000000000478cd4        0x4 
 .rodata        0x0000000000478cd8      0x402 contiki-native.a(webserver-rpl.o)
 .rodata        0x00000000004790da       0x30 contiki-native.a(webserver-file.)
 *fill*         0x000000000047910a        0x6 
 .rodata        0x0000000000479110      0x9e8 contiki-native.a(webserver-senso)
 .rodata        0x0000000000479af8      0x368 contiki-native.a(webserver-senso)
 .rodata        0x0000000000479e60      0x107 contiki-native.a(webserver-node-)
 .rodata        0x0000000000479f67       0x7d contiki-native.a(udp-server.o)
 .rodata        0x0000000000479fe4       0x70 contiki-native.a(node-config.o)
 *fill*         0x000000000047a054        0x4 
 .rodata        0x000000000047a058       0xd0 contiki-native.a(node-config-ip6)
 .rodata        0x000000000047a128      0x1c2 contiki-native.a(node-config-fil)
 *fill*         0x000000000047a2ea        0x6 
 .rodata        0x000000000047a2f0      0x207 contiki-native.a(node-info.o)
 *fill*         0x000000000047a4f7        0x1 
 .rodata        0x000000000047a4f8      0x1f2 contiki-native.a(node-info-expor)
 *fill*         0x000000000047a6ea        0x6 
 .rodata        0x000000000047a6f0      0x330 contiki-native.a(webserver-node-)
 .rodata        0x000000000047aa20       0x8e contiki-native.a(dns-proxy.o)
 *fill*         0x000000000047aaae        0x2 
 .rodata        0x000000000047aab0      0x1b0 contiki-native.a(er-coap.o)
 .rodata        0x000000000047ac60       0x66 contiki-native.a(er-coap-engine.)
 .rodata        0x000000000047acc6       0x11 contiki-native.a(er-coap-observe)
 .rodata        0x000000000047acd7        0xd contiki-native.a(er-coap-separat)
 .rodata        0x000000000047ace4       0x1e contiki-native.a(er-coap-res-wel)
 .rodata        0x000000000047ad02       0x19 contiki-native.a(er-coap-block1.)
 .rodata        0x000000000047ad1b        0xc contiki-native.a(rest-engine.o)
 .rodata        0x000000000047ad27       0x14 contiki-native.a(coap-server.o)
 *fill*         0x000000000047ad3b        0x1 
 .rodata        0x000000000047ad3c       0x84 contiki-native.a(coap-common.o)
 .rodata        0x000000000047adc0       0xe2 contiki-native.a(coap-push.o)
 .rodata        0x000000000047aea2       0x13 contiki-native.a(core-interface.)
 .rodata        0x000000000047aeb5       0xab contiki-native.a(coap-binding.o)
 .rodata        0x000000000047af60      0x12e contiki-native.a(rd-client.o)
 *fill*         0x000000000047b08e        0x2 
 .rodata        0x000000000047b090       0x78 contiki-native.a(rest-type-text.)
 .rodata        0x000000000047b108       0x94 contiki-native.a(rest-type-json.)
 .rodata        0x000000000047b19c       0xa4 contiki-native.a(rest-type-senml)
 .rodata        0x000000000047b240       0x94 contiki-native.a(rest-type-xml.o)
 .rodata        0x000000000047b2d4       0x18 contiki-native.a(ctk-conio.o)
 *fill*         0x000000000047b2ec        0x4 
 .rodata        0x000000000047b2f0       0x82 contiki-native.a(contiki-main.o)
 .rodata        0x000000000047b372        0x7 contiki-native.a(button-sensor.o)
 .rodata        0x000000000047b379        0x4 contiki-native.a(pir-sensor.o)
 .rodata        0x000000000047b37d        0xa contiki-native.a(vib-sensor.o)
 .rodata        0x000000000047b387        0x8 contiki-native.a(sensors.o)
 .rodata        0x000000000047b38f        0xd contiki-native.a(ctk-curses.o)
 .rodata        0x000000000047b39c        0xb contiki-native.a(tapdev-drv.o)
 .rodata        0x000000000047b3a7       0x51 contiki-native.a(linuxradio-drv.)
 .rodata        0x000000000047b3f8       0x6f contiki-native.a(tapdev6.o)
 *fill*         0x000000000047b467       0x19 
 .rodata        0x000000000047b480      0x1b1 contiki-native.a(elfloader-stub.)
 *fill*         0x000000000047b631        0x7 
 .rodata        0x000000000047b638      0x176 contiki-native.a(eeprom.o)
 .rodata        0x000000000047b7ae        0xb contiki-native.a(noncoresec.o)
 *fill*         0x000000000047b7b9        0x3 
 .rodata        0x000000000047b7bc       0x48 contiki-native.a(akes.o)
 .rodata        0x000000000047b804        0xf contiki-native.a(akes-delete.o)
 *fill*         0x000000000047b813        0xd 
 .rodata        0x000000000047b820       0x10 contiki-native.a(akes-single.o)
 .rodata        0x000000000047b830       0x54 contiki-native.a(adaptivesec.o)
 .rodata        0x000000000047b884        0xa contiki-native.a(ip64-arp.o)
 .rodata        0x000000000047b88e       0x1a contiki-native.a(ip64-ipv4-dhcp.)
 .rodata        0x000000000047b8a8       0x11 contiki-native.a(ip64-slip-inter)
 .rodata        0x000000000047b8b9        0x4 contiki-native.a(ip64-dhcpc.o)
 .rodata        0x000000000047b8bd        0xf contiki-native.a(ctimer.o)
 .rodata        0x000000000047b8cc        0xc contiki-native.a(etimer.o)
 .rodata        0x000000000047b8d8        0xe contiki-native.a(serial-line.o)
 .rodata        0x000000000047b8e6       0x3d contiki-native.a(slip.o)
 *fill*         0x000000000047b923       0x1d 
 .rodata        0x000000000047b940      0x400 contiki-native.a(me_tabs.o)
                0x000000000047b940                me_encode_tab
                0x000000000047bb40                me_decode_tab
                0x000000000047bc40                me_valid_tab
 .rodata        0x000000000047bd40       0x4b contiki-native.a(iq-seeder.o)
 *fill*         0x000000000047bd8b       0x15 
 .rodata        0x000000000047bda0       0x78 contiki-native.a(ifft.o)
 .rodata        0x000000000047be18        0xc contiki-native.a(null-seeder.o)
 *fill*         0x000000000047be24       0x1c 
 .rodata        0x000000000047be40       0x40 contiki-native.a(gcr.o)
 .rodata        0x000000000047be80      0x100 contiki-native.a(aes-128.o)
 .rodata        0x000000000047bf80       0x25 contiki-native.a(assert.o)
 .rodata        0x000000000047bfa5       0x23 contiki-native.a(websocket.o)
 .rodata        0x000000000047bfc8       0x28 contiki-native.a(uip-ds6.o)
 .rodata        0x000000000047bff0      0x13c contiki-native.a(uip6.o)
 *fill*         0x000000000047c12c        0x4 
 .rodata        0x000000000047c130       0xdf contiki-native.a(websocket-http-)
 .rodata        0x000000000047c20f       0x1d contiki-native.a(sicslowpan.o)
                0x000000000047c20f                unc_llconf
                0x000000000047c213                unc_ctxconf
                0x000000000047c217                unc_mxconf
                0x000000000047c21b                llprefix
 .rodata        0x000000000047c22c       0x3c contiki-native.a(uip-debug.o)
 .rodata        0x000000000047c268       0x13 contiki-native.a(tcp-socket.o)
 .rodata        0x000000000047c27b        0x4 contiki-native.a(dhcpc.o)
 .rodata        0x000000000047c27f        0xd contiki-native.a(tcpip.o)
 *fill*         0x000000000047c28c        0x4 
 .rodata        0x000000000047c290       0x72 contiki-native.a(resolv.o)
 .rodata        0x000000000047c302       0x13 contiki-native.a(udp-socket.o)
 .rodata        0x000000000047c315       0x13 contiki-native.a(simple-udp.o)
 .rodata        0x000000000047c328       0x88 contiki-native.a(rpl-dag.o)
 .rodata        0x000000000047c3b0       0x11 contiki-native.a(rpl-dag-root.o)
 *fill*         0x000000000047c3c1        0x7 
 .rodata        0x000000000047c3c8        0x8 contiki-native.a(linkaddr.o)
                0x000000000047c3c8                linkaddr_null
 .rodata        0x000000000047c3d0       0x14 contiki-native.a(net-debug.o)
 .rodata        0x000000000047c3e4        0x8 contiki-native.a(nullmac.o)
 .rodata        0x000000000047c3ec       0x11 contiki-native.a(nullrdc-noframe)
 .rodata        0x000000000047c3fd        0x6 contiki-native.a(nordc.o)
 .rodata        0x000000000047c403        0x5 contiki-native.a(csma.o)
 .rodata        0x000000000047c408        0x8 contiki-native.a(nullrdc.o)
 .rodata        0x000000000047c410        0x2 contiki-native.a(ctk-filedialog.)
 *fill*         0x000000000047c412        0x2 
 .rodata        0x000000000047c414       0x58 contiki-native.a(ctk.o)
 .rodata        0x000000000047c46c        0x8 contiki-native.a(nullsec.o)
 *fill*         0x000000000047c474        0xc 
 .rodata        0x000000000047c480       0x20 contiki-native.a(symbols.o)
                0x000000000047c480                symbols_nelts
                0x000000000047c490                symbols

.rodata1
 *(.rodata1)

.eh_frame_hdr   0x000000000047c4a0     0x32a4
 *(.eh_frame_hdr)
 .eh_frame_hdr  0x000000000047c4a0     0x32a4 /usr/lib/gcc/x86_64-linux-gnu/5/../../../x86_64-linux-gnu/crt1.o
                0x000000000047c4a0                __GNU_EH_FRAME_HDR
 *(.eh_frame_entry .eh_frame_entry.*)

.eh_frame       0x000000000047f748     0xce34
 *(.eh_frame)
 .eh_frame      0x000000000047f748       0x30 /usr/lib/gcc/x86_64-linux-gnu/5/../../../x86_64-linux-gnu/crt1.o
 .eh_frame      0x000000000047f778       0x40 /usr/lib/gcc/x86_64-linux-gnu/5/../../../x86_64-linux-gnu/crt1.o
 .eh_frame      0x000000000047f7b8      0x1e8 cetic-6lbr.co
                                        0x200 (size before relaxing)
 .eh_frame      0x000000000047f9a0      0x120 obj_native/native-init.o
                                        0x138 (size before relaxing)
 .eh_frame      0x000000000047fac0       0x40 obj_native/native-nvm.o
                                         0x58 (size before relaxing)
 .eh_frame      0x000000000047fb00       0x80 obj_native/native-config-file.o
                                         0x98 (size before relaxing)
 .eh_frame      0x000000000047fb80       0xb0 obj_native/native-config-handlers.o
                                         0xc0 (size before relaxing)
 .eh_frame      0x000000000047fc30       0xa0 obj_native/raw-tap-eth-drv.o
                                         0xb8 (size before relaxing)
 .eh_frame      0x000000000047fcd0      0x180 obj_native/raw-tap-dev.o
                                        0x198 (size before relaxing)
 .eh_frame      0x000000000047fe50      0x2f0 obj_native/native-rdc.o
                                        0x300 (size before relaxing)
 .eh_frame      0x0000000000480140       0x60 obj_native/slip-cmds.o
                                         0x78 (size before relaxing)
 .eh_frame      0x00000000004801a0       0x28 obj_native/native-args.o
                                         0x40 (size before relaxing)
 .eh_frame      0x00000000004801c8      0x2a8 obj_native/slip-dev.o
                                        0x2c0 (size before relaxing)
 .eh_frame      0x0000000000480470       0x40 obj_native/6lbr-watchdog.o
                                         0x58 (size before relaxing)
 .eh_frame      0x00000000004804b0       0xa8 obj_native/plugin.o
                                         0xc0 (size before relaxing)
 .eh_frame      0x0000000000480558      0x120 obj_native/lost-symbols.o
                                        0x138 (size before relaxing)
 .eh_frame      0x0000000000480678       0xe0 obj_native/ini.o
                                         0xf8 (size before relaxing)
 .eh_frame      0x0000000000480758       0x60 obj_native/log-6lbr.o
                                         0x78 (size before relaxing)
 .eh_frame      0x00000000004807b8       0x88 obj_native/rio.o
                                         0xa0 (size before relaxing)
 .eh_frame      0x0000000000480840       0xe8 obj_native/packet-forwarding-engine.o
                                        0x100 (size before relaxing)
 .eh_frame      0x0000000000480928       0xc8 obj_native/sicslow-ethernet.o
                                         0xe0 (size before relaxing)
 .eh_frame      0x00000000004809f0       0x60 obj_native/nvm-config.o
                                         0x78 (size before relaxing)
 .eh_frame      0x0000000000480a50      0x100 obj_native/mac-wrapper.o
                                        0x118 (size before relaxing)
 .eh_frame      0x0000000000480b50       0x40 obj_native/switch-lookup.o
                                         0x58 (size before relaxing)
 .eh_frame      0x0000000000480b90       0xa0 obj_native/network-itf.o
                                         0xb8 (size before relaxing)
 .eh_frame      0x0000000000480c30       0xf0 obj_native/multi-radio.o
                                        0x100 (size before relaxing)
 .eh_frame      0x0000000000480d20       0xa0 obj_native/llsec-wrapper.o
                                         0xb8 (size before relaxing)
 .eh_frame      0x0000000000480dc0       0x80 obj_native/framer-wrapper.o
                                         0x98 (size before relaxing)
 .eh_frame      0x0000000000480e40       0xc0 obj_native/strategy-wrapper.o
                                         0xd8 (size before relaxing)
 .eh_frame      0x0000000000480f00       0x40 obj_native/ip64-eth-driver.o
                                         0x58 (size before relaxing)
 .eh_frame      0x0000000000480f40       0x40 contiki-native.a(cmd.o)
                                         0x58 (size before relaxing)
 .eh_frame      0x0000000000480f80       0x40 contiki-native.a(packetutils.o)
                                         0x58 (size before relaxing)
 .eh_frame      0x0000000000480fc0      0x100 contiki-native.a(httpd.o)
                                        0x118 (size before relaxing)
 .eh_frame      0x00000000004810c0      0x120 contiki-native.a(httpd-cgi.o)
                                        0x138 (size before relaxing)
 .eh_frame      0x00000000004811e0       0x20 contiki-native.a(httpd-urlconv.o)
                                         0x38 (size before relaxing)
 .eh_frame      0x0000000000481200       0x20 contiki-native.a(webserver.o)
                                         0x38 (size before relaxing)
 .eh_frame      0x0000000000481220      0x228 contiki-native.a(webserver-utils)
                                        0x240 (size before relaxing)
 .eh_frame      0x0000000000481448       0x20 contiki-native.a(webserver-main.)
                                         0x38 (size before relaxing)
 .eh_frame      0x0000000000481468       0xa8 contiki-native.a(webserver-netwo)
                                         0xc0 (size before relaxing)
 .eh_frame      0x0000000000481510       0x80 contiki-native.a(webserver-confi)
                                         0x98 (size before relaxing)
 .eh_frame      0x0000000000481590       0x20 contiki-native.a(webserver-stati)
                                         0x38 (size before relaxing)
 .eh_frame      0x00000000004815b0       0xa8 contiki-native.a(webserver-admin)
                                         0xc0 (size before relaxing)
 .eh_frame      0x0000000000481658       0x80 contiki-native.a(webserver-log.o)
                                         0x98 (size before relaxing)
 .eh_frame      0x00000000004816d8       0x88 contiki-native.a(webserver-rpl.o)
                                         0xa0 (size before relaxing)
 .eh_frame      0x0000000000481760       0x20 contiki-native.a(webserver-file.)
                                         0x38 (size before relaxing)
 .eh_frame      0x0000000000481780       0xe8 contiki-native.a(webserver-senso)
                                        0x100 (size before relaxing)
 .eh_frame      0x0000000000481868       0x60 contiki-native.a(webserver-senso)
                                         0x78 (size before relaxing)
 .eh_frame      0x00000000004818c8       0x20 contiki-native.a(webserver-node-)
                                         0x38 (size before relaxing)
 .eh_frame      0x00000000004818e8       0x60 contiki-native.a(udp-server.o)
                                         0x78 (size before relaxing)
 .eh_frame      0x0000000000481948       0xc0 contiki-native.a(node-config.o)
                                         0xd8 (size before relaxing)
 .eh_frame      0x0000000000481a08       0x80 contiki-native.a(node-config-ip6)
                                         0x98 (size before relaxing)
 .eh_frame      0x0000000000481a88      0x100 contiki-native.a(node-config-fil)
                                        0x118 (size before relaxing)
 .eh_frame      0x0000000000481b88      0x1f0 contiki-native.a(node-info.o)
                                        0x208 (size before relaxing)
 .eh_frame      0x0000000000481d78      0x180 contiki-native.a(node-info-expor)
                                        0x198 (size before relaxing)
 .eh_frame      0x0000000000481ef8       0x60 contiki-native.a(webserver-node-)
                                         0x78 (size before relaxing)
 .eh_frame      0x0000000000481f58       0x68 contiki-native.a(dns-proxy.o)
                                         0x80 (size before relaxing)
 .eh_frame      0x0000000000481fc0      0x6a8 contiki-native.a(er-coap.o)
                                        0x6c0 (size before relaxing)
 .eh_frame      0x0000000000482668       0xf0 contiki-native.a(er-coap-engine.)
                                        0x100 (size before relaxing)
 .eh_frame      0x0000000000482758       0xe0 contiki-native.a(er-coap-transac)
                                         0xf8 (size before relaxing)
 .eh_frame      0x0000000000482838      0x128 contiki-native.a(er-coap-observe)
                                        0x140 (size before relaxing)
 .eh_frame      0x0000000000482960       0x60 contiki-native.a(er-coap-separat)
                                         0x78 (size before relaxing)
 .eh_frame      0x00000000004829c0       0x28 contiki-native.a(er-coap-res-wel)
                                         0x40 (size before relaxing)
 .eh_frame      0x00000000004829e8       0x20 contiki-native.a(er-coap-block1.)
                                         0x38 (size before relaxing)
 .eh_frame      0x0000000000482a08       0x60 contiki-native.a(er-coap-udp.o)
                                         0x78 (size before relaxing)
 .eh_frame      0x0000000000482a68       0xa0 contiki-native.a(rest-engine.o)
                                         0xb8 (size before relaxing)
 .eh_frame      0x0000000000482b08       0x20 contiki-native.a(coap-server.o)
                                         0x38 (size before relaxing)
 .eh_frame      0x0000000000482b28       0x28 contiki-native.a(block-transfer.)
                                         0x40 (size before relaxing)
 .eh_frame      0x0000000000482b50      0x170 contiki-native.a(coap-common.o)
                                        0x180 (size before relaxing)
 .eh_frame      0x0000000000482cc0       0xf0 contiki-native.a(coap-push.o)
                                        0x100 (size before relaxing)
 .eh_frame      0x0000000000482db0       0x60 contiki-native.a(core-interface.)
                                         0x78 (size before relaxing)
 .eh_frame      0x0000000000482e10      0x100 contiki-native.a(coap-binding.o)
                                        0x118 (size before relaxing)
 .eh_frame      0x0000000000482f10       0x40 contiki-native.a(coap-linked-bat)
                                         0x58 (size before relaxing)
 .eh_frame      0x0000000000482f50      0x100 contiki-native.a(rd-client.o)
                                        0x118 (size before relaxing)
 .eh_frame      0x0000000000483050       0xe0 contiki-native.a(rest-type-text.)
                                         0xf8 (size before relaxing)
 .eh_frame      0x0000000000483130       0xe0 contiki-native.a(rest-type-json.)
                                         0xf8 (size before relaxing)
 .eh_frame      0x0000000000483210       0xe0 contiki-native.a(rest-type-senml)
                                         0xf8 (size before relaxing)
 .eh_frame      0x00000000004832f0       0xe0 contiki-native.a(rest-type-xml.o)
                                         0xf8 (size before relaxing)
 .eh_frame      0x00000000004833d0      0x140 contiki-native.a(ctk-conio.o)
                                        0x158 (size before relaxing)
 .eh_frame      0x0000000000483510       0xa0 contiki-native.a(contiki-main.o)
                                         0xb8 (size before relaxing)
 .eh_frame      0x00000000004835b0       0x80 contiki-native.a(clock.o)
                                         0x98 (size before relaxing)
 .eh_frame      0x0000000000483630      0x100 contiki-native.a(leds.o)
                                        0x118 (size before relaxing)
 .eh_frame      0x0000000000483730       0x60 contiki-native.a(leds-arch.o)
                                         0x78 (size before relaxing)
 .eh_frame      0x0000000000483790       0x80 contiki-native.a(button-sensor.o)
                                         0x98 (size before relaxing)
 .eh_frame      0x0000000000483810       0x80 contiki-native.a(pir-sensor.o)
                                         0x98 (size before relaxing)
 .eh_frame      0x0000000000483890       0x80 contiki-native.a(vib-sensor.o)
                                         0x98 (size before relaxing)
 .eh_frame      0x0000000000483910       0x80 contiki-native.a(xmem.o)
                                         0x98 (size before relaxing)
 .eh_frame      0x0000000000483990       0xc0 contiki-native.a(sensors.o)
                                         0xd8 (size before relaxing)
 .eh_frame      0x0000000000483a50       0x20 contiki-native.a(irq.o)
                                         0x38 (size before relaxing)
 .eh_frame      0x0000000000483a70       0xc0 contiki-native.a(cfs-posix.o)
                                         0xd8 (size before relaxing)
 .eh_frame      0x0000000000483b30       0x60 contiki-native.a(cfs-posix-dir.o)
                                         0x78 (size before relaxing)
 .eh_frame      0x0000000000483b90      0x4a0 contiki-native.a(ctk-curses.o)
                                        0x4b8 (size before relaxing)
 .eh_frame      0x0000000000484030       0x48 contiki-native.a(tapdev-drv.o)
                                         0x60 (size before relaxing)
 .eh_frame      0x0000000000484078      0x188 contiki-native.a(linuxradio-drv.)
                                        0x1a0 (size before relaxing)
 .eh_frame      0x0000000000484200       0xe0 contiki-native.a(tapdev6.o)
                                         0xf8 (size before relaxing)
 .eh_frame      0x00000000004842e0      0x100 contiki-native.a(mtarch.o)
                                        0x118 (size before relaxing)
 .eh_frame      0x00000000004843e0       0x60 contiki-native.a(rtimer-arch.o)
                                         0x78 (size before relaxing)
 .eh_frame      0x0000000000484440       0x80 contiki-native.a(elfloader-stub.)
                                         0x98 (size before relaxing)
 .eh_frame      0x00000000004844c0       0xa0 contiki-native.a(watchdog.o)
                                         0xb8 (size before relaxing)
 .eh_frame      0x0000000000484560       0x80 contiki-native.a(eeprom.o)
                                         0x98 (size before relaxing)
 .eh_frame      0x00000000004845e0      0x100 contiki-native.a(noncoresec.o)
                                        0x118 (size before relaxing)
 .eh_frame      0x00000000004846e0      0x218 contiki-native.a(akes.o)
                                        0x228 (size before relaxing)
 .eh_frame      0x00000000004848f8       0x60 contiki-native.a(akes-delete.o)
                                         0x78 (size before relaxing)
 .eh_frame      0x0000000000484958      0x180 contiki-native.a(akes-trickle.o)
                                        0x198 (size before relaxing)
 .eh_frame      0x0000000000484ad8       0xa8 contiki-native.a(noncoresec-stra)
                                         0xc0 (size before relaxing)
 .eh_frame      0x0000000000484b80       0x40 contiki-native.a(akes-single.o)
                                         0x58 (size before relaxing)
 .eh_frame      0x0000000000484bc0      0x1d0 contiki-native.a(adaptivesec.o)
                                        0x1e8 (size before relaxing)
 .eh_frame      0x0000000000484d90      0x248 contiki-native.a(akes-nbr.o)
                                        0x260 (size before relaxing)
 .eh_frame      0x0000000000484fd8       0x40 contiki-native.a(ip64-dns64.o)
                                         0x58 (size before relaxing)
 .eh_frame      0x0000000000485018      0x108 contiki-native.a(ip64-arp.o)
                                        0x110 (size before relaxing)
 .eh_frame      0x0000000000485120      0x148 contiki-native.a(ip64-addrmap.o)
                                        0x160 (size before relaxing)
 .eh_frame      0x0000000000485268       0x88 contiki-native.a(ip64-ipv4-dhcp.)
                                         0xa0 (size before relaxing)
 .eh_frame      0x00000000004852f0       0x40 contiki-native.a(ip64-null-drive)
                                         0x58 (size before relaxing)
 .eh_frame      0x0000000000485330       0x60 contiki-native.a(ip64-eth-interf)
                                         0x78 (size before relaxing)
 .eh_frame      0x0000000000485390      0x250 contiki-native.a(ip64.o)
                                        0x268 (size before relaxing)
 .eh_frame      0x00000000004855e0       0x80 contiki-native.a(ip64-slip-inter)
                                         0x98 (size before relaxing)
 .eh_frame      0x0000000000485660      0x1f0 contiki-native.a(ip64-dhcpc.o)
                                        0x200 (size before relaxing)
 .eh_frame      0x0000000000485850       0x20 contiki-native.a(ip64-eth.o)
                                         0x38 (size before relaxing)
 .eh_frame      0x0000000000485870       0x40 contiki-native.a(autostart.o)
                                         0x58 (size before relaxing)
 .eh_frame      0x00000000004858b0       0xc0 contiki-native.a(stimer.o)
                                         0xd8 (size before relaxing)
 .eh_frame      0x0000000000485970       0x80 contiki-native.a(energest.o)
                                         0x98 (size before relaxing)
 .eh_frame      0x00000000004859f0       0x60 contiki-native.a(arg.o)
                                         0x78 (size before relaxing)
 .eh_frame      0x0000000000485a50      0x100 contiki-native.a(ctimer.o)
                                        0x118 (size before relaxing)
 .eh_frame      0x0000000000485b50      0x1e0 contiki-native.a(etimer.o)
                                        0x1f8 (size before relaxing)
 .eh_frame      0x0000000000485d30       0xa0 contiki-native.a(compower.o)
                                         0xb8 (size before relaxing)
 .eh_frame      0x0000000000485dd0      0x1c8 contiki-native.a(process.o)
                                        0x1e0 (size before relaxing)
 .eh_frame      0x0000000000485f98       0x60 contiki-native.a(rtimer.o)
                                         0x78 (size before relaxing)
 .eh_frame      0x0000000000485ff8       0xe0 contiki-native.a(mt.o)
                                         0xf8 (size before relaxing)
 .eh_frame      0x00000000004860d8       0x20 contiki-native.a(procinit.o)
                                         0x38 (size before relaxing)
 .eh_frame      0x00000000004860f8       0xa0 contiki-native.a(timer.o)
                                         0xb8 (size before relaxing)
 .eh_frame      0x0000000000486198       0x80 contiki-native.a(serial-line.o)
                                         0x98 (size before relaxing)
 .eh_frame      0x0000000000486218      0x100 contiki-native.a(slip.o)
                                        0x118 (size before relaxing)
 .eh_frame      0x0000000000486318      0x1c0 contiki-native.a(nullradio.o)
                                        0x1d8 (size before relaxing)
 .eh_frame      0x00000000004864d8       0x40 contiki-native.a(crc16.o)
                                         0x58 (size before relaxing)
 .eh_frame      0x0000000000486518       0x60 contiki-native.a(mmem.o)
                                         0x78 (size before relaxing)
 .eh_frame      0x0000000000486578       0xc8 contiki-native.a(iq-seeder.o)
                                         0xe0 (size before relaxing)
 .eh_frame      0x0000000000486640       0xc0 contiki-native.a(ccm-star.o)
                                         0xd8 (size before relaxing)
 .eh_frame      0x0000000000486700       0xa0 contiki-native.a(ifft.o)
                                         0xb8 (size before relaxing)
 .eh_frame      0x00000000004867a0       0x20 contiki-native.a(null-seeder.o)
                                         0x38 (size before relaxing)
 .eh_frame      0x00000000004867c0      0x120 contiki-native.a(ringbufindex.o)
                                        0x138 (size before relaxing)
 .eh_frame      0x00000000004868e0      0x180 contiki-native.a(list.o)
                                        0x198 (size before relaxing)
 .eh_frame      0x0000000000486a60       0xe0 contiki-native.a(gcr.o)
                                         0xf8 (size before relaxing)
 .eh_frame      0x0000000000486b40       0x80 contiki-native.a(aes-128.o)
                                         0x98 (size before relaxing)
 .eh_frame      0x0000000000486bc0      0x170 contiki-native.a(trickle-timer.o)
                                        0x180 (size before relaxing)
 .eh_frame      0x0000000000486d30       0xa0 contiki-native.a(memb.o)
                                         0xb8 (size before relaxing)
 .eh_frame      0x0000000000486dd0       0x80 contiki-native.a(me.o)
                                         0x98 (size before relaxing)
 .eh_frame      0x0000000000486e50       0x20 contiki-native.a(print-stats.o)
                                         0x38 (size before relaxing)
 .eh_frame      0x0000000000486e70       0x40 contiki-native.a(csprng.o)
                                         0x58 (size before relaxing)
 .eh_frame      0x0000000000486eb0       0x40 contiki-native.a(petsciiconv.o)
                                         0x58 (size before relaxing)
 .eh_frame      0x0000000000486ef0       0x40 contiki-native.a(random.o)
                                         0x58 (size before relaxing)
 .eh_frame      0x0000000000486f30       0x20 contiki-native.a(assert.o)
                                         0x38 (size before relaxing)
 .eh_frame      0x0000000000486f50       0xa0 contiki-native.a(ringbuf.o)
                                         0xb8 (size before relaxing)
 .eh_frame      0x0000000000486ff0      0x288 contiki-native.a(websocket.o)
                                        0x2a0 (size before relaxing)
 .eh_frame      0x0000000000487278      0x158 contiki-native.a(uip-icmp6.o)
                                        0x168 (size before relaxing)
 .eh_frame      0x00000000004873d0      0x370 contiki-native.a(uip-ds6.o)
                                        0x380 (size before relaxing)
 .eh_frame      0x0000000000487740      0x2e0 contiki-native.a(uip-ds6-route.o)
                                        0x2f8 (size before relaxing)
 .eh_frame      0x0000000000487a20      0x278 contiki-native.a(uip6.o)
                                        0x288 (size before relaxing)
 .eh_frame      0x0000000000487c98      0x1e0 contiki-native.a(uip-ds6-nbr.o)
                                        0x1f8 (size before relaxing)
 .eh_frame      0x0000000000487e78      0x120 contiki-native.a(uip-nd6.o)
                                        0x128 (size before relaxing)
 .eh_frame      0x0000000000487f98      0x1c8 contiki-native.a(websocket-http-)
                                        0x1e0 (size before relaxing)
 .eh_frame      0x0000000000488160      0x2a0 contiki-native.a(sicslowpan.o)
                                        0x2b8 (size before relaxing)
 .eh_frame      0x0000000000488400       0x60 contiki-native.a(slipdev.o)
                                         0x78 (size before relaxing)
 .eh_frame      0x0000000000488460       0x40 contiki-native.a(uip-debug.o)
                                         0x58 (size before relaxing)
 .eh_frame      0x00000000004884a0       0xe0 contiki-native.a(uip-packetqueue)
                                         0xf8 (size before relaxing)
 .eh_frame      0x0000000000488580      0x248 contiki-native.a(tcp-socket.o)
                                        0x260 (size before relaxing)
 .eh_frame      0x00000000004887c8       0xc0 contiki-native.a(ip64-addr.o)
                                         0xd8 (size before relaxing)
 .eh_frame      0x0000000000488888       0x40 contiki-native.a(uip-udp-packet.)
                                         0x58 (size before relaxing)
 .eh_frame      0x00000000004888c8      0x190 contiki-native.a(psock.o)
 .eh_frame      0x0000000000488a58      0x1f0 contiki-native.a(dhcpc.o)
                                        0x200 (size before relaxing)
 .eh_frame      0x0000000000488c48      0x330 contiki-native.a(tcpip.o)
                                        0x340 (size before relaxing)
 .eh_frame      0x0000000000488f78      0x370 contiki-native.a(resolv.o)
                                        0x378 (size before relaxing)
 .eh_frame      0x00000000004892e8       0x80 contiki-native.a(uip-nameserver.)
                                         0x98 (size before relaxing)
 .eh_frame      0x0000000000489368       0x28 contiki-native.a(uip-split.o)
                                         0x40 (size before relaxing)
 .eh_frame      0x0000000000489390      0x100 contiki-native.a(udp-socket.o)
                                        0x118 (size before relaxing)
 .eh_frame      0x0000000000489490       0xc0 contiki-native.a(simple-udp.o)
                                         0xd8 (size before relaxing)
 .eh_frame      0x0000000000489550       0x40 contiki-native.a(uiplib.o)
                                         0x58 (size before relaxing)
 .eh_frame      0x0000000000489590       0xc0 contiki-native.a(rpl-nbr-policy.)
                                         0xd8 (size before relaxing)
 .eh_frame      0x0000000000489650      0x178 contiki-native.a(rpl-of0.o)
                                        0x188 (size before relaxing)
 .eh_frame      0x00000000004897c8      0x738 contiki-native.a(rpl-dag.o)
                                        0x748 (size before relaxing)
 .eh_frame      0x0000000000489f00      0x250 contiki-native.a(rpl-timers.o)
                                        0x260 (size before relaxing)
 .eh_frame      0x000000000048a150      0x128 contiki-native.a(rpl-ext-header.)
                                        0x140 (size before relaxing)
 .eh_frame      0x000000000048a278      0x140 contiki-native.a(rpl.o)
                                        0x158 (size before relaxing)
 .eh_frame      0x000000000048a3b8      0x148 contiki-native.a(rpl-mrhof.o)
                                        0x160 (size before relaxing)
 .eh_frame      0x000000000048a500      0x160 contiki-native.a(rpl-ns.o)
                                        0x178 (size before relaxing)
 .eh_frame      0x000000000048a660      0x2c8 contiki-native.a(rpl-icmp6.o)
                                        0x2e0 (size before relaxing)
 .eh_frame      0x000000000048a928      0x120 contiki-native.a(rpl-dag-root.o)
                                        0x138 (size before relaxing)
 .eh_frame      0x000000000048aa48      0x1a0 contiki-native.a(queuebuf.o)
                                        0x1b8 (size before relaxing)
 .eh_frame      0x000000000048abe8       0x80 contiki-native.a(cmd-broker.o)
                                         0x98 (size before relaxing)
 .eh_frame      0x000000000048ac68      0x2a0 contiki-native.a(nbr-table.o)
                                        0x2b8 (size before relaxing)
 .eh_frame      0x000000000048af08      0x2b0 contiki-native.a(packetbuf.o)
                                        0x2c0 (size before relaxing)
 .eh_frame      0x000000000048b1b8       0x20 contiki-native.a(netstack.o)
                                         0x38 (size before relaxing)
 .eh_frame      0x000000000048b1d8       0x60 contiki-native.a(linkaddr.o)
                                         0x78 (size before relaxing)
 .eh_frame      0x000000000048b238       0x20 contiki-native.a(net-debug.o)
                                         0x38 (size before relaxing)
 .eh_frame      0x000000000048b258       0xe0 contiki-native.a(link-stats.o)
                                         0xf8 (size before relaxing)
 .eh_frame      0x000000000048b338       0xc0 contiki-native.a(nullmac.o)
                                         0xd8 (size before relaxing)
 .eh_frame      0x000000000048b3f8       0xe8 contiki-native.a(nullrdc-noframe)
                                        0x100 (size before relaxing)
 .eh_frame      0x000000000048b4e0      0x220 contiki-native.a(frame802154e-ie)
                                        0x238 (size before relaxing)
 .eh_frame      0x000000000048b700       0x50 contiki-native.a(mac-sequence.o)
                                         0x60 (size before relaxing)
 .eh_frame      0x000000000048b750       0xe0 contiki-native.a(nordc.o)
                                         0xf8 (size before relaxing)
 .eh_frame      0x000000000048b830      0x270 contiki-native.a(csma.o)
                                        0x280 (size before relaxing)
 .eh_frame      0x000000000048baa0      0x168 contiki-native.a(frame802154.o)
                                        0x180 (size before relaxing)
 .eh_frame      0x000000000048bc08       0x60 contiki-native.a(framer-nullmac.)
                                         0x78 (size before relaxing)
 .eh_frame      0x000000000048bc68       0x20 contiki-native.a(mac.o)
                                         0x38 (size before relaxing)
 .eh_frame      0x000000000048bc88       0xa8 contiki-native.a(framer-802154.o)
                                         0xc0 (size before relaxing)
 .eh_frame      0x000000000048bd30       0x80 contiki-native.a(phase.o)
                                         0x98 (size before relaxing)
 .eh_frame      0x000000000048bdb0      0x108 contiki-native.a(nullrdc.o)
                                        0x120 (size before relaxing)
 .eh_frame      0x000000000048beb8       0x20 contiki-native.a(ctk-textentry-c)
                                         0x38 (size before relaxing)
 .eh_frame      0x000000000048bed8       0xa8 contiki-native.a(ctk-filedialog.)
                                         0xc0 (size before relaxing)
 .eh_frame      0x000000000048bf80       0x20 contiki-native.a(ctk-textentry-c)
                                         0x38 (size before relaxing)
 .eh_frame      0x000000000048bfa0       0x20 contiki-native.a(ctk-textentry-m)
                                         0x38 (size before relaxing)
 .eh_frame      0x000000000048bfc0      0x3a8 contiki-native.a(ctk.o)
                                        0x3b0 (size before relaxing)
 .eh_frame      0x000000000048c368       0x60 contiki-native.a(nullsec.o)
                                         0x78 (size before relaxing)
 .eh_frame      0x000000000048c3c8       0xc0 contiki-native.a(anti-replay.o)
                                         0xd8 (size before relaxing)
 .eh_frame      0x000000000048c488       0x48 contiki-native.a(ccm-star-packet)
                                         0x60 (size before relaxing)
 .eh_frame      0x000000000048c4d0       0x18 /usr/lib/x86_64-linux-gnu/libpthread_nonshared.a(pthread_atfork.oS)
                                         0x30 (size before relaxing)
 .eh_frame      0x000000000048c4e8       0x60 /usr/lib/x86_64-linux-gnu/libc_nonshared.a(elf-init.oS)
                                         0x78 (size before relaxing)
 .eh_frame      0x000000000048c548       0x18 /usr/lib/x86_64-linux-gnu/libc_nonshared.a(atexit.oS)
                                         0x30 (size before relaxing)
 .eh_frame      0x000000000048c560       0x18 /usr/lib/x86_64-linux-gnu/libc_nonshared.a(fstat.oS)
                                         0x30 (size before relaxing)
 .eh_frame      0x000000000048c578        0x4 /usr/lib/gcc/x86_64-linux-gnu/5/crtend.o
 *(.eh_frame.*)

.gcc_except_table
 *(.gcc_except_table .gcc_except_table.*)

.gnu_extab
 *(.gnu_extab*)

.exception_ranges
 *(.exception_ranges .exception_ranges*)
                0x000000000068c5c8                . = DATA_SEGMENT_ALIGN (0x200000, 0x1000)

.eh_frame
 *(.eh_frame)
 *(.eh_frame.*)

.gnu_extab
 *(.gnu_extab)

.gcc_except_table
 *(.gcc_except_table .gcc_except_table.*)

.exception_ranges
 *(.exception_ranges .exception_ranges*)

.tdata
 *(.tdata .tdata.* .gnu.linkonce.td.*)

.tbss
 *(.tbss .tbss.* .gnu.linkonce.tb.*)
 *(.tcommon)

.preinit_array  0x000000000068c5c8        0x0
                [!provide]                        PROVIDE (__preinit_array_start, .)
 *(.preinit_array)
                [!provide]                        PROVIDE (__preinit_array_end, .)

.init_array     0x000000000068c5c8        0x8
                0x000000000068c5c8                PROVIDE (__init_array_start, .)
 *(SORT(.init_array.*) SORT(.ctors.*))
 *(.init_array EXCLUDE_FILE(*crtend?.o *crtend.o *crtbegin?.o *crtbegin.o) .ctors)
 .init_array    0x000000000068c5c8        0x8 /usr/lib/gcc/x86_64-linux-gnu/5/crtbegin.o
                0x000000000068c5d0                PROVIDE (__init_array_end, .)

.fini_array     0x000000000068c5d0        0x8
                [!provide]                        PROVIDE (__fini_array_start, .)
 *(SORT(.fini_array.*) SORT(.dtors.*))
 *(.fini_array EXCLUDE_FILE(*crtend?.o *crtend.o *crtbegin?.o *crtbegin.o) .dtors)
 .fini_array    0x000000000068c5d0        0x8 /usr/lib/gcc/x86_64-linux-gnu/5/crtbegin.o
                [!provide]                        PROVIDE (__fini_array_end, .)

.ctors
 *crtbegin.o(.ctors)
 *crtbegin?.o(.ctors)
 *(EXCLUDE_FILE(*crtend?.o *crtend.o) .ctors)
 *(SORT(.ctors.*))
 *(.ctors)

.dtors
 *crtbegin.o(.dtors)
 *crtbegin?.o(.dtors)
 *(EXCLUDE_FILE(*crtend?.o *crtend.o) .dtors)
 *(SORT(.dtors.*))
 *(.dtors)

.jcr            0x000000000068c5d8        0x8
 *(.jcr)
 .jcr           0x000000000068c5d8        0x0 /usr/lib/gcc/x86_64-linux-gnu/5/crtbegin.o
 .jcr           0x000000000068c5d8        0x8 /usr/lib/gcc/x86_64-linux-gnu/5/crtend.o

.data.rel.ro    0x000000000068c5e0      0x7b0
 *(.data.rel.ro.local* .gnu.linkonce.d.rel.ro.local.*)
 .data.rel.ro.local
                0x000000000068c5e0       0x10 obj_native/raw-tap-dev.o
 *fill*         0x000000000068c5f0       0x10 
 .data.rel.ro.local
                0x000000000068c600       0x40 obj_native/native-rdc.o
                0x000000000068c600                border_router_rdc_driver
 .data.rel.ro.local
                0x000000000068c640       0x10 obj_native/slip-cmds.o
                0x000000000068c640                cmd_handlers
 .data.rel.ro.local
                0x000000000068c650       0x10 obj_native/slip-dev.o
 .data.rel.ro.local
                0x000000000068c660       0x38 obj_native/mac-wrapper.o
                0x000000000068c660                mac_wrapper_driver
 *fill*         0x000000000068c698        0x8 
 .data.rel.ro.local
                0x000000000068c6a0       0x38 obj_native/multi-radio.o
                0x000000000068c6a0                multi_radio_driver
 *fill*         0x000000000068c6d8        0x8 
 .data.rel.ro.local
                0x000000000068c6e0       0x20 obj_native/llsec-wrapper.o
                0x000000000068c6e0                llsec_wrapper_driver
 .data.rel.ro.local
                0x000000000068c700       0x18 obj_native/framer-wrapper.o
                0x000000000068c700                framer_wrapper
 *fill*         0x000000000068c718        0x8 
 .data.rel.ro.local
                0x000000000068c720       0x28 obj_native/strategy-wrapper.o
                0x000000000068c720                strategy_wrapper
 *fill*         0x000000000068c748        0x8 
 .data.rel.ro.local
                0x000000000068c750       0x10 obj_native/ip64-eth-driver.o
                0x000000000068c750                ip64_eth_driver
 .data.rel.ro.local
                0x000000000068c760       0x20 contiki-native.a(button-sensor.o)
                0x000000000068c760                button_sensor
 .data.rel.ro.local
                0x000000000068c780       0x20 contiki-native.a(pir-sensor.o)
                0x000000000068c780                pir_sensor
 .data.rel.ro.local
                0x000000000068c7a0       0x20 contiki-native.a(vib-sensor.o)
                0x000000000068c7a0                vib_sensor
 .data.rel.ro.local
                0x000000000068c7c0       0x90 contiki-native.a(linuxradio-drv.)
                0x000000000068c7e0                linuxradio_driver
 *fill*         0x000000000068c850       0x10 
 .data.rel.ro.local
                0x000000000068c860       0x38 contiki-native.a(noncoresec.o)
                0x000000000068c860                noncoresec_driver
                0x000000000068c880                noncoresec_framer
 *fill*         0x000000000068c898        0x8 
 .data.rel.ro.local
                0x000000000068c8a0       0x28 contiki-native.a(noncoresec-stra)
                0x000000000068c8a0                noncoresec_strategy
 *fill*         0x000000000068c8c8        0x8 
 .data.rel.ro.local
                0x000000000068c8d0       0x18 contiki-native.a(akes-single.o)
                0x000000000068c8d0                akes_single_scheme
 *fill*         0x000000000068c8e8       0x18 
 .data.rel.ro.local
                0x000000000068c900       0x38 contiki-native.a(adaptivesec.o)
                0x000000000068c900                adaptivesec_driver
                0x000000000068c920                adaptivesec_framer
 *fill*         0x000000000068c938        0x8 
 .data.rel.ro.local
                0x000000000068c940       0x10 contiki-native.a(ip64-null-drive)
                0x000000000068c940                ip64_null_driver
 .data.rel.ro.local
                0x000000000068c950       0x10 contiki-native.a(ip64-eth-interf)
                0x000000000068c950                ip64_eth_interface
 .data.rel.ro.local
                0x000000000068c960       0x10 contiki-native.a(ip64.o)
                0x000000000068c960                ip64_uip_fallback_interface
 .data.rel.ro.local
                0x000000000068c970       0x10 contiki-native.a(ip64-slip-inter)
                0x000000000068c970                ip64_slip_interface
 .data.rel.ro.local
                0x000000000068c980       0x70 contiki-native.a(nullradio.o)
                0x000000000068c980                nullradio_driver
 .data.rel.ro.local
                0x000000000068c9f0       0x10 contiki-native.a(iq-seeder.o)
                0x000000000068c9f0                iq_seeder
 .data.rel.ro.local
                0x000000000068ca00       0x10 contiki-native.a(ccm-star.o)
                0x000000000068ca00                ccm_star_driver
 .data.rel.ro.local
                0x000000000068ca10       0x10 contiki-native.a(null-seeder.o)
                0x000000000068ca10                null_seeder
 .data.rel.ro.local
                0x000000000068ca20       0x10 contiki-native.a(aes-128.o)
                0x000000000068ca20                aes_128_driver
 *fill*         0x000000000068ca30       0x10 
 .data.rel.ro.local
                0x000000000068ca40       0x38 contiki-native.a(nullmac.o)
                0x000000000068ca40                nullmac_driver
 *fill*         0x000000000068ca78        0x8 
 .data.rel.ro.local
                0x000000000068ca80       0x40 contiki-native.a(nullrdc-noframe)
                0x000000000068ca80                nullrdc_noframer_driver
 .data.rel.ro.local
                0x000000000068cac0       0x40 contiki-native.a(nordc.o)
                0x000000000068cac0                nordc_driver
 .data.rel.ro.local
                0x000000000068cb00       0x38 contiki-native.a(csma.o)
                0x000000000068cb00                csma_driver
 *fill*         0x000000000068cb38        0x8 
 .data.rel.ro.local
                0x000000000068cb40       0x18 contiki-native.a(framer-nullmac.)
                0x000000000068cb40                framer_nullmac
 *fill*         0x000000000068cb58        0x8 
 .data.rel.ro.local
                0x000000000068cb60       0x18 contiki-native.a(framer-802154.o)
                0x000000000068cb60                framer_802154
 *fill*         0x000000000068cb78        0x8 
 .data.rel.ro.local
                0x000000000068cb80       0x40 contiki-native.a(nullrdc.o)
                0x000000000068cb80                nullrdc_driver
 .data.rel.ro.local
                0x000000000068cbc0       0x20 contiki-native.a(nullsec.o)
                0x000000000068cbc0                nullsec_driver
 *(.data.rel.ro .data.rel.ro.* .gnu.linkonce.d.rel.ro.*)
 .data.rel.ro   0x000000000068cbe0       0x10 cetic-6lbr.co
                0x000000000068cbe0                autostart_processes
 *fill*         0x000000000068cbf0       0x10 
 .data.rel.ro   0x000000000068cc00      0x170 contiki-native.a(er-coap-engine.)
                0x000000000068cc00                coap_rest_implementation
 .data.rel.ro   0x000000000068cd70       0x18 contiki-native.a(sicslowpan.o)
                0x000000000068cd70                sicslowpan_driver
 .data.rel.ro   0x000000000068cd88        0x8 contiki-native.a(rpl-dag.o)

.dynamic        0x000000000068cd90      0x220
 *(.dynamic)
 .dynamic       0x000000000068cd90      0x220 /usr/lib/gcc/x86_64-linux-gnu/5/../../../x86_64-linux-gnu/crt1.o
                0x000000000068cd90                _DYNAMIC

.got            0x000000000068cfb0       0x40
 *(.got)
 .got           0x000000000068cfb0       0x40 /usr/lib/gcc/x86_64-linux-gnu/5/../../../x86_64-linux-gnu/crt1.o
 *(.igot)
                0x000000000068dfe8                . = DATA_SEGMENT_RELRO_END (., (SIZEOF (.got.plt) >= 0x18)?0x18:0x0)

.got.plt        0x000000000068d000      0x428
 *(.got.plt)
 .got.plt       0x000000000068d000      0x428 /usr/lib/gcc/x86_64-linux-gnu/5/../../../x86_64-linux-gnu/crt1.o
                0x000000000068d000                _GLOBAL_OFFSET_TABLE_
 *(.igot.plt)
 .igot.plt      0x000000000068d428        0x0 /usr/lib/gcc/x86_64-linux-gnu/5/../../../x86_64-linux-gnu/crt1.o

.data           0x000000000068d440     0x1940
 *(.data .data.* .gnu.linkonce.d.*)
 .data          0x000000000068d440        0x4 /usr/lib/gcc/x86_64-linux-gnu/5/../../../x86_64-linux-gnu/crt1.o
                0x000000000068d440                data_start
                0x000000000068d440                __data_start
 .data          0x000000000068d444        0x0 /usr/lib/gcc/x86_64-linux-gnu/5/../../../x86_64-linux-gnu/crti.o
 *fill*         0x000000000068d444        0x4 
 .data          0x000000000068d448        0x8 /usr/lib/gcc/x86_64-linux-gnu/5/crtbegin.o
                0x000000000068d448                __dso_handle
 .data          0x000000000068d450        0xc cetic-6lbr.co
                0x000000000068d450                rpl_ignore_other_dodags
                0x000000000068d454                rpl_fast_startup
                0x000000000068d458                rpl_wait_delay
 *fill*         0x000000000068d45c        0x4 
 .data.rel      0x000000000068d460       0x18 cetic-6lbr.co
                0x000000000068d460                cetic_6lbr_allowed_node_hook
                0x000000000068d468                cetic_6lbr_dis_input_hook
                0x000000000068d470                cetic_6lbr_dio_input_hook
 *fill*         0x000000000068d478        0x8 
 .data.rel.local
                0x000000000068d480       0x20 cetic-6lbr.co
                0x000000000068d480                cetic_6lbr_process
 .data          0x000000000068d4a0        0x0 obj_native/native-init.o
 .data          0x000000000068d4a0        0x0 obj_native/native-nvm.o
 .data          0x000000000068d4a0       0x14 obj_native/native-config.o
                0x000000000068d4a0                sixlbr_config_select_timeout
                0x000000000068d4a4                sixlbr_config_use_raw_ethernet
                0x000000000068d4a8                sixlbr_config_watchdog_interval
                0x000000000068d4ac                sixlbr_config_log_level
                0x000000000068d4b0                sixlbr_config_log_services
 *fill*         0x000000000068d4b4        0x4 
 .data.rel.local
                0x000000000068d4b8       0x18 obj_native/native-config.o
                0x000000000068d4b8                sixlbr_config_www_root
                0x000000000068d4c0                sixlbr_config_watchdog_file_name
                0x000000000068d4c8                sixlbr_config_nvm_file
 .data          0x000000000068d4d0        0x0 obj_native/native-config-file.o
 .data.rel.local
                0x000000000068d4d0        0x8 obj_native/native-config-file.o
 .data          0x000000000068d4d8        0x0 obj_native/native-config-handlers.o
 .data          0x000000000068d4d8        0x0 obj_native/raw-tap-eth-drv.o
 *fill*         0x000000000068d4d8        0x8 
 .data.rel.local
                0x000000000068d4e0       0x20 obj_native/raw-tap-eth-drv.o
                0x000000000068d4e0                eth_drv_process
 .data          0x000000000068d500        0x0 obj_native/raw-tap-dev.o
 .data          0x000000000068d500        0x0 obj_native/native-rdc.o
 .data.rel.local
                0x000000000068d500       0x20 obj_native/native-rdc.o
                0x000000000068d500                native_rdc_process
 .data          0x000000000068d520        0x0 obj_native/slip-cmds.o
 .data.rel.local
                0x000000000068d520       0x20 obj_native/slip-cmds.o
                0x000000000068d520                border_router_cmd_process
 .data          0x000000000068d540        0x0 obj_native/native-args.o
 .data          0x000000000068d540        0x0 obj_native/slip-dev.o
 .data          0x000000000068d540        0x0 obj_native/6lbr-watchdog.o
 .data.rel.local
                0x000000000068d540       0x20 obj_native/6lbr-watchdog.o
                0x000000000068d540                native_6lbr_watchdog
 .data          0x000000000068d560        0x0 obj_native/plugin.o
 .data.rel.local
                0x000000000068d560        0x8 obj_native/plugin.o
 .data          0x000000000068d568        0x0 obj_native/lost-symbols.o
 .data          0x000000000068d568        0x0 obj_native/ini.o
 .data          0x000000000068d568        0x8 obj_native/log-6lbr.o
                0x000000000068d568                Log6lbr_timestamp
                0x000000000068d569                Log6lbr_level
                0x000000000068d56c                Log6lbr_services
 .data          0x000000000068d570        0x0 obj_native/rio.o
 .data          0x000000000068d570        0x0 obj_native/packet-forwarding-engine.o
 .data          0x000000000068d570        0x0 obj_native/sicslow-ethernet.o
 .data          0x000000000068d570        0x0 obj_native/nvm-config.o
 .data          0x000000000068d570        0x0 obj_native/mac-wrapper.o
 .data.rel      0x000000000068d570        0x8 obj_native/mac-wrapper.o
 .data          0x000000000068d578        0x0 obj_native/switch-lookup.o
 .data          0x000000000068d578        0x0 obj_native/network-itf.o
 .data          0x000000000068d578        0x2 obj_native/multi-radio.o
                0x000000000068d578                multi_radio_input_ifindex
                0x000000000068d579                multi_radio_output_ifindex
 .data          0x000000000068d57a        0x0 obj_native/llsec-wrapper.o
 *fill*         0x000000000068d57a        0x6 
 .data.rel      0x000000000068d580        0x8 obj_native/llsec-wrapper.o
 .data          0x000000000068d588        0x0 obj_native/framer-wrapper.o
 .data.rel      0x000000000068d588        0x8 obj_native/framer-wrapper.o
 .data          0x000000000068d590        0x0 obj_native/strategy-wrapper.o
 .data.rel      0x000000000068d590        0x8 obj_native/strategy-wrapper.o
 .data          0x000000000068d598        0x0 obj_native/ip64-eth-driver.o
 .data          0x000000000068d598        0x0 contiki-native.a(cmd.o)
 .data          0x000000000068d598        0x0 contiki-native.a(packetutils.o)
 .data          0x000000000068d598        0x0 contiki-native.a(httpd.o)
 *fill*         0x000000000068d598        0x8 
 .data.rel.local
                0x000000000068d5a0       0x40 contiki-native.a(httpd.o)
                0x000000000068d5c0                httpd_process
 .data          0x000000000068d5e0        0x0 contiki-native.a(httpd-cgi.o)
 .data          0x000000000068d5e0        0x0 contiki-native.a(httpd-urlconv.o)
 .data          0x000000000068d5e0        0x0 contiki-native.a(webserver.o)
 .data.rel.local
                0x000000000068d5e0       0xc0 contiki-native.a(webserver.o)
                0x000000000068d5e0                main_group
                0x000000000068d600                sensors_group
                0x000000000068d620                status_group
                0x000000000068d640                config_group
                0x000000000068d660                statistics_group
                0x000000000068d680                admin_group
 .data          0x000000000068d6a0        0x0 contiki-native.a(webserver-utils)
 .data.rel.local
                0x000000000068d6a0       0x20 contiki-native.a(webserver-utils)
 .data.rel      0x000000000068d6c0       0x48 contiki-native.a(webserver-utils)
                0x000000000068d6c0                webserver_result_page
 .data          0x000000000068d708        0x0 contiki-native.a(webserver-main.)
 *fill*         0x000000000068d708       0x18 
 .data.rel      0x000000000068d720       0x48 contiki-native.a(webserver-main.)
                0x000000000068d720                webserver_main
 .data          0x000000000068d768        0x0 contiki-native.a(webserver-netwo)
 *fill*         0x000000000068d768       0x18 
 .data.rel.local
                0x000000000068d780       0xc0 contiki-native.a(webserver-netwo)
                0x000000000068d780                webserver_network
                0x000000000068d7e0                webserver_network_route_add_cmd
                0x000000000068d800                webserver_network_route_rm_cmd
                0x000000000068d820                webserver_network_nbr_rm_cmd
 .data          0x000000000068d840        0x0 contiki-native.a(webserver-confi)
 .data.rel.local
                0x000000000068d840       0xa0 contiki-native.a(webserver-confi)
                0x000000000068d840                webserver_config
                0x000000000068d8a0                webserver_config_set_cmd
                0x000000000068d8c0                webserver_config_reset_cmd
 .data          0x000000000068d8e0        0x0 contiki-native.a(webserver-stati)
 .data.rel.local
                0x000000000068d8e0       0x48 contiki-native.a(webserver-stati)
                0x000000000068d8e0                webserver_statistics
 .data          0x000000000068d928        0x0 contiki-native.a(webserver-admin)
 *fill*         0x000000000068d928       0x18 
 .data.rel.local
                0x000000000068d940      0x108 contiki-native.a(webserver-admin)
                0x000000000068d940                webserver_admin_restart_cmd
                0x000000000068d960                webserver_admin_reboot_cmd
                0x000000000068d980                webserver_admin_halt_cmd
                0x000000000068d9a0                webserver_admin
                0x000000000068da00                webserver_plugins
 .data          0x000000000068da48        0x0 contiki-native.a(webserver-log.o)
 *fill*         0x000000000068da48       0x18 
 .data.rel.local
                0x000000000068da60      0x140 contiki-native.a(webserver-log.o)
                0x000000000068da60                webserver_logs
                0x000000000068dac0                webserver_log_send_log
                0x000000000068db20                webserver_log_send_err
                0x000000000068db80                webserver_log_clear_log_cmd
 .data          0x000000000068dba0        0x0 contiki-native.a(webserver-rpl.o)
 .data.rel.local
                0x000000000068dba0       0xc0 contiki-native.a(webserver-rpl.o)
                0x000000000068dba0                webserver_rpl
                0x000000000068dc00                webserver_rpl_gr_cmd
                0x000000000068dc20                webserver_rpl_reset_cmd
                0x000000000068dc40                webserver_rpl_child_cmd
 .data          0x000000000068dc60        0x0 contiki-native.a(webserver-file.)
 .data          0x000000000068dc60        0x0 contiki-native.a(webserver-senso)
 .data.rel.local
                0x000000000068dc60      0x280 contiki-native.a(webserver-senso)
                0x000000000068dc80                webserver_sensors_info
                0x000000000068dce0                webserver_sensors_tree
                0x000000000068dd40                webserver_sensors_prr
                0x000000000068dda0                webserver_sensors_ps
                0x000000000068de00                webserver_sensors_hc
                0x000000000068de60                webserver_sensors_traffic
                0x000000000068dec0                webserver_sensors_reset_stats_all_cmd
 .data          0x000000000068dee0        0x0 contiki-native.a(webserver-senso)
 .data.rel.local
                0x000000000068dee0       0xa0 contiki-native.a(webserver-senso)
                0x000000000068dee0                webserver_sensor
                0x000000000068df40                webserver_sensor_reset_stats_cmd
                0x000000000068df60                webserver_sensor_delete_node_cmd
 .data          0x000000000068df80        0x0 contiki-native.a(webserver-node-)
 .data.rel.local
                0x000000000068df80       0x48 contiki-native.a(webserver-node-)
                0x000000000068df80                webserver_sensors_config
 .data          0x000000000068dfc8        0x0 contiki-native.a(udp-server.o)
 *fill*         0x000000000068dfc8       0x18 
 .data.rel.local
                0x000000000068dfe0       0x20 contiki-native.a(udp-server.o)
                0x000000000068dfe0                udp_server_process
 .data          0x000000000068e000        0x0 contiki-native.a(node-config.o)
 .data.rel.local
                0x000000000068e000        0x8 contiki-native.a(node-config.o)
 .data          0x000000000068e008        0x0 contiki-native.a(node-config-ip6)
 .data          0x000000000068e008        0x4 contiki-native.a(node-config-fil)
 *fill*         0x000000000068e00c       0x14 
 .data.rel.local
                0x000000000068e020       0x40 contiki-native.a(node-config-fil)
                0x000000000068e040                node_config_process
 .data          0x000000000068e060        0x0 contiki-native.a(node-info.o)
 .data          0x000000000068e060        0x4 contiki-native.a(node-info-expor)
                0x000000000068e060                node_info_export_interval
 *fill*         0x000000000068e064       0x1c 
 .data.rel.local
                0x000000000068e080       0x20 contiki-native.a(node-info-expor)
                0x000000000068e080                node_info_export_process
 .data          0x000000000068e0a0        0x0 contiki-native.a(webserver-node-)
 .data.rel.local
                0x000000000068e0a0       0xa0 contiki-native.a(webserver-node-)
                0x000000000068e0a0                webserver_node_info_export
                0x000000000068e100                webserver_node_info_export_toggle_cmd
                0x000000000068e120                webserver_node_info_export_config_cmd
 .data          0x000000000068e140        0x0 contiki-native.a(dns-proxy.o)
 .data.rel.local
                0x000000000068e140       0x20 contiki-native.a(dns-proxy.o)
                0x000000000068e140                dns_proxy_process
 .data          0x000000000068e160        0x0 contiki-native.a(er-coap.o)
 .data.rel.local
                0x000000000068e160        0x8 contiki-native.a(er-coap.o)
                0x000000000068e160                coap_error_message
 .data          0x000000000068e168        0x0 contiki-native.a(er-coap-engine.)
 *fill*         0x000000000068e168       0x18 
 .data.rel.local
                0x000000000068e180       0x20 contiki-native.a(er-coap-engine.)
                0x000000000068e180                coap_engine
 .data          0x000000000068e1a0        0x0 contiki-native.a(er-coap-transac)
 .data.rel.local
                0x000000000068e1a0       0x20 contiki-native.a(er-coap-transac)
 .data          0x000000000068e1c0        0x0 contiki-native.a(er-coap-observe)
 .data.rel.local
                0x000000000068e1c0       0x20 contiki-native.a(er-coap-observe)
 .data          0x000000000068e1e0        0x0 contiki-native.a(er-coap-separat)
 .data          0x000000000068e1e0        0x0 contiki-native.a(er-coap-res-wel)
 .data.rel      0x000000000068e1e0       0x50 contiki-native.a(er-coap-res-wel)
                0x000000000068e1e0                res_well_known_core
 .data          0x000000000068e230        0x0 contiki-native.a(er-coap-block1.)
 .data          0x000000000068e230        0x0 contiki-native.a(er-coap-observe)
 .data          0x000000000068e230        0x0 contiki-native.a(er-coap-udp.o)
 .data          0x000000000068e230        0x0 contiki-native.a(rest-engine.o)
 *fill*         0x000000000068e230       0x10 
 .data.rel.local
                0x000000000068e240       0x30 contiki-native.a(rest-engine.o)
                0x000000000068e240                rest_engine_process
 .data          0x000000000068e270        0x0 contiki-native.a(coap-server.o)
 .data          0x000000000068e270        0x0 contiki-native.a(block-transfer.)
 .data          0x000000000068e270        0x0 contiki-native.a(coap-common.o)
 .data          0x000000000068e270        0x0 contiki-native.a(coap-push.o)
 *fill*         0x000000000068e270       0x10 
 .data.rel.local
                0x000000000068e280       0x28 contiki-native.a(coap-push.o)
                0x000000000068e280                coap_push_process
 .data          0x000000000068e2a8        0x0 contiki-native.a(core-interface.)
 *fill*         0x000000000068e2a8        0x8 
 .data.rel.local
                0x000000000068e2b0       0x18 contiki-native.a(core-interface.)
 .data          0x000000000068e2c8        0x0 contiki-native.a(coap-binding.o)
 *fill*         0x000000000068e2c8       0x18 
 .data.rel.local
                0x000000000068e2e0       0x40 contiki-native.a(coap-binding.o)
                0x000000000068e300                coap_binding_process
 .data          0x000000000068e320        0x0 contiki-native.a(coap-linked-bat)
 .data          0x000000000068e320        0x0 contiki-native.a(rd-client.o)
 .data.rel.local
                0x000000000068e320       0x28 contiki-native.a(rd-client.o)
                0x000000000068e320                rd_client_process
 .data          0x000000000068e348        0x0 contiki-native.a(rest-type-text.)
 *fill*         0x000000000068e348       0x18 
 .data.rel.local
                0x000000000068e360       0x38 contiki-native.a(rest-type-text.)
                0x000000000068e360                coap_data_format_text
 .data          0x000000000068e398        0x0 contiki-native.a(rest-type-json.)
 *fill*         0x000000000068e398        0x8 
 .data.rel.local
                0x000000000068e3a0       0x38 contiki-native.a(rest-type-json.)
                0x000000000068e3a0                coap_data_format_json
 .data          0x000000000068e3d8        0x0 contiki-native.a(rest-type-senml)
 *fill*         0x000000000068e3d8        0x8 
 .data.rel.local
                0x000000000068e3e0       0x38 contiki-native.a(rest-type-senml)
                0x000000000068e3e0                coap_data_format_senml
 .data          0x000000000068e418        0x0 contiki-native.a(rest-type-xml.o)
 *fill*         0x000000000068e418        0x8 
 .data.rel.local
                0x000000000068e420       0x38 contiki-native.a(rest-type-xml.o)
                0x000000000068e420                coap_data_format_xml
 .data          0x000000000068e458        0x3 contiki-native.a(ctk-conio.o)
                0x000000000068e458                ctk_draw_windowborder_height
                0x000000000068e459                ctk_draw_windowborder_width
                0x000000000068e45a                ctk_draw_windowtitle_height
 *fill*         0x000000000068e45b        0x5 
 .data          0x000000000068e460        0x8 contiki-native.a(contiki-main.o)
 *fill*         0x000000000068e468       0x18 
 .data.rel      0x000000000068e480       0x20 contiki-native.a(contiki-main.o)
                0x000000000068e480                sensors
 .data          0x000000000068e4a0        0x0 contiki-native.a(clock.o)
 .data          0x000000000068e4a0        0x0 contiki-native.a(leds.o)
 .data          0x000000000068e4a0        0x0 contiki-native.a(leds-arch.o)
 .data          0x000000000068e4a0        0x0 contiki-native.a(button-sensor.o)
 .data          0x000000000068e4a0        0x0 contiki-native.a(pir-sensor.o)
 .data          0x000000000068e4a0        0x0 contiki-native.a(vib-sensor.o)
 .data          0x000000000068e4a0        0x0 contiki-native.a(xmem.o)
 .data          0x000000000068e4a0        0x0 contiki-native.a(sensors.o)
 .data.rel.local
                0x000000000068e4a0       0x20 contiki-native.a(sensors.o)
                0x000000000068e4a0                sensors_process
 .data          0x000000000068e4c0        0x0 contiki-native.a(irq.o)
 .data          0x000000000068e4c0        0x0 contiki-native.a(cfs-posix.o)
 .data          0x000000000068e4c0        0x0 contiki-native.a(cfs-posix-dir.o)
 .data          0x000000000068e4c0        0x8 contiki-native.a(ctk-curses.o)
 .data          0x000000000068e4c8        0x0 contiki-native.a(tapdev-drv.o)
 *fill*         0x000000000068e4c8       0x18 
 .data.rel.local
                0x000000000068e4e0       0x20 contiki-native.a(tapdev-drv.o)
                0x000000000068e4e0                tapdev_process
 .data          0x000000000068e500        0x4 contiki-native.a(linuxradio-drv.)
 .data          0x000000000068e504        0x4 contiki-native.a(tapdev6.o)
 .data          0x000000000068e508        0x0 contiki-native.a(mtarch.o)
 .data          0x000000000068e508        0x0 contiki-native.a(rtimer-arch.o)
 .data          0x000000000068e508        0x0 contiki-native.a(elfloader-stub.)
 .data          0x000000000068e508        0x0 contiki-native.a(watchdog.o)
 .data          0x000000000068e508        0x0 contiki-native.a(eeprom.o)
 .data          0x000000000068e508        0x0 contiki-native.a(noncoresec.o)
 *fill*         0x000000000068e508        0x8 
 .data.rel.local
                0x000000000068e510       0x20 contiki-native.a(noncoresec.o)
 .data          0x000000000068e530        0x0 contiki-native.a(akes.o)
 .data          0x000000000068e530        0x0 contiki-native.a(akes-delete.o)
 *fill*         0x000000000068e530       0x10 
 .data.rel.local
                0x000000000068e540       0x20 contiki-native.a(akes-delete.o)
                0x000000000068e540                delete_process
 .data          0x000000000068e560        0x0 contiki-native.a(coresec-strateg)
 .data          0x000000000068e560        0x0 contiki-native.a(akes-trickle.o)
 .data          0x000000000068e560        0x0 contiki-native.a(noncoresec-stra)
 .data          0x000000000068e560        0x0 contiki-native.a(akes-single.o)
 .data          0x000000000068e560        0x0 contiki-native.a(adaptivesec.o)
 .data          0x000000000068e560        0x0 contiki-native.a(akes-nbr.o)
 .data.rel.local
                0x000000000068e560       0x58 contiki-native.a(akes-nbr.o)
 .data          0x000000000068e5b8        0x0 contiki-native.a(ip64-dns64.o)
 .data          0x000000000068e5b8        0x0 contiki-native.a(ip64-arp.o)
 .data          0x000000000068e5b8        0x2 contiki-native.a(ip64-addrmap.o)
 *fill*         0x000000000068e5ba        0x6 
 .data.rel.local
                0x000000000068e5c0       0x20 contiki-native.a(ip64-addrmap.o)
 .data          0x000000000068e5e0        0x0 contiki-native.a(ip64-ipv4-dhcp.)
 .data.rel.local
                0x000000000068e5e0       0x20 contiki-native.a(ip64-ipv4-dhcp.)
                0x000000000068e5e0                ip64_ipv4_dhcp_process
 .data          0x000000000068e600        0x0 contiki-native.a(ip64-null-drive)
 .data          0x000000000068e600        0x0 contiki-native.a(ip64-eth-interf)
 .data          0x000000000068e600        0x2 contiki-native.a(ip64.o)
                0x000000000068e600                ip64_packet_buffer_maxlen
 *fill*         0x000000000068e602        0x6 
 .data.rel      0x000000000068e608        0x8 contiki-native.a(ip64.o)
                0x000000000068e608                ip64_packet_buffer
 .data          0x000000000068e610        0x0 contiki-native.a(ip64-special-po)
 .data          0x000000000068e610        0x0 contiki-native.a(ip64-slip-inter)
 .data          0x000000000068e610        0x0 contiki-native.a(ip64-dhcpc.o)
 .data.rel.local
                0x000000000068e610        0x8 contiki-native.a(ip64-dhcpc.o)
                0x000000000068e610                ip64_dhcp_state
 .data          0x000000000068e618        0x0 contiki-native.a(ip64-eth.o)
 .data          0x000000000068e618        0x0 contiki-native.a(autostart.o)
 .data          0x000000000068e618        0x0 contiki-native.a(stimer.o)
 .data          0x000000000068e618        0x0 contiki-native.a(energest.o)
 .data          0x000000000068e618        0x0 contiki-native.a(arg.o)
 .data          0x000000000068e618        0x0 contiki-native.a(ctimer.o)
 *fill*         0x000000000068e618        0x8 
 .data.rel.local
                0x000000000068e620       0x40 contiki-native.a(ctimer.o)
                0x000000000068e640                ctimer_process
 .data          0x000000000068e660        0x0 contiki-native.a(etimer.o)
 .data.rel.local
                0x000000000068e660       0x20 contiki-native.a(etimer.o)
                0x000000000068e660                etimer_process
 .data          0x000000000068e680        0x0 contiki-native.a(compower.o)
 .data          0x000000000068e680        0x0 contiki-native.a(process.o)
 .data          0x000000000068e680        0x0 contiki-native.a(rtimer.o)
 .data          0x000000000068e680        0x0 contiki-native.a(mt.o)
 .data          0x000000000068e680        0x0 contiki-native.a(procinit.o)
 .data          0x000000000068e680        0x0 contiki-native.a(timer.o)
 .data          0x000000000068e680        0x0 contiki-native.a(serial-line.o)
 .data.rel.local
                0x000000000068e680       0x20 contiki-native.a(serial-line.o)
                0x000000000068e680                serial_line_process
 .data          0x000000000068e6a0        0x0 contiki-native.a(slip.o)
 .data.rel.local
                0x000000000068e6a0       0x20 contiki-native.a(slip.o)
                0x000000000068e6a0                slip_process
 .data          0x000000000068e6c0        0x0 contiki-native.a(nullradio.o)
 .data          0x000000000068e6c0        0x0 contiki-native.a(me_tabs.o)
 .data          0x000000000068e6c0        0x0 contiki-native.a(settings.o)
 .data          0x000000000068e6c0        0x0 contiki-native.a(crc16.o)
 .data          0x000000000068e6c0        0x0 contiki-native.a(mmem.o)
 .data.rel.local
                0x000000000068e6c0        0x8 contiki-native.a(mmem.o)
 .data          0x000000000068e6c8        0x0 contiki-native.a(iq-seeder.o)
 .data          0x000000000068e6c8        0x0 contiki-native.a(ccm-star.o)
 .data          0x000000000068e6c8        0x0 contiki-native.a(ifft.o)
 .data          0x000000000068e6c8        0x0 contiki-native.a(null-seeder.o)
 .data          0x000000000068e6c8        0x0 contiki-native.a(ringbufindex.o)
 .data          0x000000000068e6c8        0x0 contiki-native.a(list.o)
 .data          0x000000000068e6c8        0x0 contiki-native.a(gcr.o)
 .data          0x000000000068e6c8        0x0 contiki-native.a(aes-128.o)
 .data          0x000000000068e6c8        0x0 contiki-native.a(trickle-timer.o)
 .data          0x000000000068e6c8        0x0 contiki-native.a(memb.o)
 .data          0x000000000068e6c8        0x0 contiki-native.a(me.o)
 .data          0x000000000068e6c8        0x0 contiki-native.a(print-stats.o)
 .data          0x000000000068e6c8        0x0 contiki-native.a(csprng.o)
 *fill*         0x000000000068e6c8       0x18 
 .data          0x000000000068e6e0       0x80 contiki-native.a(petsciiconv.o)
 .data          0x000000000068e760        0x0 contiki-native.a(random.o)
 .data          0x000000000068e760        0x0 contiki-native.a(assert.o)
 .data          0x000000000068e760        0x0 contiki-native.a(ringbuf.o)
 .data          0x000000000068e760        0x0 contiki-native.a(websocket.o)
 .data.rel.local
                0x000000000068e760       0x28 contiki-native.a(websocket.o)
                0x000000000068e760                websocket_process
 .data          0x000000000068e788        0x0 contiki-native.a(uip-icmp6.o)
 *fill*         0x000000000068e788        0x8 
 .data.rel.local
                0x000000000068e790       0x48 contiki-native.a(uip-icmp6.o)
 .data          0x000000000068e7d8        0x0 contiki-native.a(uip-ds6.o)
 .data          0x000000000068e7d8        0x0 contiki-native.a(uip-ds6-route.o)
 *fill*         0x000000000068e7d8        0x8 
 .data.rel.local
                0x000000000068e7e0       0x80 contiki-native.a(uip-ds6-route.o)
                0x000000000068e7f8                nbr_routes
 .data          0x000000000068e860        0x0 contiki-native.a(uip6.o)
 .data          0x000000000068e860        0x0 contiki-native.a(uip-ds6-nbr.o)
 .data.rel.local
                0x000000000068e860       0x20 contiki-native.a(uip-ds6-nbr.o)
                0x000000000068e878                ds6_neighbors
 .data          0x000000000068e880        0x0 contiki-native.a(uip-nd6.o)
 .data.rel.local
                0x000000000068e880       0x58 contiki-native.a(uip-nd6.o)
 .data          0x000000000068e8d8        0x0 contiki-native.a(websocket-http-)
 .data.rel.local
                0x000000000068e8d8        0x8 contiki-native.a(websocket-http-)
 .data          0x000000000068e8e0        0x0 contiki-native.a(sicslowpan.o)
 .data          0x000000000068e8e0        0x0 contiki-native.a(slipdev.o)
 .data          0x000000000068e8e0        0x0 contiki-native.a(uip-debug.o)
 .data          0x000000000068e8e0        0x0 contiki-native.a(uip-packetqueue)
 .data.rel.local
                0x000000000068e8e0       0x18 contiki-native.a(uip-packetqueue)
 .data          0x000000000068e8f8        0x0 contiki-native.a(tcp-socket.o)
 *fill*         0x000000000068e8f8        0x8 
 .data.rel.local
                0x000000000068e900       0x40 contiki-native.a(tcp-socket.o)
                0x000000000068e920                tcp_socket_process
 .data          0x000000000068e940       0x11 contiki-native.a(ip64-addr.o)
 .data          0x000000000068e951        0x0 contiki-native.a(uip-udp-packet.)
 .data          0x000000000068e951        0x0 contiki-native.a(psock.o)
 .data          0x000000000068e951        0x0 contiki-native.a(dhcpc.o)
 .data          0x000000000068e951        0x0 contiki-native.a(tcpip.o)
 *fill*         0x000000000068e951        0xf 
 .data.rel.local
                0x000000000068e960       0x20 contiki-native.a(tcpip.o)
                0x000000000068e960                tcpip_process
 .data          0x000000000068e980        0x0 contiki-native.a(resolv.o)
 .data.rel.local
                0x000000000068e980       0x40 contiki-native.a(resolv.o)
                0x000000000068e980                resolv_process
                0x000000000068e9a0                mdns_probe_process
 .data          0x000000000068e9c0        0x0 contiki-native.a(uip-nameserver.)
 .data          0x000000000068e9c0        0x0 contiki-native.a(uip-split.o)
 .data          0x000000000068e9c0        0x0 contiki-native.a(udp-socket.o)
 .data.rel.local
                0x000000000068e9c0       0x20 contiki-native.a(udp-socket.o)
                0x000000000068e9c0                udp_socket_process
 .data          0x000000000068e9e0        0x0 contiki-native.a(simple-udp.o)
 .data.rel.local
                0x000000000068e9e0       0x20 contiki-native.a(simple-udp.o)
                0x000000000068e9e0                simple_udp_process
 .data          0x000000000068ea00        0x0 contiki-native.a(uiplib.o)
 .data          0x000000000068ea00        0x0 contiki-native.a(rpl-nbr-policy.)
 .data          0x000000000068ea00        0x0 contiki-native.a(rpl-of0.o)
 .data.rel.local
                0x000000000068ea00       0x50 contiki-native.a(rpl-of0.o)
                0x000000000068ea00                rpl_of0
 .data          0x000000000068ea50        0x0 contiki-native.a(rpl-dag.o)
 .data.rel.local
                0x000000000068ea50       0x20 contiki-native.a(rpl-dag.o)
                0x000000000068ea68                rpl_parents
 .data          0x000000000068ea70        0x0 contiki-native.a(rpl-timers.o)
 .data          0x000000000068ea70        0x0 contiki-native.a(rpl-ext-header.)
 .data          0x000000000068ea70        0x0 contiki-native.a(rpl.o)
 .data          0x000000000068ea70        0x0 contiki-native.a(rpl-mrhof.o)
 *fill*         0x000000000068ea70       0x10 
 .data.rel.local
                0x000000000068ea80       0x50 contiki-native.a(rpl-mrhof.o)
                0x000000000068ea80                rpl_mrhof
 .data          0x000000000068ead0        0x0 contiki-native.a(rpl-ns.o)
 .data.rel.local
                0x000000000068ead0       0x28 contiki-native.a(rpl-ns.o)
 .data          0x000000000068eaf8        0x1 contiki-native.a(rpl-icmp6.o)
 *fill*         0x000000000068eaf9        0x7 
 .data.rel.local
                0x000000000068eb00       0x78 contiki-native.a(rpl-icmp6.o)
 .data          0x000000000068eb78        0x0 contiki-native.a(rpl-dag-root.o)
 .data          0x000000000068eb78        0x0 contiki-native.a(queuebuf.o)
 *fill*         0x000000000068eb78        0x8 
 .data.rel.local
                0x000000000068eb80       0x38 contiki-native.a(queuebuf.o)
 .data          0x000000000068ebb8        0x0 contiki-native.a(cmd-broker.o)
 .data.rel.local
                0x000000000068ebb8        0x8 contiki-native.a(cmd-broker.o)
 .data          0x000000000068ebc0        0x0 contiki-native.a(nbr-table.o)
 .data.rel.local
                0x000000000068ebc0       0x20 contiki-native.a(nbr-table.o)
 .data          0x000000000068ebe0        0x0 contiki-native.a(packetbuf.o)
 .data.rel.local
                0x000000000068ebe0        0x8 contiki-native.a(packetbuf.o)
 .data          0x000000000068ebe8        0x0 contiki-native.a(netstack.o)
 .data          0x000000000068ebe8        0x0 contiki-native.a(linkaddr.o)
 .data          0x000000000068ebe8        0x0 contiki-native.a(net-debug.o)
 .data          0x000000000068ebe8        0x0 contiki-native.a(link-stats.o)
 *fill*         0x000000000068ebe8        0x8 
 .data.rel.local
                0x000000000068ebf0       0x20 contiki-native.a(link-stats.o)
 .data          0x000000000068ec10        0x0 contiki-native.a(nullmac.o)
 .data          0x000000000068ec10        0x0 contiki-native.a(nullrdc-noframe)
 .data          0x000000000068ec10        0x0 contiki-native.a(frame802154e-ie)
 .data          0x000000000068ec10        0x0 contiki-native.a(mac-sequence.o)
 .data          0x000000000068ec10        0x0 contiki-native.a(nordc.o)
 .data          0x000000000068ec10        0x0 contiki-native.a(csma.o)
 .data.rel.local
                0x000000000068ec10       0x60 contiki-native.a(csma.o)
 .data          0x000000000068ec70        0x2 contiki-native.a(frame802154.o)
 .data          0x000000000068ec72        0x0 contiki-native.a(framer-nullmac.)
 .data          0x000000000068ec72        0x0 contiki-native.a(mac.o)
 .data          0x000000000068ec72        0x0 contiki-native.a(framer-802154.o)
 .data          0x000000000068ec72        0x0 contiki-native.a(phase.o)
 *fill*         0x000000000068ec72        0xe 
 .data.rel.local
                0x000000000068ec80       0x40 contiki-native.a(phase.o)
 .data          0x000000000068ecc0        0x0 contiki-native.a(nullrdc.o)
 .data          0x000000000068ecc0        0x0 contiki-native.a(ctk-textentry-c)
 .data          0x000000000068ecc0        0x0 contiki-native.a(ctk-filedialog.)
 .data.rel.local
                0x000000000068ecc0       0x90 contiki-native.a(ctk-filedialog.)
 .data          0x000000000068ed50        0x0 contiki-native.a(ctk-textentry-c)
 .data          0x000000000068ed50        0x0 contiki-native.a(ctk-textentry-m)
 .data          0x000000000068ed50        0x2 contiki-native.a(ctk.o)
                0x000000000068ed50                ctk_screensaver_timeout
 *fill*         0x000000000068ed52        0xe 
 .data.rel.local
                0x000000000068ed60       0x20 contiki-native.a(ctk.o)
                0x000000000068ed60                ctk_process
 .data          0x000000000068ed80        0x0 contiki-native.a(nullsec.o)
 .data          0x000000000068ed80        0x0 contiki-native.a(anti-replay.o)
 .data          0x000000000068ed80        0x0 contiki-native.a(ccm-star-packet)
 .data          0x000000000068ed80        0x0 contiki-native.a(symbols.o)
 .data          0x000000000068ed80        0x0 /usr/lib/x86_64-linux-gnu/libpthread_nonshared.a(pthread_atfork.oS)
 .data          0x000000000068ed80        0x0 /usr/lib/x86_64-linux-gnu/libc_nonshared.a(elf-init.oS)
 .data          0x000000000068ed80        0x0 /usr/lib/x86_64-linux-gnu/libc_nonshared.a(atexit.oS)
 .data          0x000000000068ed80        0x0 /usr/lib/x86_64-linux-gnu/libc_nonshared.a(fstat.oS)
 .data          0x000000000068ed80        0x0 /usr/lib/gcc/x86_64-linux-gnu/5/crtend.o
 .data          0x000000000068ed80        0x0 /usr/lib/gcc/x86_64-linux-gnu/5/../../../x86_64-linux-gnu/crtn.o

.tm_clone_table
                0x000000000068ed80        0x0
 .tm_clone_table
                0x000000000068ed80        0x0 /usr/lib/gcc/x86_64-linux-gnu/5/crtbegin.o
 .tm_clone_table
                0x000000000068ed80        0x0 /usr/lib/gcc/x86_64-linux-gnu/5/crtend.o

.data1
 *(.data1)
                0x000000000068ed80                _edata = .
                [!provide]                        PROVIDE (edata, .)
                0x000000000068ed80                . = .
                0x000000000068ed80                __bss_start = .

.bss            0x000000000068ed80   0x161260
 *(.dynbss)
 .dynbss        0x000000000068ed80        0x0 /usr/lib/gcc/x86_64-linux-gnu/5/../../../x86_64-linux-gnu/crt1.o
 *(.bss .bss.* .gnu.linkonce.b.*)
 .bss           0x000000000068ed80        0x0 /usr/lib/gcc/x86_64-linux-gnu/5/../../../x86_64-linux-gnu/crt1.o
 .bss           0x000000000068ed80        0x0 /usr/lib/gcc/x86_64-linux-gnu/5/../../../x86_64-linux-gnu/crti.o
 .bss           0x000000000068ed80        0x1 /usr/lib/gcc/x86_64-linux-gnu/5/crtbegin.o
 *fill*         0x000000000068ed81       0x1f 
 .bss           0x000000000068eda0       0xa0 cetic-6lbr.co
                0x000000000068eda0                ethernet_ready
                0x000000000068eda4                eth_mac_addr_ready
                0x000000000068eda8                radio_ready
                0x000000000068edac                radio_mac_addr_ready
 .bss           0x000000000068ee40        0x0 obj_native/native-init.o
 .bss           0x000000000068ee40      0x800 obj_native/native-nvm.o
 .bss           0x000000000068f640       0x78 obj_native/native-config.o
                0x000000000068f640                sixlbr_config_slip_ip
                0x000000000068f660                sixlbr_config_eth_device
                0x000000000068f680                sixlbr_config_eth_basedelay
                0x000000000068f684                sixlbr_config_ethernet_has_fcs
                0x000000000068f688                sixlbr_config_ifup_script
                0x000000000068f690                sixlbr_config_ifdown_script
                0x000000000068f698                sixlbr_config_plugins
                0x000000000068f6a0                sixlbr_config_ip_file_name
                0x000000000068f6a8                sixlbr_config_config_file_name
                0x000000000068f6b0                sixlbr_config_node_config_file_name
 .bss           0x000000000068f6b8        0x8 obj_native/native-config-file.o
 .bss           0x000000000068f6c0       0xc0 obj_native/native-config-handlers.o
 .bss           0x000000000068f780        0x0 obj_native/raw-tap-eth-drv.o
 .bss           0x000000000068f780       0x10 obj_native/raw-tap-dev.o
 *fill*         0x000000000068f790       0x10 
 .bss           0x000000000068f7a0     0x5e0c obj_native/native-rdc.o
 .bss           0x00000000006955ac        0x0 obj_native/slip-cmds.o
 .bss           0x00000000006955ac        0x0 obj_native/native-args.o
 *fill*         0x00000000006955ac       0x14 
 .bss           0x00000000006955c0     0x21c0 obj_native/slip-dev.o
 .bss           0x0000000000697780       0x20 obj_native/6lbr-watchdog.o
 .bss           0x00000000006977a0        0x8 obj_native/plugin.o
 .bss           0x00000000006977a8        0x0 obj_native/lost-symbols.o
 .bss           0x00000000006977a8        0x0 obj_native/ini.o
 .bss           0x00000000006977a8        0x0 obj_native/log-6lbr.o
 .bss           0x00000000006977a8        0x8 obj_native/rio.o
 .bss           0x00000000006977b0       0x10 obj_native/packet-forwarding-engine.o
 .bss           0x00000000006977c0        0x1 obj_native/sicslow-ethernet.o
                0x00000000006977c0                prefixCounter
 .bss           0x00000000006977c1        0x0 obj_native/nvm-config.o
 .bss           0x00000000006977c1        0x0 obj_native/mac-wrapper.o
 .bss           0x00000000006977c1        0x0 obj_native/switch-lookup.o
 *fill*         0x00000000006977c1       0x1f 
 .bss           0x00000000006977e0       0x48 obj_native/network-itf.o
 .bss           0x0000000000697828        0x8 obj_native/multi-radio.o
 .bss           0x0000000000697830        0x0 obj_native/llsec-wrapper.o
 .bss           0x0000000000697830        0x0 obj_native/framer-wrapper.o
 .bss           0x0000000000697830        0x0 obj_native/strategy-wrapper.o
 .bss           0x0000000000697830        0x0 obj_native/ip64-eth-driver.o
 .bss           0x0000000000697830        0x0 contiki-native.a(cmd.o)
 .bss           0x0000000000697830        0x0 contiki-native.a(packetutils.o)
 *fill*         0x0000000000697830       0x10 
 .bss           0x0000000000697840    0x21880 contiki-native.a(httpd.o)
 .bss           0x00000000006b90c0       0x18 contiki-native.a(httpd-cgi.o)
 .bss           0x00000000006b90d8        0x0 contiki-native.a(httpd-urlconv.o)
 .bss           0x00000000006b90d8        0x0 contiki-native.a(webserver.o)
 .bss           0x00000000006b90d8        0x0 contiki-native.a(webserver-utils)
 .bss           0x00000000006b90d8        0x0 contiki-native.a(webserver-main.)
 .bss           0x00000000006b90d8       0x30 contiki-native.a(webserver-netwo)
 .bss           0x00000000006b9108        0x0 contiki-native.a(webserver-confi)
 .bss           0x00000000006b9108       0x10 contiki-native.a(webserver-stati)
 .bss           0x00000000006b9118        0x8 contiki-native.a(webserver-admin)
 .bss           0x00000000006b9120        0x0 contiki-native.a(webserver-log.o)
 .bss           0x00000000006b9120        0x8 contiki-native.a(webserver-rpl.o)
 .bss           0x00000000006b9128        0x0 contiki-native.a(webserver-file.)
 .bss           0x00000000006b9128       0x18 contiki-native.a(webserver-senso)
 .bss           0x00000000006b9140       0x58 contiki-native.a(webserver-senso)
 .bss           0x00000000006b9198        0x8 contiki-native.a(webserver-node-)
 .bss           0x00000000006b91a0        0x8 contiki-native.a(udp-server.o)
 .bss           0x00000000006b91a8        0x1 contiki-native.a(node-config.o)
                0x00000000006b91a8                node_config_loaded
 .bss           0x00000000006b91a9        0x0 contiki-native.a(node-config-ip6)
 *fill*         0x00000000006b91a9       0x17 
 .bss           0x00000000006b91c0       0x40 contiki-native.a(node-config-fil)
 .bss           0x00000000006b9200       0x90 contiki-native.a(node-info.o)
 *fill*         0x00000000006b9290       0x10 
 .bss           0x00000000006b92a0       0x60 contiki-native.a(node-info-expor)
                0x00000000006b92a0                node_info_export_file_name
                0x00000000006b92a8                node_info_export_path
                0x00000000006b92b0                node_info_export_enable
                0x00000000006b92b4                node_info_export_global
 .bss           0x00000000006b9300        0x0 contiki-native.a(webserver-node-)
 .bss           0x00000000006b9300        0x8 contiki-native.a(dns-proxy.o)
 .bss           0x00000000006b9308        0x6 contiki-native.a(er-coap.o)
                0x00000000006b9308                erbium_status_code
 *fill*         0x00000000006b930e       0x12 
 .bss           0x00000000006b9320      0x219 contiki-native.a(er-coap-engine.)
                0x00000000006b9320                coap_default_context
 *fill*         0x00000000006b9539        0x7 
 .bss           0x00000000006b9540      0x3d0 contiki-native.a(er-coap-transac)
 *fill*         0x00000000006b9910       0x10 
 .bss           0x00000000006b9920      0x190 contiki-native.a(er-coap-observe)
 .bss           0x00000000006b9ab0        0x0 contiki-native.a(er-coap-separat)
 .bss           0x00000000006b9ab0        0x0 contiki-native.a(er-coap-res-wel)
 .bss           0x00000000006b9ab0        0x0 contiki-native.a(er-coap-block1.)
 .bss           0x00000000006b9ab0        0x0 contiki-native.a(er-coap-observe)
 .bss           0x00000000006b9ab0        0x0 contiki-native.a(er-coap-udp.o)
 .bss           0x00000000006b9ab0       0x11 contiki-native.a(rest-engine.o)
 .bss           0x00000000006b9ac1        0x0 contiki-native.a(coap-server.o)
 *fill*         0x00000000006b9ac1        0x3 
 .bss           0x00000000006b9ac4       0x11 contiki-native.a(block-transfer.)
 *fill*         0x00000000006b9ad5        0x3 
 .bss           0x00000000006b9ad8        0x8 contiki-native.a(coap-common.o)
                0x00000000006b9ad8                coap_batch_basetime
 .bss           0x00000000006b9ae0      0x188 contiki-native.a(coap-push.o)
 *fill*         0x00000000006b9c68       0x18 
 .bss           0x00000000006b9c80      0x222 contiki-native.a(core-interface.)
                0x00000000006b9c80                core_itf_linked_batch_resource
 *fill*         0x00000000006b9ea2       0x1e 
 .bss           0x00000000006b9ec0       0x40 contiki-native.a(coap-binding.o)
 .bss           0x00000000006b9f00        0x0 contiki-native.a(coap-linked-bat)
 .bss           0x00000000006b9f00      0x348 contiki-native.a(rd-client.o)
 .bss           0x00000000006ba248        0x0 contiki-native.a(rest-type-text.)
 .bss           0x00000000006ba248        0x0 contiki-native.a(rest-type-json.)
 .bss           0x00000000006ba248        0x0 contiki-native.a(rest-type-senml)
 .bss           0x00000000006ba248        0x0 contiki-native.a(rest-type-xml.o)
 .bss           0x00000000006ba248        0x2 contiki-native.a(ctk-conio.o)
 *fill*         0x00000000006ba24a       0x16 
 .bss           0x00000000006ba260     0x2024 contiki-native.a(contiki-main.o)
                0x00000000006ba260                contiki_argc
 .bss           0x00000000006bc284        0x0 contiki-native.a(clock.o)
 .bss           0x00000000006bc284        0x1 contiki-native.a(leds.o)
 .bss           0x00000000006bc285        0x1 contiki-native.a(leds-arch.o)
 .bss           0x00000000006bc286        0x0 contiki-native.a(button-sensor.o)
 *fill*         0x00000000006bc286        0x2 
 .bss           0x00000000006bc288        0x4 contiki-native.a(pir-sensor.o)
 .bss           0x00000000006bc28c        0x4 contiki-native.a(vib-sensor.o)
 *fill*         0x00000000006bc290       0x10 
 .bss           0x00000000006bc2a0   0x100000 contiki-native.a(xmem.o)
 .bss           0x00000000007bc2a0        0xc contiki-native.a(sensors.o)
 .bss           0x00000000007bc2ac        0x0 contiki-native.a(irq.o)
 .bss           0x00000000007bc2ac        0x0 contiki-native.a(cfs-posix.o)
 .bss           0x00000000007bc2ac        0x0 contiki-native.a(cfs-posix-dir.o)
 *fill*         0x00000000007bc2ac       0x14 
 .bss           0x00000000007bc2c0      0x12b contiki-native.a(ctk-curses.o)
 .bss           0x00000000007bc3eb        0x0 contiki-native.a(tapdev-drv.o)
 *fill*         0x00000000007bc3eb        0x5 
 .bss           0x00000000007bc3f0        0xc contiki-native.a(linuxradio-drv.)
 *fill*         0x00000000007bc3fc        0x4 
 .bss           0x00000000007bc400        0x8 contiki-native.a(tapdev6.o)
 *fill*         0x00000000007bc408       0x18 
 .bss           0x00000000007bc420      0x3b0 contiki-native.a(mtarch.o)
 .bss           0x00000000007bc7d0        0x0 contiki-native.a(rtimer-arch.o)
 *fill*         0x00000000007bc7d0       0x10 
 .bss           0x00000000007bc7e0      0x100 contiki-native.a(elfloader-stub.)
 .bss           0x00000000007bc8e0        0x0 contiki-native.a(watchdog.o)
 .bss           0x00000000007bc8e0        0x8 contiki-native.a(eeprom.o)
 *fill*         0x00000000007bc8e8       0x18 
 .bss           0x00000000007bc900      0x640 contiki-native.a(noncoresec.o)
 .bss           0x00000000007bcf40       0x20 contiki-native.a(akes.o)
 .bss           0x00000000007bcf60       0x60 contiki-native.a(akes-delete.o)
 .bss           0x00000000007bcfc0        0x0 contiki-native.a(coresec-strateg)
 .bss           0x00000000007bcfc0       0xa0 contiki-native.a(akes-trickle.o)
 .bss           0x00000000007bd060        0x0 contiki-native.a(noncoresec-stra)
 .bss           0x00000000007bd060        0x0 contiki-native.a(akes-single.o)
 .bss           0x00000000007bd060        0x0 contiki-native.a(adaptivesec.o)
 .bss           0x00000000007bd060     0x2e20 contiki-native.a(akes-nbr.o)
 .bss           0x00000000007bfe80        0x0 contiki-native.a(ip64-dns64.o)
 .bss           0x00000000007bfe80       0x62 contiki-native.a(ip64-arp.o)
 *fill*         0x00000000007bfee2       0x1e 
 .bss           0x00000000007bff00      0x828 contiki-native.a(ip64-addrmap.o)
 .bss           0x00000000007c0728        0x0 contiki-native.a(ip64-ipv4-dhcp.)
 .bss           0x00000000007c0728        0x0 contiki-native.a(ip64-null-drive)
 .bss           0x00000000007c0728        0x0 contiki-native.a(ip64-eth-interf)
 *fill*         0x00000000007c0728        0x8 
 .bss           0x00000000007c0730       0x26 contiki-native.a(ip64.o)
 .bss           0x00000000007c0756        0x0 contiki-native.a(ip64-special-po)
 *fill*         0x00000000007c0756        0xa 
 .bss           0x00000000007c0760       0x10 contiki-native.a(ip64-slip-inter)
 *fill*         0x00000000007c0770       0x10 
 .bss           0x00000000007c0780       0x94 contiki-native.a(ip64-dhcpc.o)
 .bss           0x00000000007c0814        0x0 contiki-native.a(ip64-eth.o)
 .bss           0x00000000007c0814        0x0 contiki-native.a(autostart.o)
 .bss           0x00000000007c0814        0x0 contiki-native.a(stimer.o)
 .bss           0x00000000007c0814        0x0 contiki-native.a(energest.o)
 *fill*         0x00000000007c0814        0xc 
 .bss           0x00000000007c0820       0x81 contiki-native.a(arg.o)
 *fill*         0x00000000007c08a1        0x7 
 .bss           0x00000000007c08a8        0x9 contiki-native.a(ctimer.o)
 *fill*         0x00000000007c08b1        0x7 
 .bss           0x00000000007c08b8       0x10 contiki-native.a(etimer.o)
 .bss           0x00000000007c08c8        0x8 contiki-native.a(compower.o)
 *fill*         0x00000000007c08d0       0x10 
 .bss           0x00000000007c08e0      0x321 contiki-native.a(process.o)
                0x00000000007c08e0                process_list
                0x00000000007c08e8                process_current
 *fill*         0x00000000007c0c01        0x7 
 .bss           0x00000000007c0c08        0x8 contiki-native.a(rtimer.o)
 .bss           0x00000000007c0c10        0x8 contiki-native.a(mt.o)
 .bss           0x00000000007c0c18        0x0 contiki-native.a(procinit.o)
 .bss           0x00000000007c0c18        0x0 contiki-native.a(timer.o)
 *fill*         0x00000000007c0c18        0x8 
 .bss           0x00000000007c0c20      0x265 contiki-native.a(serial-line.o)
                0x00000000007c0c20                serial_data_len
 *fill*         0x00000000007c0e85       0x1b 
 .bss           0x00000000007c0ea0     0x1980 contiki-native.a(slip.o)
 .bss           0x00000000007c2820        0x0 contiki-native.a(nullradio.o)
 .bss           0x00000000007c2820        0x0 contiki-native.a(me_tabs.o)
 .bss           0x00000000007c2820        0x0 contiki-native.a(settings.o)
 .bss           0x00000000007c2820        0x0 contiki-native.a(crc16.o)
 .bss           0x00000000007c2820     0x1024 contiki-native.a(mmem.o)
 .bss           0x00000000007c3844        0x0 contiki-native.a(iq-seeder.o)
 .bss           0x00000000007c3844        0x0 contiki-native.a(ccm-star.o)
 .bss           0x00000000007c3844        0x0 contiki-native.a(ifft.o)
 .bss           0x00000000007c3844        0x0 contiki-native.a(null-seeder.o)
 .bss           0x00000000007c3844        0x0 contiki-native.a(ringbufindex.o)
 .bss           0x00000000007c3844        0x0 contiki-native.a(list.o)
 .bss           0x00000000007c3844        0x4 contiki-native.a(gcr.o)
 *fill*         0x00000000007c3848       0x18 
 .bss           0x00000000007c3860       0xb0 contiki-native.a(aes-128.o)
 .bss           0x00000000007c3910       0x10 contiki-native.a(trickle-timer.o)
 .bss           0x00000000007c3920        0x0 contiki-native.a(memb.o)
 .bss           0x00000000007c3920        0x0 contiki-native.a(me.o)
 .bss           0x00000000007c3920        0x0 contiki-native.a(print-stats.o)
 .bss           0x00000000007c3920       0x20 contiki-native.a(csprng.o)
 .bss           0x00000000007c3940        0x0 contiki-native.a(petsciiconv.o)
 .bss           0x00000000007c3940        0x0 contiki-native.a(random.o)
 .bss           0x00000000007c3940        0x0 contiki-native.a(assert.o)
 .bss           0x00000000007c3940        0x0 contiki-native.a(ringbuf.o)
 .bss           0x00000000007c3940        0x9 contiki-native.a(websocket.o)
 *fill*         0x00000000007c3949        0x7 
 .bss           0x00000000007c3950       0x20 contiki-native.a(uip-icmp6.o)
 .bss           0x00000000007c3970       0x40 contiki-native.a(uip-ds6.o)
 *fill*         0x00000000007c39b0       0x10 
 .bss           0x00000000007c39c0     0x59e8 contiki-native.a(uip-ds6-route.o)
 .bss           0x00000000007c93a8        0xa contiki-native.a(uip6.o)
                0x00000000007c93a8                uip_ext_bitmap
                0x00000000007c93a9                uip_ext_len
                0x00000000007c93aa                uip_ext_opt_offset
 *fill*         0x00000000007c93b2        0xe 
 .bss           0x00000000007c93c0     0x3e80 contiki-native.a(uip-ds6-nbr.o)
 .bss           0x00000000007cd240       0x38 contiki-native.a(uip-nd6.o)
 .bss           0x00000000007cd278        0x0 contiki-native.a(websocket-http-)
 *fill*         0x00000000007cd278        0x8 
 .bss           0x00000000007cd280      0x708 contiki-native.a(sicslowpan.o)
 *fill*         0x00000000007cd988       0x18 
 .bss           0x00000000007cd9a0      0x513 contiki-native.a(slipdev.o)
 .bss           0x00000000007cdeb3        0x0 contiki-native.a(uip-debug.o)
 *fill*         0x00000000007cdeb3        0xd 
 .bss           0x00000000007cdec0      0xad0 contiki-native.a(uip-packetqueue)
 .bss           0x00000000007ce990        0x9 contiki-native.a(tcp-socket.o)
 .bss           0x00000000007ce999        0x0 contiki-native.a(ip64-addr.o)
 .bss           0x00000000007ce999        0x0 contiki-native.a(uip-udp-packet.)
 .bss           0x00000000007ce999        0x0 contiki-native.a(psock.o)
 *fill*         0x00000000007ce999        0x7 
 .bss           0x00000000007ce9a0       0x94 contiki-native.a(dhcpc.o)
 *fill*         0x00000000007cea34        0xc 
 .bss           0x00000000007cea40      0x2b8 contiki-native.a(tcpip.o)
 *fill*         0x00000000007cecf8        0x8 
 .bss           0x00000000007ced00      0x6a4 contiki-native.a(resolv.o)
 *fill*         0x00000000007cf3a4        0xc 
 .bss           0x00000000007cf3b0       0x14 contiki-native.a(uip-nameserver.)
 .bss           0x00000000007cf3c4        0x0 contiki-native.a(uip-split.o)
 *fill*         0x00000000007cf3c4       0x1c 
 .bss           0x00000000007cf3e0      0x50f contiki-native.a(udp-socket.o)
 *fill*         0x00000000007cf8ef       0x11 
 .bss           0x00000000007cf900      0x52e contiki-native.a(simple-udp.o)
 .bss           0x00000000007cfe2e        0x0 contiki-native.a(uiplib.o)
 *fill*         0x00000000007cfe2e       0x12 
 .bss           0x00000000007cfe40       0x64 contiki-native.a(rpl-nbr-policy.)
 .bss           0x00000000007cfea4        0x0 contiki-native.a(rpl-of0.o)
 *fill*         0x00000000007cfea4       0x1c 
 .bss           0x00000000007cfec0      0xc80 contiki-native.a(rpl-dag.o)
 .bss           0x00000000007d0b40       0x43 contiki-native.a(rpl-timers.o)
 .bss           0x00000000007d0b83        0x0 contiki-native.a(rpl-ext-header.)
 *fill*         0x00000000007d0b83        0x1 
 .bss           0x00000000007d0b84        0x4 contiki-native.a(rpl.o)
 .bss           0x00000000007d0b88        0x0 contiki-native.a(rpl-mrhof.o)
 *fill*         0x00000000007d0b88       0x18 
 .bss           0x00000000007d0ba0     0x2040 contiki-native.a(rpl-ns.o)
 .bss           0x00000000007d2be0        0x0 contiki-native.a(rpl-icmp6.o)
 .bss           0x00000000007d2be0       0x71 contiki-native.a(rpl-dag-root.o)
 *fill*         0x00000000007d2c51        0xf 
 .bss           0x00000000007d2c60     0xc200 contiki-native.a(queuebuf.o)
 .bss           0x00000000007dee60        0x8 contiki-native.a(cmd-broker.o)
 *fill*         0x00000000007dee68       0x18 
 .bss           0x00000000007dee80      0xf88 contiki-native.a(nbr-table.o)
 *fill*         0x00000000007dfe08       0x18 
 .bss           0x00000000007dfe20       0xa0 contiki-native.a(packetbuf.o)
 .bss           0x00000000007dfec0        0x0 contiki-native.a(netstack.o)
 .bss           0x00000000007dfec0        0x0 contiki-native.a(linkaddr.o)
 .bss           0x00000000007dfec0        0x0 contiki-native.a(net-debug.o)
 .bss           0x00000000007dfec0      0xc80 contiki-native.a(link-stats.o)
 .bss           0x00000000007e0b40        0x0 contiki-native.a(nullmac.o)
 .bss           0x00000000007e0b40        0x0 contiki-native.a(nullrdc-noframe)
 .bss           0x00000000007e0b40        0x0 contiki-native.a(frame802154e-ie)
 .bss           0x00000000007e0b40      0x180 contiki-native.a(mac-sequence.o)
 .bss           0x00000000007e0cc0        0x0 contiki-native.a(nordc.o)
 .bss           0x00000000007e0cc0     0x38a8 contiki-native.a(csma.o)
 .bss           0x00000000007e4568        0x0 contiki-native.a(frame802154.o)
 .bss           0x00000000007e4568        0x0 contiki-native.a(framer-nullmac.)
 .bss           0x00000000007e4568        0x0 contiki-native.a(mac.o)
 .bss           0x00000000007e4568        0x8 contiki-native.a(framer-802154.o)
 *fill*         0x00000000007e4570       0x10 
 .bss           0x00000000007e4580     0x15e0 contiki-native.a(phase.o)
 .bss           0x00000000007e5b60        0x0 contiki-native.a(nullrdc.o)
 .bss           0x00000000007e5b60        0x0 contiki-native.a(ctk-textentry-c)
 .bss           0x00000000007e5b60      0x404 contiki-native.a(ctk-filedialog.)
 .bss           0x00000000007e5f64        0x0 contiki-native.a(ctk-textentry-c)
 .bss           0x00000000007e5f64        0x0 contiki-native.a(ctk-textentry-m)
 *fill*         0x00000000007e5f64       0x1c 
 .bss           0x00000000007e5f80       0x6c contiki-native.a(ctk.o)
 .bss           0x00000000007e5fec        0x0 contiki-native.a(nullsec.o)
 .bss           0x00000000007e5fec        0x4 contiki-native.a(anti-replay.o)
 .bss           0x00000000007e5ff0        0x0 contiki-native.a(ccm-star-packet)
 .bss           0x00000000007e5ff0        0x0 contiki-native.a(symbols.o)
 .bss           0x00000000007e5ff0        0x0 /usr/lib/x86_64-linux-gnu/libpthread_nonshared.a(pthread_atfork.oS)
 .bss           0x00000000007e5ff0        0x0 /usr/lib/x86_64-linux-gnu/libc_nonshared.a(elf-init.oS)
 .bss           0x00000000007e5ff0        0x0 /usr/lib/x86_64-linux-gnu/libc_nonshared.a(atexit.oS)
 .bss           0x00000000007e5ff0        0x0 /usr/lib/x86_64-linux-gnu/libc_nonshared.a(fstat.oS)
 .bss           0x00000000007e5ff0        0x0 /usr/lib/gcc/x86_64-linux-gnu/5/crtend.o
 .bss           0x00000000007e5ff0        0x0 /usr/lib/gcc/x86_64-linux-gnu/5/../../../x86_64-linux-gnu/crtn.o
 *(COMMON)
 COMMON         0x00000000007e5ff0       0xc1 cetic-6lbr.co
                0x00000000007e5ff0                eth_ip64_gateway
                0x00000000007e5ff4                cetic_6lbr_reload_event
                0x00000000007e6000                eth_net_prefix
                0x00000000007e6010                cetic_6lbr_restart_type
                0x00000000007e6018                eth_mac64_addr
                0x00000000007e6020                wsn_net_prefix
                0x00000000007e6030                wsn_ip_local_addr
                0x00000000007e6040                wsn_ip_addr
                0x00000000007e6050                eth_ip_local_addr
                0x00000000007e6060                cetic_dag
                0x00000000007e6068                cetic_6lbr_restart_event
                0x00000000007e606a                eth_ip64_addr
                0x00000000007e6070                cetic_6lbr_startup
                0x00000000007e6078                eth_ip64_netmask
                0x00000000007e6080                eth_ip_addr
                0x00000000007e6090                eth_mac_addr
                0x00000000007e6098                wsn_mac_addr
                0x00000000007e60a0                eth_dft_router
                0x00000000007e60b0                wsn_net_prefix_len
 *fill*         0x00000000007e60b1        0xf 
 COMMON         0x00000000007e60c0       0x28 obj_native/raw-tap-dev.o
                0x00000000007e60c0                if_idx
 COMMON         0x00000000007e60e8        0xc obj_native/native-rdc.o
                0x00000000007e60e8                native_rdc_parse_error
                0x00000000007e60ec                native_rdc_ack_timeout
                0x00000000007e60f0                callback_count
 COMMON         0x00000000007e60f4        0x1 obj_native/slip-cmds.o
                0x00000000007e60f4                command_context
 *fill*         0x00000000007e60f5        0x3 
 COMMON         0x00000000007e60f8        0x8 obj_native/slip-dev.o
                0x00000000007e60f8                slip_default_device
 COMMON         0x00000000007e6100       0x18 obj_native/rio.o
                0x00000000007e6100                uip_ds6_route_info_list
 COMMON         0x00000000007e6118        0x8 obj_native/packet-forwarding-engine.o
                0x00000000007e6118                packet_filter_wsn_packet
                0x00000000007e611c                packet_filter_eth_packet
 COMMON         0x00000000007e6120      0x100 obj_native/sicslow-ethernet.o
                0x00000000007e6120                raw_buf
                0x00000000007e61c0                prefixBuffer
 COMMON         0x00000000007e6220       0xfc obj_native/nvm-config.o
                0x00000000007e6220                nvm_data
 *fill*         0x00000000007e631c        0x4 
 COMMON         0x00000000007e6320      0x220 contiki-native.a(webserver-utils)
                0x00000000007e6320                webserver_result_text
                0x00000000007e6328                webserver_result_title
                0x00000000007e6330                blen
                0x00000000007e6334                webserver_result_refresh
                0x00000000007e6340                buf
 COMMON         0x00000000007e6540     0x7d00 contiki-native.a(node-info.o)
                0x00000000007e6540                node_info_table
 COMMON         0x00000000007ee240        0xc contiki-native.a(contiki-main.o)
                0x00000000007ee240                contiki_argv
                0x00000000007ee248                sensors_flags
 COMMON         0x00000000007ee24c        0x1 contiki-native.a(sensors.o)
                0x00000000007ee24c                sensors_event
 *fill*         0x00000000007ee24d        0x3 
 COMMON         0x00000000007ee250       0x10 contiki-native.a(noncoresec.o)
                0x00000000007ee250                noncoresec_nonauthentic
                0x00000000007ee254                noncoresec_reboot
                0x00000000007ee258                noncoresec_replayed
                0x00000000007ee25c                noncoresec_invalid_level
 COMMON         0x00000000007ee260       0x10 contiki-native.a(adaptivesec.o)
                0x00000000007ee260                adaptivesec_group_key
 COMMON         0x00000000007ee270       0x10 contiki-native.a(ip64-arp.o)
                0x00000000007ee270                uip_all_zeroes_addr
 COMMON         0x00000000007ee280       0x10 contiki-native.a(ip64-ipv4-dhcp.)
                0x00000000007ee280                uip_hostaddr
 *fill*         0x00000000007ee290       0x10 
 COMMON         0x00000000007ee2a0      0x510 contiki-native.a(ip64.o)
                0x00000000007ee2a0                ip64_packet_buffer_aligned
 COMMON         0x00000000007ee7b0        0x6 contiki-native.a(ip64-eth.o)
                0x00000000007ee7b0                ip64_eth_addr
 *fill*         0x00000000007ee7b6        0x2 
 COMMON         0x00000000007ee7b8        0x8 contiki-native.a(compower.o)
                0x00000000007ee7b8                compower_idle_activity
 COMMON         0x00000000007ee7c0        0x1 contiki-native.a(serial-line.o)
                0x00000000007ee7c0                serial_line_event_message
 COMMON         0x00000000007ee7c1        0x1 contiki-native.a(slip.o)
                0x00000000007ee7c1                slip_active
 *fill*         0x00000000007ee7c2        0x2 
 COMMON         0x00000000007ee7c4        0x4 contiki-native.a(mmem.o)
                0x00000000007ee7c4                avail_memory
 *fill*         0x00000000007ee7c8       0x18 
 COMMON         0x00000000007ee7e0      0x301 contiki-native.a(uip-ds6.o)
                0x00000000007ee7e0                uip_ds6_prefix_list
                0x00000000007ee840                uip_ds6_timer_periodic
                0x00000000007ee860                uip_ds6_netif_addr_list_offset
                0x00000000007ee880                uip_ds6_if
                0x00000000007eead0                uip_ds6_timer_ra
                0x00000000007eeae0                uip_ds6_addr_size
 *fill*         0x00000000007eeae1       0x1f 
 COMMON         0x00000000007eeb00     0x111c contiki-native.a(uip6.o)
                0x00000000007eeb00                uip_slen
                0x00000000007eeb02                uip_acc32
                0x00000000007eeb20                uip_conns
                0x00000000007ef3e0                uip_icmp6_conns
                0x00000000007ef3f0                uip_lladdr
                0x00000000007ef3f8                uip_appdata
                0x00000000007ef400                uip_flags
                0x00000000007ef420                uip_aligned_buf
                0x00000000007ef940                uip_listenports
                0x00000000007ef990                uip_len
                0x00000000007ef998                uip_sappdata
                0x00000000007ef9a0                uip_udp_conns
                0x00000000007efb80                uip_udp_conn
                0x00000000007efb88                uip_next_hdr
                0x00000000007efb90                uip_conn
                0x00000000007efba0                uip_stat
 *fill*         0x00000000007efc1c        0x4 
 COMMON         0x00000000007efc20       0x14 contiki-native.a(sicslowpan.o)
                0x00000000007efc20                addr_contexts
 COMMON         0x00000000007efc34        0x2 contiki-native.a(tcpip.o)
                0x00000000007efc34                tcpip_icmp6_event
                0x00000000007efc35                tcpip_event
 COMMON         0x00000000007efc36        0x1 contiki-native.a(resolv.o)
                0x00000000007efc36                resolv_event_found
 *fill*         0x00000000007efc37        0x9 
 COMMON         0x00000000007efc40      0x2a0 contiki-native.a(rpl-dag.o)
                0x00000000007efc40                default_instance
                0x00000000007efc60                instance_table
 COMMON         0x00000000007efee0       0x14 contiki-native.a(rpl.o)
                0x00000000007efee0                rpl_stats
 *fill*         0x00000000007efef4        0xc 
 COMMON         0x00000000007eff00       0x40 contiki-native.a(packetbuf.o)
                0x00000000007eff00                packetbuf_attrs
                0x00000000007eff30                packetbuf_addrs
 COMMON         0x00000000007eff40        0x8 contiki-native.a(linkaddr.o)
                0x00000000007eff40                linkaddr_node_addr
 *fill*         0x00000000007eff48       0x18 
 COMMON         0x00000000007eff60       0x40 contiki-native.a(link-stats.o)
                0x00000000007eff60                periodic_timer
 COMMON         0x00000000007effa0       0x24 contiki-native.a(csma.o)
                0x00000000007effa0                csma_dropped
                0x00000000007effa4                csma_sent_packets
                0x00000000007effa8                csma_received_packets
                0x00000000007effac                csma_noack
                0x00000000007effb0                neighbor_overflow
                0x00000000007effb4                packet_overflow
                0x00000000007effb8                csma_retransmissions
                0x00000000007effbc                csma_collisions
                0x00000000007effc0                csma_deferred
 COMMON         0x00000000007effc4       0x15 contiki-native.a(ctk.o)
                0x00000000007effc4                ctk_signal_menu_activate
                0x00000000007effc5                ctk_signal_widget_activate
                0x00000000007effc6                mouse_x
                0x00000000007effc8                ctk_signal_screensaver_stop
                0x00000000007effc9                ctk_signal_pointer_move
                0x00000000007effca                ctk_signal_window_close
                0x00000000007effcb                ctk_signal_button_hover
                0x00000000007effcc                ctk_signal_widget_select
                0x00000000007effce                mouse_button
                0x00000000007effd0                ctk_signal_hyperlink_activate
                0x00000000007effd1                ctk_signal_keypress
                0x00000000007effd2                ctk_signal_hyperlink_hover
                0x00000000007effd4                mouse_y
                0x00000000007effd6                ctk_signal_screensaver_start
                0x00000000007effd7                ctk_signal_button_activate
                0x00000000007effd8                ctk_signal_pointer_button
                0x00000000007effe0                . = ALIGN ((. != 0x0)?0x8:0x1)
 *fill*         0x00000000007effd9        0x7 

.lbss
 *(.dynlbss)
 *(.lbss .lbss.* .gnu.linkonce.lb.*)
 *(LARGE_COMMON)
                0x00000000007effe0                . = ALIGN (0x8)
                0x00000000007effe0                . = SEGMENT_START ("ldata-segment", .)

.lrodata
 *(.lrodata .lrodata.* .gnu.linkonce.lr.*)

.ldata          0x0000000000beffe0        0x0
 *(.ldata .ldata.* .gnu.linkonce.l.*)
                0x0000000000beffe0                . = ALIGN ((. != 0x0)?0x8:0x1)
                0x0000000000beffe0                . = ALIGN (0x8)
                0x0000000000beffe0                _end = .
                [!provide]                        PROVIDE (end, .)
                0x0000000000beffe0                . = DATA_SEGMENT_END (.)

.stab
 *(.stab)

.stabstr
 *(.stabstr)

.stab.excl
 *(.stab.excl)

.stab.exclstr
 *(.stab.exclstr)

.stab.index
 *(.stab.index)

.stab.indexstr
 *(.stab.indexstr)

.comment        0x0000000000000000       0x68
 *(.comment)
 .comment       0x0000000000000000       0x34 /usr/lib/gcc/x86_64-linux-gnu/5/crtbegin.o
                                         0x35 (size before relaxing)
 .comment       0x0000000000000034       0x35 cetic-6lbr.co
 .comment       0x0000000000000034       0x35 obj_native/native-init.o
 .comment       0x0000000000000034       0x35 obj_native/native-nvm.o
 .comment       0x0000000000000034       0x35 obj_native/native-config.o
 .comment       0x0000000000000034       0x35 obj_native/native-config-file.o
 .comment       0x0000000000000034       0x35 obj_native/native-config-handlers.o
 .comment       0x0000000000000034       0x35 obj_native/raw-tap-eth-drv.o
 .comment       0x0000000000000034       0x35 obj_native/raw-tap-dev.o
 .comment       0x0000000000000034       0x35 obj_native/native-rdc.o
 .comment       0x0000000000000034       0x35 obj_native/slip-cmds.o
 .comment       0x0000000000000034       0x35 obj_native/native-args.o
 .comment       0x0000000000000034       0x35 obj_native/slip-dev.o
 .comment       0x0000000000000034       0x35 obj_native/6lbr-watchdog.o
 .comment       0x0000000000000034       0x35 obj_native/plugin.o
 .comment       0x0000000000000034       0x35 obj_native/lost-symbols.o
 .comment       0x0000000000000034       0x35 obj_native/ini.o
 .comment       0x0000000000000034       0x35 obj_native/log-6lbr.o
 .comment       0x0000000000000034       0x35 obj_native/rio.o
 .comment       0x0000000000000034       0x35 obj_native/packet-forwarding-engine.o
 .comment       0x0000000000000034       0x35 obj_native/sicslow-ethernet.o
 .comment       0x0000000000000034       0x35 obj_native/nvm-config.o
 .comment       0x0000000000000034       0x35 obj_native/mac-wrapper.o
 .comment       0x0000000000000034       0x35 obj_native/switch-lookup.o
 .comment       0x0000000000000034       0x35 obj_native/network-itf.o
 .comment       0x0000000000000034       0x35 obj_native/multi-radio.o
 .comment       0x0000000000000034       0x35 obj_native/llsec-wrapper.o
 .comment       0x0000000000000034       0x35 obj_native/framer-wrapper.o
 .comment       0x0000000000000034       0x35 obj_native/strategy-wrapper.o
 .comment       0x0000000000000034       0x35 obj_native/ip64-eth-driver.o
 .comment       0x0000000000000034       0x35 contiki-native.a(cmd.o)
 .comment       0x0000000000000034       0x35 contiki-native.a(packetutils.o)
 .comment       0x0000000000000034       0x35 contiki-native.a(httpd.o)
 .comment       0x0000000000000034       0x35 contiki-native.a(httpd-cgi.o)
 .comment       0x0000000000000034       0x35 contiki-native.a(httpd-urlconv.o)
 .comment       0x0000000000000034       0x35 contiki-native.a(webserver.o)
 .comment       0x0000000000000034       0x35 contiki-native.a(webserver-utils)
 .comment       0x0000000000000034       0x35 contiki-native.a(webserver-main.)
 .comment       0x0000000000000034       0x35 contiki-native.a(webserver-netwo)
 .comment       0x0000000000000034       0x35 contiki-native.a(webserver-confi)
 .comment       0x0000000000000034       0x35 contiki-native.a(webserver-stati)
 .comment       0x0000000000000034       0x35 contiki-native.a(webserver-admin)
 .comment       0x0000000000000034       0x35 contiki-native.a(webserver-log.o)
 .comment       0x0000000000000034       0x35 contiki-native.a(webserver-rpl.o)
 .comment       0x0000000000000034       0x35 contiki-native.a(webserver-file.)
 .comment       0x0000000000000034       0x35 contiki-native.a(webserver-senso)
 .comment       0x0000000000000034       0x35 contiki-native.a(webserver-senso)
 .comment       0x0000000000000034       0x35 contiki-native.a(webserver-node-)
 .comment       0x0000000000000034       0x35 contiki-native.a(udp-server.o)
 .comment       0x0000000000000034       0x35 contiki-native.a(node-config.o)
 .comment       0x0000000000000034       0x35 contiki-native.a(node-config-ip6)
 .comment       0x0000000000000034       0x35 contiki-native.a(node-config-fil)
 .comment       0x0000000000000034       0x35 contiki-native.a(node-info.o)
 .comment       0x0000000000000034       0x35 contiki-native.a(node-info-expor)
 .comment       0x0000000000000034       0x35 contiki-native.a(webserver-node-)
 .comment       0x0000000000000034       0x35 contiki-native.a(dns-proxy.o)
 .comment       0x0000000000000034       0x35 contiki-native.a(er-coap.o)
 .comment       0x0000000000000034       0x35 contiki-native.a(er-coap-engine.)
 .comment       0x0000000000000034       0x35 contiki-native.a(er-coap-transac)
 .comment       0x0000000000000034       0x35 contiki-native.a(er-coap-observe)
 .comment       0x0000000000000034       0x35 contiki-native.a(er-coap-separat)
 .comment       0x0000000000000034       0x35 contiki-native.a(er-coap-res-wel)
 .comment       0x0000000000000034       0x35 contiki-native.a(er-coap-block1.)
 .comment       0x0000000000000034       0x35 contiki-native.a(er-coap-observe)
 .comment       0x0000000000000034       0x35 contiki-native.a(er-coap-udp.o)
 .comment       0x0000000000000034       0x35 contiki-native.a(rest-engine.o)
 .comment       0x0000000000000034       0x35 contiki-native.a(coap-server.o)
 .comment       0x0000000000000034       0x35 contiki-native.a(block-transfer.)
 .comment       0x0000000000000034       0x35 contiki-native.a(coap-common.o)
 .comment       0x0000000000000034       0x35 contiki-native.a(coap-push.o)
 .comment       0x0000000000000034       0x35 contiki-native.a(core-interface.)
 .comment       0x0000000000000034       0x35 contiki-native.a(coap-binding.o)
 .comment       0x0000000000000034       0x35 contiki-native.a(coap-linked-bat)
 .comment       0x0000000000000034       0x35 contiki-native.a(rd-client.o)
 .comment       0x0000000000000034       0x35 contiki-native.a(rest-type-text.)
 .comment       0x0000000000000034       0x35 contiki-native.a(rest-type-json.)
 .comment       0x0000000000000034       0x35 contiki-native.a(rest-type-senml)
 .comment       0x0000000000000034       0x35 contiki-native.a(rest-type-xml.o)
 .comment       0x0000000000000034       0x35 contiki-native.a(ctk-conio.o)
 .comment       0x0000000000000034       0x35 contiki-native.a(contiki-main.o)
 .comment       0x0000000000000034       0x35 contiki-native.a(clock.o)
 .comment       0x0000000000000034       0x35 contiki-native.a(leds.o)
 .comment       0x0000000000000034       0x35 contiki-native.a(leds-arch.o)
 .comment       0x0000000000000034       0x35 contiki-native.a(button-sensor.o)
 .comment       0x0000000000000034       0x35 contiki-native.a(pir-sensor.o)
 .comment       0x0000000000000034       0x35 contiki-native.a(vib-sensor.o)
 .comment       0x0000000000000034       0x35 contiki-native.a(xmem.o)
 .comment       0x0000000000000034       0x35 contiki-native.a(sensors.o)
 .comment       0x0000000000000034       0x35 contiki-native.a(irq.o)
 .comment       0x0000000000000034       0x35 contiki-native.a(cfs-posix.o)
 .comment       0x0000000000000034       0x35 contiki-native.a(cfs-posix-dir.o)
 .comment       0x0000000000000034       0x35 contiki-native.a(ctk-curses.o)
 .comment       0x0000000000000034       0x35 contiki-native.a(tapdev-drv.o)
 .comment       0x0000000000000034       0x35 contiki-native.a(linuxradio-drv.)
 .comment       0x0000000000000034       0x35 contiki-native.a(tapdev6.o)
 .comment       0x0000000000000034       0x35 contiki-native.a(mtarch.o)
 .comment       0x0000000000000034       0x35 contiki-native.a(rtimer-arch.o)
 .comment       0x0000000000000034       0x35 contiki-native.a(elfloader-stub.)
 .comment       0x0000000000000034       0x35 contiki-native.a(watchdog.o)
 .comment       0x0000000000000034       0x35 contiki-native.a(eeprom.o)
 .comment       0x0000000000000034       0x35 contiki-native.a(noncoresec.o)
 .comment       0x0000000000000034       0x35 contiki-native.a(akes.o)
 .comment       0x0000000000000034       0x35 contiki-native.a(akes-delete.o)
 .comment       0x0000000000000034       0x35 contiki-native.a(coresec-strateg)
 .comment       0x0000000000000034       0x35 contiki-native.a(akes-trickle.o)
 .comment       0x0000000000000034       0x35 contiki-native.a(noncoresec-stra)
 .comment       0x0000000000000034       0x35 contiki-native.a(akes-single.o)
 .comment       0x0000000000000034       0x35 contiki-native.a(adaptivesec.o)
 .comment       0x0000000000000034       0x35 contiki-native.a(akes-nbr.o)
 .comment       0x0000000000000034       0x35 contiki-native.a(ip64-dns64.o)
 .comment       0x0000000000000034       0x35 contiki-native.a(ip64-arp.o)
 .comment       0x0000000000000034       0x35 contiki-native.a(ip64-addrmap.o)
 .comment       0x0000000000000034       0x35 contiki-native.a(ip64-ipv4-dhcp.)
 .comment       0x0000000000000034       0x35 contiki-native.a(ip64-null-drive)
 .comment       0x0000000000000034       0x35 contiki-native.a(ip64-eth-interf)
 .comment       0x0000000000000034       0x35 contiki-native.a(ip64.o)
 .comment       0x0000000000000034       0x35 contiki-native.a(ip64-special-po)
 .comment       0x0000000000000034       0x35 contiki-native.a(ip64-slip-inter)
 .comment       0x0000000000000034       0x35 contiki-native.a(ip64-dhcpc.o)
 .comment       0x0000000000000034       0x35 contiki-native.a(ip64-eth.o)
 .comment       0x0000000000000034       0x35 contiki-native.a(autostart.o)
 .comment       0x0000000000000034       0x35 contiki-native.a(stimer.o)
 .comment       0x0000000000000034       0x35 contiki-native.a(energest.o)
 .comment       0x0000000000000034       0x35 contiki-native.a(arg.o)
 .comment       0x0000000000000034       0x35 contiki-native.a(ctimer.o)
 .comment       0x0000000000000034       0x35 contiki-native.a(etimer.o)
 .comment       0x0000000000000034       0x35 contiki-native.a(compower.o)
 .comment       0x0000000000000034       0x35 contiki-native.a(process.o)
 .comment       0x0000000000000034       0x35 contiki-native.a(rtimer.o)
 .comment       0x0000000000000034       0x35 contiki-native.a(mt.o)
 .comment       0x0000000000000034       0x35 contiki-native.a(procinit.o)
 .comment       0x0000000000000034       0x35 contiki-native.a(timer.o)
 .comment       0x0000000000000034       0x35 contiki-native.a(serial-line.o)
 .comment       0x0000000000000034       0x35 contiki-native.a(slip.o)
 .comment       0x0000000000000034       0x35 contiki-native.a(nullradio.o)
 .comment       0x0000000000000034       0x35 contiki-native.a(me_tabs.o)
 .comment       0x0000000000000034       0x35 contiki-native.a(settings.o)
 .comment       0x0000000000000034       0x35 contiki-native.a(crc16.o)
 .comment       0x0000000000000034       0x35 contiki-native.a(mmem.o)
 .comment       0x0000000000000034       0x35 contiki-native.a(iq-seeder.o)
 .comment       0x0000000000000034       0x35 contiki-native.a(ccm-star.o)
 .comment       0x0000000000000034       0x35 contiki-native.a(ifft.o)
 .comment       0x0000000000000034       0x35 contiki-native.a(null-seeder.o)
 .comment       0x0000000000000034       0x35 contiki-native.a(ringbufindex.o)
 .comment       0x0000000000000034       0x35 contiki-native.a(list.o)
 .comment       0x0000000000000034       0x35 contiki-native.a(gcr.o)
 .comment       0x0000000000000034       0x35 contiki-native.a(aes-128.o)
 .comment       0x0000000000000034       0x35 contiki-native.a(trickle-timer.o)
 .comment       0x0000000000000034       0x35 contiki-native.a(memb.o)
 .comment       0x0000000000000034       0x35 contiki-native.a(me.o)
 .comment       0x0000000000000034       0x35 contiki-native.a(print-stats.o)
 .comment       0x0000000000000034       0x35 contiki-native.a(csprng.o)
 .comment       0x0000000000000034       0x35 contiki-native.a(petsciiconv.o)
 .comment       0x0000000000000034       0x35 contiki-native.a(random.o)
 .comment       0x0000000000000034       0x35 contiki-native.a(assert.o)
 .comment       0x0000000000000034       0x35 contiki-native.a(ringbuf.o)
 .comment       0x0000000000000034       0x35 contiki-native.a(websocket.o)
 .comment       0x0000000000000034       0x35 contiki-native.a(uip-icmp6.o)
 .comment       0x0000000000000034       0x35 contiki-native.a(uip-ds6.o)
 .comment       0x0000000000000034       0x35 contiki-native.a(uip-ds6-route.o)
 .comment       0x0000000000000034       0x35 contiki-native.a(uip6.o)
 .comment       0x0000000000000034       0x35 contiki-native.a(uip-ds6-nbr.o)
 .comment       0x0000000000000034       0x35 contiki-native.a(uip-nd6.o)
 .comment       0x0000000000000034       0x35 contiki-native.a(websocket-http-)
 .comment       0x0000000000000034       0x35 contiki-native.a(sicslowpan.o)
 .comment       0x0000000000000034       0x35 contiki-native.a(slipdev.o)
 .comment       0x0000000000000034       0x35 contiki-native.a(uip-debug.o)
 .comment       0x0000000000000034       0x35 contiki-native.a(uip-packetqueue)
 .comment       0x0000000000000034       0x35 contiki-native.a(tcp-socket.o)
 .comment       0x0000000000000034       0x35 contiki-native.a(ip64-addr.o)
 .comment       0x0000000000000034       0x35 contiki-native.a(uip-udp-packet.)
 .comment       0x0000000000000034       0x35 contiki-native.a(psock.o)
 .comment       0x0000000000000034       0x35 contiki-native.a(dhcpc.o)
 .comment       0x0000000000000034       0x35 contiki-native.a(tcpip.o)
 .comment       0x0000000000000034       0x35 contiki-native.a(resolv.o)
 .comment       0x0000000000000034       0x35 contiki-native.a(uip-nameserver.)
 .comment       0x0000000000000034       0x35 contiki-native.a(uip-split.o)
 .comment       0x0000000000000034       0x35 contiki-native.a(udp-socket.o)
 .comment       0x0000000000000034       0x35 contiki-native.a(simple-udp.o)
 .comment       0x0000000000000034       0x35 contiki-native.a(uiplib.o)
 .comment       0x0000000000000034       0x35 contiki-native.a(rpl-nbr-policy.)
 .comment       0x0000000000000034       0x35 contiki-native.a(rpl-of0.o)
 .comment       0x0000000000000034       0x35 contiki-native.a(rpl-dag.o)
 .comment       0x0000000000000034       0x35 contiki-native.a(rpl-timers.o)
 .comment       0x0000000000000034       0x35 contiki-native.a(rpl-ext-header.)
 .comment       0x0000000000000034       0x35 contiki-native.a(rpl.o)
 .comment       0x0000000000000034       0x35 contiki-native.a(rpl-mrhof.o)
 .comment       0x0000000000000034       0x35 contiki-native.a(rpl-ns.o)
 .comment       0x0000000000000034       0x35 contiki-native.a(rpl-icmp6.o)
 .comment       0x0000000000000034       0x35 contiki-native.a(rpl-dag-root.o)
 .comment       0x0000000000000034       0x35 contiki-native.a(queuebuf.o)
 .comment       0x0000000000000034       0x35 contiki-native.a(cmd-broker.o)
 .comment       0x0000000000000034       0x35 contiki-native.a(nbr-table.o)
 .comment       0x0000000000000034       0x35 contiki-native.a(packetbuf.o)
 .comment       0x0000000000000034       0x35 contiki-native.a(netstack.o)
 .comment       0x0000000000000034       0x35 contiki-native.a(linkaddr.o)
 .comment       0x0000000000000034       0x35 contiki-native.a(net-debug.o)
 .comment       0x0000000000000034       0x35 contiki-native.a(link-stats.o)
 .comment       0x0000000000000034       0x35 contiki-native.a(nullmac.o)
 .comment       0x0000000000000034       0x35 contiki-native.a(nullrdc-noframe)
 .comment       0x0000000000000034       0x35 contiki-native.a(frame802154e-ie)
 .comment       0x0000000000000034       0x35 contiki-native.a(mac-sequence.o)
 .comment       0x0000000000000034       0x35 contiki-native.a(nordc.o)
 .comment       0x0000000000000034       0x35 contiki-native.a(csma.o)
 .comment       0x0000000000000034       0x35 contiki-native.a(frame802154.o)
 .comment       0x0000000000000034       0x35 contiki-native.a(framer-nullmac.)
 .comment       0x0000000000000034       0x35 contiki-native.a(mac.o)
 .comment       0x0000000000000034       0x35 contiki-native.a(framer-802154.o)
 .comment       0x0000000000000034       0x35 contiki-native.a(phase.o)
 .comment       0x0000000000000034       0x35 contiki-native.a(nullrdc.o)
 .comment       0x0000000000000034       0x35 contiki-native.a(ctk-textentry-c)
 .comment       0x0000000000000034       0x35 contiki-native.a(ctk-filedialog.)
 .comment       0x0000000000000034       0x35 contiki-native.a(ctk-textentry-c)
 .comment       0x0000000000000034       0x35 contiki-native.a(ctk-textentry-m)
 .comment       0x0000000000000034       0x35 contiki-native.a(ctk.o)
 .comment       0x0000000000000034       0x35 contiki-native.a(nullsec.o)
 .comment       0x0000000000000034       0x35 contiki-native.a(anti-replay.o)
 .comment       0x0000000000000034       0x35 contiki-native.a(ccm-star-packet)
 .comment       0x0000000000000034       0x35 contiki-native.a(symbols.o)
 .comment       0x0000000000000034       0x34 /usr/lib/x86_64-linux-gnu/libpthread_nonshared.a(pthread_atfork.oS)
                                         0x35 (size before relaxing)
 .comment       0x0000000000000068       0x35 /usr/lib/gcc/x86_64-linux-gnu/5/crtend.o

.debug
 *(.debug)

.line
 *(.line)

.debug_srcinfo
 *(.debug_srcinfo)

.debug_sfnames
 *(.debug_sfnames)

.debug_aranges  0x0000000000000000     0x28a0
 *(.debug_aranges)
 .debug_aranges
                0x0000000000000000       0x30 cetic-6lbr.co
 .debug_aranges
                0x0000000000000030       0x30 obj_native/native-init.o
 .debug_aranges
                0x0000000000000060       0x30 obj_native/native-nvm.o
 .debug_aranges
                0x0000000000000090       0x20 obj_native/native-config.o
 .debug_aranges
                0x00000000000000b0       0x30 obj_native/native-config-file.o
 .debug_aranges
                0x00000000000000e0       0x30 obj_native/native-config-handlers.o
 .debug_aranges
                0x0000000000000110       0x30 obj_native/raw-tap-eth-drv.o
 .debug_aranges
                0x0000000000000140       0x30 obj_native/raw-tap-dev.o
 .debug_aranges
                0x0000000000000170       0x30 obj_native/native-rdc.o
 .debug_aranges
                0x00000000000001a0       0x30 obj_native/slip-cmds.o
 .debug_aranges
                0x00000000000001d0       0x30 obj_native/native-args.o
 .debug_aranges
                0x0000000000000200       0x30 obj_native/slip-dev.o
 .debug_aranges
                0x0000000000000230       0x30 obj_native/6lbr-watchdog.o
 .debug_aranges
                0x0000000000000260       0x30 obj_native/plugin.o
 .debug_aranges
                0x0000000000000290       0x30 obj_native/lost-symbols.o
 .debug_aranges
                0x00000000000002c0       0x30 obj_native/ini.o
 .debug_aranges
                0x00000000000002f0       0x30 obj_native/log-6lbr.o
 .debug_aranges
                0x0000000000000320       0x30 obj_native/rio.o
 .debug_aranges
                0x0000000000000350       0x30 obj_native/packet-forwarding-engine.o
 .debug_aranges
                0x0000000000000380       0x30 obj_native/sicslow-ethernet.o
 .debug_aranges
                0x00000000000003b0       0x30 obj_native/nvm-config.o
 .debug_aranges
                0x00000000000003e0       0x30 obj_native/mac-wrapper.o
 .debug_aranges
                0x0000000000000410       0x30 obj_native/switch-lookup.o
 .debug_aranges
                0x0000000000000440       0x30 obj_native/network-itf.o
 .debug_aranges
                0x0000000000000470       0x30 obj_native/multi-radio.o
 .debug_aranges
                0x00000000000004a0       0x30 obj_native/llsec-wrapper.o
 .debug_aranges
                0x00000000000004d0       0x30 obj_native/framer-wrapper.o
 .debug_aranges
                0x0000000000000500       0x30 obj_native/strategy-wrapper.o
 .debug_aranges
                0x0000000000000530       0x30 obj_native/ip64-eth-driver.o
 .debug_aranges
                0x0000000000000560       0x30 contiki-native.a(cmd.o)
 .debug_aranges
                0x0000000000000590       0x30 contiki-native.a(packetutils.o)
 .debug_aranges
                0x00000000000005c0       0x30 contiki-native.a(httpd.o)
 .debug_aranges
                0x00000000000005f0       0x30 contiki-native.a(httpd-cgi.o)
 .debug_aranges
                0x0000000000000620       0x30 contiki-native.a(httpd-urlconv.o)
 .debug_aranges
                0x0000000000000650       0x30 contiki-native.a(webserver.o)
 .debug_aranges
                0x0000000000000680       0x30 contiki-native.a(webserver-utils)
 .debug_aranges
                0x00000000000006b0       0x30 contiki-native.a(webserver-main.)
 .debug_aranges
                0x00000000000006e0       0x30 contiki-native.a(webserver-netwo)
 .debug_aranges
                0x0000000000000710       0x30 contiki-native.a(webserver-confi)
 .debug_aranges
                0x0000000000000740       0x30 contiki-native.a(webserver-stati)
 .debug_aranges
                0x0000000000000770       0x30 contiki-native.a(webserver-admin)
 .debug_aranges
                0x00000000000007a0       0x30 contiki-native.a(webserver-log.o)
 .debug_aranges
                0x00000000000007d0       0x30 contiki-native.a(webserver-rpl.o)
 .debug_aranges
                0x0000000000000800       0x30 contiki-native.a(webserver-file.)
 .debug_aranges
                0x0000000000000830       0x30 contiki-native.a(webserver-senso)
 .debug_aranges
                0x0000000000000860       0x30 contiki-native.a(webserver-senso)
 .debug_aranges
                0x0000000000000890       0x30 contiki-native.a(webserver-node-)
 .debug_aranges
                0x00000000000008c0       0x30 contiki-native.a(udp-server.o)
 .debug_aranges
                0x00000000000008f0       0x30 contiki-native.a(node-config.o)
 .debug_aranges
                0x0000000000000920       0x30 contiki-native.a(node-config-ip6)
 .debug_aranges
                0x0000000000000950       0x30 contiki-native.a(node-config-fil)
 .debug_aranges
                0x0000000000000980       0x30 contiki-native.a(node-info.o)
 .debug_aranges
                0x00000000000009b0       0x30 contiki-native.a(node-info-expor)
 .debug_aranges
                0x00000000000009e0       0x30 contiki-native.a(webserver-node-)
 .debug_aranges
                0x0000000000000a10       0x30 contiki-native.a(dns-proxy.o)
 .debug_aranges
                0x0000000000000a40       0x30 contiki-native.a(er-coap.o)
 .debug_aranges
                0x0000000000000a70       0x30 contiki-native.a(er-coap-engine.)
 .debug_aranges
                0x0000000000000aa0       0x30 contiki-native.a(er-coap-transac)
 .debug_aranges
                0x0000000000000ad0       0x30 contiki-native.a(er-coap-observe)
 .debug_aranges
                0x0000000000000b00       0x30 contiki-native.a(er-coap-separat)
 .debug_aranges
                0x0000000000000b30       0x30 contiki-native.a(er-coap-res-wel)
 .debug_aranges
                0x0000000000000b60       0x30 contiki-native.a(er-coap-block1.)
 .debug_aranges
                0x0000000000000b90       0x20 contiki-native.a(er-coap-observe)
 .debug_aranges
                0x0000000000000bb0       0x30 contiki-native.a(er-coap-udp.o)
 .debug_aranges
                0x0000000000000be0       0x30 contiki-native.a(rest-engine.o)
 .debug_aranges
                0x0000000000000c10       0x30 contiki-native.a(coap-server.o)
 .debug_aranges
                0x0000000000000c40       0x30 contiki-native.a(block-transfer.)
 .debug_aranges
                0x0000000000000c70       0x30 contiki-native.a(coap-common.o)
 .debug_aranges
                0x0000000000000ca0       0x30 contiki-native.a(coap-push.o)
 .debug_aranges
                0x0000000000000cd0       0x30 contiki-native.a(core-interface.)
 .debug_aranges
                0x0000000000000d00       0x30 contiki-native.a(coap-binding.o)
 .debug_aranges
                0x0000000000000d30       0x30 contiki-native.a(coap-linked-bat)
 .debug_aranges
                0x0000000000000d60       0x30 contiki-native.a(rd-client.o)
 .debug_aranges
                0x0000000000000d90       0x30 contiki-native.a(rest-type-text.)
 .debug_aranges
                0x0000000000000dc0       0x30 contiki-native.a(rest-type-json.)
 .debug_aranges
                0x0000000000000df0       0x30 contiki-native.a(rest-type-senml)
 .debug_aranges
                0x0000000000000e20       0x30 contiki-native.a(rest-type-xml.o)
 .debug_aranges
                0x0000000000000e50       0x30 contiki-native.a(ctk-conio.o)
 .debug_aranges
                0x0000000000000e80       0x30 contiki-native.a(contiki-main.o)
 .debug_aranges
                0x0000000000000eb0       0x30 contiki-native.a(clock.o)
 .debug_aranges
                0x0000000000000ee0       0x30 contiki-native.a(leds.o)
 .debug_aranges
                0x0000000000000f10       0x30 contiki-native.a(leds-arch.o)
 .debug_aranges
                0x0000000000000f40       0x30 contiki-native.a(button-sensor.o)
 .debug_aranges
                0x0000000000000f70       0x30 contiki-native.a(pir-sensor.o)
 .debug_aranges
                0x0000000000000fa0       0x30 contiki-native.a(vib-sensor.o)
 .debug_aranges
                0x0000000000000fd0       0x30 contiki-native.a(xmem.o)
 .debug_aranges
                0x0000000000001000       0x30 contiki-native.a(sensors.o)
 .debug_aranges
                0x0000000000001030       0x30 contiki-native.a(irq.o)
 .debug_aranges
                0x0000000000001060       0x30 contiki-native.a(cfs-posix.o)
 .debug_aranges
                0x0000000000001090       0x30 contiki-native.a(cfs-posix-dir.o)
 .debug_aranges
                0x00000000000010c0       0x30 contiki-native.a(ctk-curses.o)
 .debug_aranges
                0x00000000000010f0       0x30 contiki-native.a(tapdev-drv.o)
 .debug_aranges
                0x0000000000001120       0x30 contiki-native.a(linuxradio-drv.)
 .debug_aranges
                0x0000000000001150       0x30 contiki-native.a(tapdev6.o)
 .debug_aranges
                0x0000000000001180       0x30 contiki-native.a(mtarch.o)
 .debug_aranges
                0x00000000000011b0       0x30 contiki-native.a(rtimer-arch.o)
 .debug_aranges
                0x00000000000011e0       0x30 contiki-native.a(elfloader-stub.)
 .debug_aranges
                0x0000000000001210       0x30 contiki-native.a(watchdog.o)
 .debug_aranges
                0x0000000000001240       0x30 contiki-native.a(eeprom.o)
 .debug_aranges
                0x0000000000001270       0x30 contiki-native.a(noncoresec.o)
 .debug_aranges
                0x00000000000012a0       0x30 contiki-native.a(akes.o)
 .debug_aranges
                0x00000000000012d0       0x30 contiki-native.a(akes-delete.o)
 .debug_aranges
                0x0000000000001300       0x20 contiki-native.a(coresec-strateg)
 .debug_aranges
                0x0000000000001320       0x30 contiki-native.a(akes-trickle.o)
 .debug_aranges
                0x0000000000001350       0x30 contiki-native.a(noncoresec-stra)
 .debug_aranges
                0x0000000000001380       0x30 contiki-native.a(akes-single.o)
 .debug_aranges
                0x00000000000013b0       0x30 contiki-native.a(adaptivesec.o)
 .debug_aranges
                0x00000000000013e0       0x30 contiki-native.a(akes-nbr.o)
 .debug_aranges
                0x0000000000001410       0x30 contiki-native.a(ip64-dns64.o)
 .debug_aranges
                0x0000000000001440       0x30 contiki-native.a(ip64-arp.o)
 .debug_aranges
                0x0000000000001470       0x30 contiki-native.a(ip64-addrmap.o)
 .debug_aranges
                0x00000000000014a0       0x30 contiki-native.a(ip64-ipv4-dhcp.)
 .debug_aranges
                0x00000000000014d0       0x30 contiki-native.a(ip64-null-drive)
 .debug_aranges
                0x0000000000001500       0x30 contiki-native.a(ip64-eth-interf)
 .debug_aranges
                0x0000000000001530       0x30 contiki-native.a(ip64.o)
 .debug_aranges
                0x0000000000001560       0x20 contiki-native.a(ip64-special-po)
 .debug_aranges
                0x0000000000001580       0x30 contiki-native.a(ip64-slip-inter)
 .debug_aranges
                0x00000000000015b0       0x30 contiki-native.a(ip64-dhcpc.o)
 .debug_aranges
                0x00000000000015e0       0x30 contiki-native.a(ip64-eth.o)
 .debug_aranges
                0x0000000000001610       0x30 contiki-native.a(autostart.o)
 .debug_aranges
                0x0000000000001640       0x30 contiki-native.a(stimer.o)
 .debug_aranges
                0x0000000000001670       0x30 contiki-native.a(energest.o)
 .debug_aranges
                0x00000000000016a0       0x30 contiki-native.a(arg.o)
 .debug_aranges
                0x00000000000016d0       0x30 contiki-native.a(ctimer.o)
 .debug_aranges
                0x0000000000001700       0x30 contiki-native.a(etimer.o)
 .debug_aranges
                0x0000000000001730       0x30 contiki-native.a(compower.o)
 .debug_aranges
                0x0000000000001760       0x30 contiki-native.a(process.o)
 .debug_aranges
                0x0000000000001790       0x30 contiki-native.a(rtimer.o)
 .debug_aranges
                0x00000000000017c0       0x30 contiki-native.a(mt.o)
 .debug_aranges
                0x00000000000017f0       0x30 contiki-native.a(procinit.o)
 .debug_aranges
                0x0000000000001820       0x30 contiki-native.a(timer.o)
 .debug_aranges
                0x0000000000001850       0x30 contiki-native.a(serial-line.o)
 .debug_aranges
                0x0000000000001880       0x30 contiki-native.a(slip.o)
 .debug_aranges
                0x00000000000018b0       0x30 contiki-native.a(nullradio.o)
 .debug_aranges
                0x00000000000018e0       0x20 contiki-native.a(me_tabs.o)
 .debug_aranges
                0x0000000000001900       0x20 contiki-native.a(settings.o)
 .debug_aranges
                0x0000000000001920       0x30 contiki-native.a(crc16.o)
 .debug_aranges
                0x0000000000001950       0x30 contiki-native.a(mmem.o)
 .debug_aranges
                0x0000000000001980       0x30 contiki-native.a(iq-seeder.o)
 .debug_aranges
                0x00000000000019b0       0x30 contiki-native.a(ccm-star.o)
 .debug_aranges
                0x00000000000019e0       0x30 contiki-native.a(ifft.o)
 .debug_aranges
                0x0000000000001a10       0x30 contiki-native.a(null-seeder.o)
 .debug_aranges
                0x0000000000001a40       0x30 contiki-native.a(ringbufindex.o)
 .debug_aranges
                0x0000000000001a70       0x30 contiki-native.a(list.o)
 .debug_aranges
                0x0000000000001aa0       0x30 contiki-native.a(gcr.o)
 .debug_aranges
                0x0000000000001ad0       0x30 contiki-native.a(aes-128.o)
 .debug_aranges
                0x0000000000001b00       0x30 contiki-native.a(trickle-timer.o)
 .debug_aranges
                0x0000000000001b30       0x30 contiki-native.a(memb.o)
 .debug_aranges
                0x0000000000001b60       0x30 contiki-native.a(me.o)
 .debug_aranges
                0x0000000000001b90       0x30 contiki-native.a(print-stats.o)
 .debug_aranges
                0x0000000000001bc0       0x30 contiki-native.a(csprng.o)
 .debug_aranges
                0x0000000000001bf0       0x30 contiki-native.a(petsciiconv.o)
 .debug_aranges
                0x0000000000001c20       0x30 contiki-native.a(random.o)
 .debug_aranges
                0x0000000000001c50       0x30 contiki-native.a(assert.o)
 .debug_aranges
                0x0000000000001c80       0x30 contiki-native.a(ringbuf.o)
 .debug_aranges
                0x0000000000001cb0       0x30 contiki-native.a(websocket.o)
 .debug_aranges
                0x0000000000001ce0       0x30 contiki-native.a(uip-icmp6.o)
 .debug_aranges
                0x0000000000001d10       0x30 contiki-native.a(uip-ds6.o)
 .debug_aranges
                0x0000000000001d40       0x30 contiki-native.a(uip-ds6-route.o)
 .debug_aranges
                0x0000000000001d70       0x30 contiki-native.a(uip6.o)
 .debug_aranges
                0x0000000000001da0       0x30 contiki-native.a(uip-ds6-nbr.o)
 .debug_aranges
                0x0000000000001dd0       0x30 contiki-native.a(uip-nd6.o)
 .debug_aranges
                0x0000000000001e00       0x30 contiki-native.a(websocket-http-)
 .debug_aranges
                0x0000000000001e30       0x30 contiki-native.a(sicslowpan.o)
 .debug_aranges
                0x0000000000001e60       0x30 contiki-native.a(slipdev.o)
 .debug_aranges
                0x0000000000001e90       0x30 contiki-native.a(uip-debug.o)
 .debug_aranges
                0x0000000000001ec0       0x30 contiki-native.a(uip-packetqueue)
 .debug_aranges
                0x0000000000001ef0       0x30 contiki-native.a(tcp-socket.o)
 .debug_aranges
                0x0000000000001f20       0x30 contiki-native.a(ip64-addr.o)
 .debug_aranges
                0x0000000000001f50       0x30 contiki-native.a(uip-udp-packet.)
 .debug_aranges
                0x0000000000001f80       0x30 contiki-native.a(psock.o)
 .debug_aranges
                0x0000000000001fb0       0x30 contiki-native.a(dhcpc.o)
 .debug_aranges
                0x0000000000001fe0       0x30 contiki-native.a(tcpip.o)
 .debug_aranges
                0x0000000000002010       0x30 contiki-native.a(resolv.o)
 .debug_aranges
                0x0000000000002040       0x30 contiki-native.a(uip-nameserver.)
 .debug_aranges
                0x0000000000002070       0x30 contiki-native.a(uip-split.o)
 .debug_aranges
                0x00000000000020a0       0x30 contiki-native.a(udp-socket.o)
 .debug_aranges
                0x00000000000020d0       0x30 contiki-native.a(simple-udp.o)
 .debug_aranges
                0x0000000000002100       0x30 contiki-native.a(uiplib.o)
 .debug_aranges
                0x0000000000002130       0x30 contiki-native.a(rpl-nbr-policy.)
 .debug_aranges
                0x0000000000002160       0x30 contiki-native.a(rpl-of0.o)
 .debug_aranges
                0x0000000000002190       0x30 contiki-native.a(rpl-dag.o)
 .debug_aranges
                0x00000000000021c0       0x30 contiki-native.a(rpl-timers.o)
 .debug_aranges
                0x00000000000021f0       0x30 contiki-native.a(rpl-ext-header.)
 .debug_aranges
                0x0000000000002220       0x30 contiki-native.a(rpl.o)
 .debug_aranges
                0x0000000000002250       0x30 contiki-native.a(rpl-mrhof.o)
 .debug_aranges
                0x0000000000002280       0x30 contiki-native.a(rpl-ns.o)
 .debug_aranges
                0x00000000000022b0       0x30 contiki-native.a(rpl-icmp6.o)
 .debug_aranges
                0x00000000000022e0       0x30 contiki-native.a(rpl-dag-root.o)
 .debug_aranges
                0x0000000000002310       0x30 contiki-native.a(queuebuf.o)
 .debug_aranges
                0x0000000000002340       0x30 contiki-native.a(cmd-broker.o)
 .debug_aranges
                0x0000000000002370       0x30 contiki-native.a(nbr-table.o)
 .debug_aranges
                0x00000000000023a0       0x30 contiki-native.a(packetbuf.o)
 .debug_aranges
                0x00000000000023d0       0x30 contiki-native.a(netstack.o)
 .debug_aranges
                0x0000000000002400       0x30 contiki-native.a(linkaddr.o)
 .debug_aranges
                0x0000000000002430       0x30 contiki-native.a(net-debug.o)
 .debug_aranges
                0x0000000000002460       0x30 contiki-native.a(link-stats.o)
 .debug_aranges
                0x0000000000002490       0x30 contiki-native.a(nullmac.o)
 .debug_aranges
                0x00000000000024c0       0x30 contiki-native.a(nullrdc-noframe)
 .debug_aranges
                0x00000000000024f0       0x30 contiki-native.a(frame802154e-ie)
 .debug_aranges
                0x0000000000002520       0x30 contiki-native.a(mac-sequence.o)
 .debug_aranges
                0x0000000000002550       0x30 contiki-native.a(nordc.o)
 .debug_aranges
                0x0000000000002580       0x30 contiki-native.a(csma.o)
 .debug_aranges
                0x00000000000025b0       0x30 contiki-native.a(frame802154.o)
 .debug_aranges
                0x00000000000025e0       0x30 contiki-native.a(framer-nullmac.)
 .debug_aranges
                0x0000000000002610       0x30 contiki-native.a(mac.o)
 .debug_aranges
                0x0000000000002640       0x30 contiki-native.a(framer-802154.o)
 .debug_aranges
                0x0000000000002670       0x30 contiki-native.a(phase.o)
 .debug_aranges
                0x00000000000026a0       0x30 contiki-native.a(nullrdc.o)
 .debug_aranges
                0x00000000000026d0       0x30 contiki-native.a(ctk-textentry-c)
 .debug_aranges
                0x0000000000002700       0x30 contiki-native.a(ctk-filedialog.)
 .debug_aranges
                0x0000000000002730       0x30 contiki-native.a(ctk-textentry-c)
 .debug_aranges
                0x0000000000002760       0x30 contiki-native.a(ctk-textentry-m)
 .debug_aranges
                0x0000000000002790       0x30 contiki-native.a(ctk.o)
 .debug_aranges
                0x00000000000027c0       0x30 contiki-native.a(nullsec.o)
 .debug_aranges
                0x00000000000027f0       0x30 contiki-native.a(anti-replay.o)
 .debug_aranges
                0x0000000000002820       0x30 contiki-native.a(ccm-star-packet)
 .debug_aranges
                0x0000000000002850       0x20 contiki-native.a(symbols.o)
 .debug_aranges
                0x0000000000002870       0x30 /usr/lib/x86_64-linux-gnu/libpthread_nonshared.a(pthread_atfork.oS)

.debug_pubnames
 *(.debug_pubnames)

.debug_info     0x0000000000000000    0x66664
 *(.debug_info .gnu.linkonce.wi.*)
 .debug_info    0x0000000000000000     0x186d cetic-6lbr.co
 .debug_info    0x000000000000186d      0xefa obj_native/native-init.o
 .debug_info    0x0000000000002767      0x4d0 obj_native/native-nvm.o
 .debug_info    0x0000000000002c37      0x2e3 obj_native/native-config.o
 .debug_info    0x0000000000002f1a      0x3b5 obj_native/native-config-file.o
 .debug_info    0x00000000000032cf      0x922 obj_native/native-config-handlers.o
 .debug_info    0x0000000000003bf1      0x7bc obj_native/raw-tap-eth-drv.o
 .debug_info    0x00000000000043ad      0xe79 obj_native/raw-tap-dev.o
 .debug_info    0x0000000000005226     0x16b7 obj_native/native-rdc.o
 .debug_info    0x00000000000068dd      0x3d5 obj_native/slip-cmds.o
 .debug_info    0x0000000000006cb2      0x6c5 obj_native/native-args.o
 .debug_info    0x0000000000007377     0x1331 obj_native/slip-dev.o
 .debug_info    0x00000000000086a8      0x597 obj_native/6lbr-watchdog.o
 .debug_info    0x0000000000008c3f      0x4c0 obj_native/plugin.o
 .debug_info    0x00000000000090ff      0x10f obj_native/lost-symbols.o
 .debug_info    0x000000000000920e      0x609 obj_native/ini.o
 .debug_info    0x0000000000009817      0x370 obj_native/log-6lbr.o
 .debug_info    0x0000000000009b87      0x54d obj_native/rio.o
 .debug_info    0x000000000000a0d4     0x1455 obj_native/packet-forwarding-engine.o
 .debug_info    0x000000000000b529      0x628 obj_native/sicslow-ethernet.o
 .debug_info    0x000000000000bb51      0x5c1 obj_native/nvm-config.o
 .debug_info    0x000000000000c112      0x685 obj_native/mac-wrapper.o
 .debug_info    0x000000000000c797      0x5c6 obj_native/switch-lookup.o
 .debug_info    0x000000000000cd5d      0x27c obj_native/network-itf.o
 .debug_info    0x000000000000cfd9      0x5e7 obj_native/multi-radio.o
 .debug_info    0x000000000000d5c0      0x5d9 obj_native/llsec-wrapper.o
 .debug_info    0x000000000000db99      0x55b obj_native/framer-wrapper.o
 .debug_info    0x000000000000e0f4      0x90f obj_native/strategy-wrapper.o
 .debug_info    0x000000000000ea03      0x147 obj_native/ip64-eth-driver.o
 .debug_info    0x000000000000eb4a      0x170 contiki-native.a(cmd.o)
 .debug_info    0x000000000000ecba      0x206 contiki-native.a(packetutils.o)
 .debug_info    0x000000000000eec0      0xe2f contiki-native.a(httpd.o)
 .debug_info    0x000000000000fcef      0x70d contiki-native.a(httpd-cgi.o)
 .debug_info    0x00000000000103fc      0x11b contiki-native.a(httpd-urlconv.o)
 .debug_info    0x0000000000010517      0x8f8 contiki-native.a(webserver.o)
 .debug_info    0x0000000000010e0f      0xab2 contiki-native.a(webserver-utils)
 .debug_info    0x00000000000118c1      0x7ef contiki-native.a(webserver-main.)
 .debug_info    0x00000000000120b0     0x1983 contiki-native.a(webserver-netwo)
 .debug_info    0x0000000000013a33      0xb93 contiki-native.a(webserver-confi)
 .debug_info    0x00000000000145c6      0xfbf contiki-native.a(webserver-stati)
 .debug_info    0x0000000000015585      0x7f2 contiki-native.a(webserver-admin)
 .debug_info    0x0000000000015d77      0xcbe contiki-native.a(webserver-log.o)
 .debug_info    0x0000000000016a35      0xfcc contiki-native.a(webserver-rpl.o)
 .debug_info    0x0000000000017a01      0x52a contiki-native.a(webserver-file.)
 .debug_info    0x0000000000017f2b      0xf0e contiki-native.a(webserver-senso)
 .debug_info    0x0000000000018e39      0x790 contiki-native.a(webserver-senso)
 .debug_info    0x00000000000195c9      0x7c2 contiki-native.a(webserver-node-)
 .debug_info    0x0000000000019d8b      0x9a5 contiki-native.a(udp-server.o)
 .debug_info    0x000000000001a730      0xe74 contiki-native.a(node-config.o)
 .debug_info    0x000000000001b5a4      0x6ad contiki-native.a(node-config-ip6)
 .debug_info    0x000000000001bc51      0x772 contiki-native.a(node-config-fil)
 .debug_info    0x000000000001c3c3      0xbb4 contiki-native.a(node-info.o)
 .debug_info    0x000000000001cf77      0xeda contiki-native.a(node-info-expor)
 .debug_info    0x000000000001de51      0x6bd contiki-native.a(webserver-node-)
 .debug_info    0x000000000001e50e      0x81d contiki-native.a(dns-proxy.o)
 .debug_info    0x000000000001ed2b     0x1941 contiki-native.a(er-coap.o)
 .debug_info    0x000000000002066c     0x1513 contiki-native.a(er-coap-engine.)
 .debug_info    0x0000000000021b7f      0x702 contiki-native.a(er-coap-transac)
 .debug_info    0x0000000000022281     0x101e contiki-native.a(er-coap-observe)
 .debug_info    0x000000000002329f      0x9c0 contiki-native.a(er-coap-separat)
 .debug_info    0x0000000000023c5f      0x6c8 contiki-native.a(er-coap-res-wel)
 .debug_info    0x0000000000024327      0xda3 contiki-native.a(er-coap-block1.)
 .debug_info    0x00000000000250ca       0x72 contiki-native.a(er-coap-observe)
 .debug_info    0x000000000002513c      0x31f contiki-native.a(er-coap-udp.o)
 .debug_info    0x000000000002545b      0xbdb contiki-native.a(rest-engine.o)
 .debug_info    0x0000000000026036       0xa2 contiki-native.a(coap-server.o)
 .debug_info    0x00000000000260d8      0x80c contiki-native.a(block-transfer.)
 .debug_info    0x00000000000268e4     0x131f contiki-native.a(coap-common.o)
 .debug_info    0x0000000000027c03      0xd74 contiki-native.a(coap-push.o)
 .debug_info    0x0000000000028977      0xfba contiki-native.a(core-interface.)
 .debug_info    0x0000000000029931      0xa7e contiki-native.a(coap-binding.o)
 .debug_info    0x000000000002a3af      0x450 contiki-native.a(coap-linked-bat)
 .debug_info    0x000000000002a7ff      0xbec contiki-native.a(rd-client.o)
 .debug_info    0x000000000002b3eb      0xda7 contiki-native.a(rest-type-text.)
 .debug_info    0x000000000002c192      0xda7 contiki-native.a(rest-type-json.)
 .debug_info    0x000000000002cf39      0x537 contiki-native.a(rest-type-senml)
 .debug_info    0x000000000002d470      0xda7 contiki-native.a(rest-type-xml.o)
 .debug_info    0x000000000002e217      0xa75 contiki-native.a(ctk-conio.o)
 .debug_info    0x000000000002ec8c      0xa5d contiki-native.a(contiki-main.o)
 .debug_info    0x000000000002f6e9      0x187 contiki-native.a(clock.o)
 .debug_info    0x000000000002f870      0x1d5 contiki-native.a(leds.o)
 .debug_info    0x000000000002fa45       0xe9 contiki-native.a(leds-arch.o)
 .debug_info    0x000000000002fb2e      0x1b7 contiki-native.a(button-sensor.o)
 .debug_info    0x000000000002fce5      0x1dd contiki-native.a(pir-sensor.o)
 .debug_info    0x000000000002fec2      0x1ca contiki-native.a(vib-sensor.o)
 .debug_info    0x000000000003008c      0x194 contiki-native.a(xmem.o)
 .debug_info    0x0000000000030220      0x3b3 contiki-native.a(sensors.o)
 .debug_info    0x00000000000305d3       0x47 contiki-native.a(irq.o)
 .debug_info    0x000000000003061a      0x201 contiki-native.a(cfs-posix.o)
 .debug_info    0x000000000003081b      0x261 contiki-native.a(cfs-posix-dir.o)
 .debug_info    0x0000000000030a7c      0xb9e contiki-native.a(ctk-curses.o)
 .debug_info    0x000000000003161a      0x2d5 contiki-native.a(tapdev-drv.o)
 .debug_info    0x00000000000318ef      0x98a contiki-native.a(linuxradio-drv.)
 .debug_info    0x0000000000032279      0x937 contiki-native.a(tapdev6.o)
 .debug_info    0x0000000000032bb0      0x4f7 contiki-native.a(mtarch.o)
 .debug_info    0x00000000000330a7      0x1ce contiki-native.a(rtimer-arch.o)
 .debug_info    0x0000000000033275      0x240 contiki-native.a(elfloader-stub.)
 .debug_info    0x00000000000334b5       0xff contiki-native.a(watchdog.o)
 .debug_info    0x00000000000335b4      0x3e6 contiki-native.a(eeprom.o)
 .debug_info    0x000000000003399a      0xa5a contiki-native.a(noncoresec.o)
 .debug_info    0x00000000000343f4      0xeb5 contiki-native.a(akes.o)
 .debug_info    0x00000000000352a9      0x544 contiki-native.a(akes-delete.o)
 .debug_info    0x00000000000357ed       0x72 contiki-native.a(coresec-strateg)
 .debug_info    0x000000000003585f      0x650 contiki-native.a(akes-trickle.o)
 .debug_info    0x0000000000035eaf      0x6c7 contiki-native.a(noncoresec-stra)
 .debug_info    0x0000000000036576      0x1ab contiki-native.a(akes-single.o)
 .debug_info    0x0000000000036721      0xdf8 contiki-native.a(adaptivesec.o)
 .debug_info    0x0000000000037519      0xac1 contiki-native.a(akes-nbr.o)
 .debug_info    0x0000000000037fda      0x375 contiki-native.a(ip64-dns64.o)
 .debug_info    0x000000000003834f      0x713 contiki-native.a(ip64-arp.o)
 .debug_info    0x0000000000038a62      0x567 contiki-native.a(ip64-addrmap.o)
 .debug_info    0x0000000000038fc9      0x553 contiki-native.a(ip64-ipv4-dhcp.)
 .debug_info    0x000000000003951c      0x155 contiki-native.a(ip64-null-drive)
 .debug_info    0x0000000000039671      0x2be contiki-native.a(ip64-eth-interf)
 .debug_info    0x000000000003992f      0xe19 contiki-native.a(ip64.o)
 .debug_info    0x000000000003a748       0x64 contiki-native.a(ip64-special-po)
 .debug_info    0x000000000003a7ac      0x475 contiki-native.a(ip64-slip-inter)
 .debug_info    0x000000000003ac21      0x93a contiki-native.a(ip64-dhcpc.o)
 .debug_info    0x000000000003b55b       0xef contiki-native.a(ip64-eth.o)
 .debug_info    0x000000000003b64a      0x1b6 contiki-native.a(autostart.o)
 .debug_info    0x000000000003b800      0x1b1 contiki-native.a(stimer.o)
 .debug_info    0x000000000003b9b1      0x110 contiki-native.a(energest.o)
 .debug_info    0x000000000003bac1      0x149 contiki-native.a(arg.o)
 .debug_info    0x000000000003bc0a      0x4e7 contiki-native.a(ctimer.o)
 .debug_info    0x000000000003c0f1      0x52a contiki-native.a(etimer.o)
 .debug_info    0x000000000003c61b      0x2b6 contiki-native.a(compower.o)
 .debug_info    0x000000000003c8d1      0x531 contiki-native.a(process.o)
 .debug_info    0x000000000003ce02      0x1cc contiki-native.a(rtimer.o)
 .debug_info    0x000000000003cfce      0x1e4 contiki-native.a(mt.o)
 .debug_info    0x000000000003d1b2      0x18a contiki-native.a(procinit.o)
 .debug_info    0x000000000003d33c      0x19c contiki-native.a(timer.o)
 .debug_info    0x000000000003d4d8      0x433 contiki-native.a(serial-line.o)
 .debug_info    0x000000000003d90b      0x61c contiki-native.a(slip.o)
 .debug_info    0x000000000003df27      0x52c contiki-native.a(nullradio.o)
 .debug_info    0x000000000003e453       0xab contiki-native.a(me_tabs.o)
 .debug_info    0x000000000003e4fe       0x64 contiki-native.a(settings.o)
 .debug_info    0x000000000003e562       0xe2 contiki-native.a(crc16.o)
 .debug_info    0x000000000003e644      0x1c8 contiki-native.a(mmem.o)
 .debug_info    0x000000000003e80c      0x5a6 contiki-native.a(iq-seeder.o)
 .debug_info    0x000000000003edb2      0x401 contiki-native.a(ccm-star.o)
 .debug_info    0x000000000003f1b3      0x2a6 contiki-native.a(ifft.o)
 .debug_info    0x000000000003f459      0x13c contiki-native.a(null-seeder.o)
 .debug_info    0x000000000003f595      0x273 contiki-native.a(ringbufindex.o)
 .debug_info    0x000000000003f808      0x355 contiki-native.a(list.o)
 .debug_info    0x000000000003fb5d      0x21c contiki-native.a(gcr.o)
 .debug_info    0x000000000003fd79      0x2ac contiki-native.a(aes-128.o)
 .debug_info    0x0000000000040025      0x56a contiki-native.a(trickle-timer.o)
 .debug_info    0x000000000004058f      0x1f9 contiki-native.a(memb.o)
 .debug_info    0x0000000000040788      0x17b contiki-native.a(me.o)
 .debug_info    0x0000000000040903       0x9b contiki-native.a(print-stats.o)
 .debug_info    0x000000000004099e      0x1ef contiki-native.a(csprng.o)
 .debug_info    0x0000000000040b8d      0x129 contiki-native.a(petsciiconv.o)
 .debug_info    0x0000000000040cb6       0xcb contiki-native.a(random.o)
 .debug_info    0x0000000000040d81       0xb5 contiki-native.a(assert.o)
 .debug_info    0x0000000000040e36      0x1da contiki-native.a(ringbuf.o)
 .debug_info    0x0000000000041010      0xf7b contiki-native.a(websocket.o)
 .debug_info    0x0000000000041f8b      0xa56 contiki-native.a(uip-icmp6.o)
 .debug_info    0x00000000000429e1      0xfe1 contiki-native.a(uip-ds6.o)
 .debug_info    0x00000000000439c2     0x1455 contiki-native.a(uip-ds6-route.o)
 .debug_info    0x0000000000044e17     0x12aa contiki-native.a(uip6.o)
 .debug_info    0x00000000000460c1      0xc15 contiki-native.a(uip-ds6-nbr.o)
 .debug_info    0x0000000000046cd6     0x13f1 contiki-native.a(uip-nd6.o)
 .debug_info    0x00000000000480c7      0xa1c contiki-native.a(websocket-http-)
 .debug_info    0x0000000000048ae3     0x107b contiki-native.a(sicslowpan.o)
 .debug_info    0x0000000000049b5e      0x1f4 contiki-native.a(slipdev.o)
 .debug_info    0x0000000000049d52      0x1bb contiki-native.a(uip-debug.o)
 .debug_info    0x0000000000049f0d      0x4ae contiki-native.a(uip-packetqueue)
 .debug_info    0x000000000004a3bb      0xa18 contiki-native.a(tcp-socket.o)
 .debug_info    0x000000000004add3      0x2ca contiki-native.a(ip64-addr.o)
 .debug_info    0x000000000004b09d      0x389 contiki-native.a(uip-udp-packet.)
 .debug_info    0x000000000004b426      0x74e contiki-native.a(psock.o)
 .debug_info    0x000000000004bb74      0x895 contiki-native.a(dhcpc.o)
 .debug_info    0x000000000004c409     0x1b38 contiki-native.a(tcpip.o)
 .debug_info    0x000000000004df41     0x18ce contiki-native.a(resolv.o)
 .debug_info    0x000000000004f80f      0x1da contiki-native.a(uip-nameserver.)
 .debug_info    0x000000000004f9e9      0x2c4 contiki-native.a(uip-split.o)
 .debug_info    0x000000000004fcad      0x700 contiki-native.a(udp-socket.o)
 .debug_info    0x00000000000503ad      0x6db contiki-native.a(simple-udp.o)
 .debug_info    0x0000000000050a88      0x23b contiki-native.a(uiplib.o)
 .debug_info    0x0000000000050cc3      0xecf contiki-native.a(rpl-nbr-policy.)
 .debug_info    0x0000000000051b92      0xb47 contiki-native.a(rpl-of0.o)
 .debug_info    0x00000000000526d9     0x21e2 contiki-native.a(rpl-dag.o)
 .debug_info    0x00000000000548bb      0xedd contiki-native.a(rpl-timers.o)
 .debug_info    0x0000000000055798     0x13d8 contiki-native.a(rpl-ext-header.)
 .debug_info    0x0000000000056b70      0xea3 contiki-native.a(rpl.o)
 .debug_info    0x0000000000057a13      0xb5e contiki-native.a(rpl-mrhof.o)
 .debug_info    0x0000000000058571      0xc95 contiki-native.a(rpl-ns.o)
 .debug_info    0x0000000000059206     0x1dcf contiki-native.a(rpl-icmp6.o)
 .debug_info    0x000000000005afd5      0xff3 contiki-native.a(rpl-dag-root.o)
 .debug_info    0x000000000005bfc8      0x603 contiki-native.a(queuebuf.o)
 .debug_info    0x000000000005c5cb      0x1e7 contiki-native.a(cmd-broker.o)
 .debug_info    0x000000000005c7b2      0xa5b contiki-native.a(nbr-table.o)
 .debug_info    0x000000000005d20d      0x63c contiki-native.a(packetbuf.o)
 .debug_info    0x000000000005d849      0x4ce contiki-native.a(netstack.o)
 .debug_info    0x000000000005dd17      0x17f contiki-native.a(linkaddr.o)
 .debug_info    0x000000000005de96      0x10f contiki-native.a(net-debug.o)
 .debug_info    0x000000000005dfa5      0x677 contiki-native.a(link-stats.o)
 .debug_info    0x000000000005e61c      0x36d contiki-native.a(nullmac.o)
 .debug_info    0x000000000005e989      0x5b2 contiki-native.a(nullrdc-noframe)
 .debug_info    0x000000000005ef3b      0xadf contiki-native.a(frame802154e-ie)
 .debug_info    0x000000000005fa1a      0x21f contiki-native.a(mac-sequence.o)
 .debug_info    0x000000000005fc39      0x2f8 contiki-native.a(nordc.o)
 .debug_info    0x000000000005ff31      0xd12 contiki-native.a(csma.o)
 .debug_info    0x0000000000060c43      0x70e contiki-native.a(frame802154.o)
 .debug_info    0x0000000000061351      0x231 contiki-native.a(framer-nullmac.)
 .debug_info    0x0000000000061582      0x12d contiki-native.a(mac.o)
 .debug_info    0x00000000000616af      0x509 contiki-native.a(framer-802154.o)
 .debug_info    0x0000000000061bb8      0x85f contiki-native.a(phase.o)
 .debug_info    0x0000000000062417      0x759 contiki-native.a(nullrdc.o)
 .debug_info    0x0000000000062b70      0x66a contiki-native.a(ctk-textentry-c)
 .debug_info    0x00000000000631da      0x990 contiki-native.a(ctk-filedialog.)
 .debug_info    0x0000000000063b6a      0x65a contiki-native.a(ctk-textentry-c)
 .debug_info    0x00000000000641c4      0x668 contiki-native.a(ctk-textentry-m)
 .debug_info    0x000000000006482c     0x10bf contiki-native.a(ctk.o)
 .debug_info    0x00000000000658eb      0x310 contiki-native.a(nullsec.o)
 .debug_info    0x0000000000065bfb      0x2fc contiki-native.a(anti-replay.o)
 .debug_info    0x0000000000065ef7      0x1dd contiki-native.a(ccm-star-packet)
 .debug_info    0x00000000000660d4       0xae contiki-native.a(symbols.o)
 .debug_info    0x0000000000066182      0x4e2 /usr/lib/x86_64-linux-gnu/libpthread_nonshared.a(pthread_atfork.oS)

.debug_abbrev   0x0000000000000000    0x16284
 *(.debug_abbrev)
 .debug_abbrev  0x0000000000000000      0x34f cetic-6lbr.co
 .debug_abbrev  0x000000000000034f      0x21d obj_native/native-init.o
 .debug_abbrev  0x000000000000056c       0xf3 obj_native/native-nvm.o
 .debug_abbrev  0x000000000000065f       0x92 obj_native/native-config.o
 .debug_abbrev  0x00000000000006f1      0x163 obj_native/native-config-file.o
 .debug_abbrev  0x0000000000000854      0x1b2 obj_native/native-config-handlers.o
 .debug_abbrev  0x0000000000000a06      0x22b obj_native/raw-tap-eth-drv.o
 .debug_abbrev  0x0000000000000c31      0x2a2 obj_native/raw-tap-dev.o
 .debug_abbrev  0x0000000000000ed3      0x3eb obj_native/native-rdc.o
 .debug_abbrev  0x00000000000012be      0x184 obj_native/slip-cmds.o
 .debug_abbrev  0x0000000000001442      0x143 obj_native/native-args.o
 .debug_abbrev  0x0000000000001585      0x387 obj_native/slip-dev.o
 .debug_abbrev  0x000000000000190c      0x1ab obj_native/6lbr-watchdog.o
 .debug_abbrev  0x0000000000001ab7      0x1ae obj_native/plugin.o
 .debug_abbrev  0x0000000000001c65       0x2a obj_native/lost-symbols.o
 .debug_abbrev  0x0000000000001c8f      0x157 obj_native/ini.o
 .debug_abbrev  0x0000000000001de6      0x138 obj_native/log-6lbr.o
 .debug_abbrev  0x0000000000001f1e      0x1a8 obj_native/rio.o
 .debug_abbrev  0x00000000000020c6      0x30a obj_native/packet-forwarding-engine.o
 .debug_abbrev  0x00000000000023d0      0x208 obj_native/sicslow-ethernet.o
 .debug_abbrev  0x00000000000025d8      0x140 obj_native/nvm-config.o
 .debug_abbrev  0x0000000000002718      0x200 obj_native/mac-wrapper.o
 .debug_abbrev  0x0000000000002918      0x1de obj_native/switch-lookup.o
 .debug_abbrev  0x0000000000002af6      0x15c obj_native/network-itf.o
 .debug_abbrev  0x0000000000002c52      0x1df obj_native/multi-radio.o
 .debug_abbrev  0x0000000000002e31      0x193 obj_native/llsec-wrapper.o
 .debug_abbrev  0x0000000000002fc4      0x11a obj_native/framer-wrapper.o
 .debug_abbrev  0x00000000000030de      0x21e obj_native/strategy-wrapper.o
 .debug_abbrev  0x00000000000032fc       0xce obj_native/ip64-eth-driver.o
 .debug_abbrev  0x00000000000033ca       0xc8 contiki-native.a(cmd.o)
 .debug_abbrev  0x0000000000003492       0x99 contiki-native.a(packetutils.o)
 .debug_abbrev  0x000000000000352b      0x280 contiki-native.a(httpd.o)
 .debug_abbrev  0x00000000000037ab      0x19d contiki-native.a(httpd-cgi.o)
 .debug_abbrev  0x0000000000003948       0x7a contiki-native.a(httpd-urlconv.o)
 .debug_abbrev  0x00000000000039c2      0x124 contiki-native.a(webserver.o)
 .debug_abbrev  0x0000000000003ae6      0x2a8 contiki-native.a(webserver-utils)
 .debug_abbrev  0x0000000000003d8e      0x17c contiki-native.a(webserver-main.)
 .debug_abbrev  0x0000000000003f0a      0x2a3 contiki-native.a(webserver-netwo)
 .debug_abbrev  0x00000000000041ad      0x248 contiki-native.a(webserver-confi)
 .debug_abbrev  0x00000000000043f5      0x1ee contiki-native.a(webserver-stati)
 .debug_abbrev  0x00000000000045e3      0x19f contiki-native.a(webserver-admin)
 .debug_abbrev  0x0000000000004782      0x18e contiki-native.a(webserver-log.o)
 .debug_abbrev  0x0000000000004910      0x1e2 contiki-native.a(webserver-rpl.o)
 .debug_abbrev  0x0000000000004af2      0x165 contiki-native.a(webserver-file.)
 .debug_abbrev  0x0000000000004c57      0x246 contiki-native.a(webserver-senso)
 .debug_abbrev  0x0000000000004e9d      0x16d contiki-native.a(webserver-senso)
 .debug_abbrev  0x000000000000500a      0x15e contiki-native.a(webserver-node-)
 .debug_abbrev  0x0000000000005168      0x222 contiki-native.a(udp-server.o)
 .debug_abbrev  0x000000000000538a      0x21b contiki-native.a(node-config.o)
 .debug_abbrev  0x00000000000055a5      0x14d contiki-native.a(node-config-ip6)
 .debug_abbrev  0x00000000000056f2      0x208 contiki-native.a(node-config-fil)
 .debug_abbrev  0x00000000000058fa      0x283 contiki-native.a(node-info.o)
 .debug_abbrev  0x0000000000005b7d      0x29f contiki-native.a(node-info-expor)
 .debug_abbrev  0x0000000000005e1c      0x18a contiki-native.a(webserver-node-)
 .debug_abbrev  0x0000000000005fa6      0x21a contiki-native.a(dns-proxy.o)
 .debug_abbrev  0x00000000000061c0      0x278 contiki-native.a(er-coap.o)
 .debug_abbrev  0x0000000000006438      0x311 contiki-native.a(er-coap-engine.)
 .debug_abbrev  0x0000000000006749      0x1f2 contiki-native.a(er-coap-transac)
 .debug_abbrev  0x000000000000693b      0x286 contiki-native.a(er-coap-observe)
 .debug_abbrev  0x0000000000006bc1      0x1df contiki-native.a(er-coap-separat)
 .debug_abbrev  0x0000000000006da0      0x175 contiki-native.a(er-coap-res-wel)
 .debug_abbrev  0x0000000000006f15      0x1b9 contiki-native.a(er-coap-block1.)
 .debug_abbrev  0x00000000000070ce       0x26 contiki-native.a(er-coap-observe)
 .debug_abbrev  0x00000000000070f4      0x172 contiki-native.a(er-coap-udp.o)
 .debug_abbrev  0x0000000000007266      0x222 contiki-native.a(rest-engine.o)
 .debug_abbrev  0x0000000000007488       0x42 contiki-native.a(coap-server.o)
 .debug_abbrev  0x00000000000074ca      0x188 contiki-native.a(block-transfer.)
 .debug_abbrev  0x0000000000007652      0x27e contiki-native.a(coap-common.o)
 .debug_abbrev  0x00000000000078d0      0x252 contiki-native.a(coap-push.o)
 .debug_abbrev  0x0000000000007b22      0x1cb contiki-native.a(core-interface.)
 .debug_abbrev  0x0000000000007ced      0x27d contiki-native.a(coap-binding.o)
 .debug_abbrev  0x0000000000007f6a      0x162 contiki-native.a(coap-linked-bat)
 .debug_abbrev  0x00000000000080cc      0x226 contiki-native.a(rd-client.o)
 .debug_abbrev  0x00000000000082f2      0x1d5 contiki-native.a(rest-type-text.)
 .debug_abbrev  0x00000000000084c7      0x1d5 contiki-native.a(rest-type-json.)
 .debug_abbrev  0x000000000000869c      0x12b contiki-native.a(rest-type-senml)
 .debug_abbrev  0x00000000000087c7      0x1d5 contiki-native.a(rest-type-xml.o)
 .debug_abbrev  0x000000000000899c      0x24c contiki-native.a(ctk-conio.o)
 .debug_abbrev  0x0000000000008be8      0x246 contiki-native.a(contiki-main.o)
 .debug_abbrev  0x0000000000008e2e       0xcf contiki-native.a(clock.o)
 .debug_abbrev  0x0000000000008efd       0xac contiki-native.a(leds.o)
 .debug_abbrev  0x0000000000008fa9       0x94 contiki-native.a(leds-arch.o)
 .debug_abbrev  0x000000000000903d       0xbc contiki-native.a(button-sensor.o)
 .debug_abbrev  0x00000000000090f9       0xdc contiki-native.a(pir-sensor.o)
 .debug_abbrev  0x00000000000091d5       0xda contiki-native.a(vib-sensor.o)
 .debug_abbrev  0x00000000000092af       0xb2 contiki-native.a(xmem.o)
 .debug_abbrev  0x0000000000009361      0x1c2 contiki-native.a(sensors.o)
 .debug_abbrev  0x0000000000009523       0x2c contiki-native.a(irq.o)
 .debug_abbrev  0x000000000000954f       0xd0 contiki-native.a(cfs-posix.o)
 .debug_abbrev  0x000000000000961f       0xee contiki-native.a(cfs-posix-dir.o)
 .debug_abbrev  0x000000000000970d      0x2a1 contiki-native.a(ctk-curses.o)
 .debug_abbrev  0x00000000000099ae      0x193 contiki-native.a(tapdev-drv.o)
 .debug_abbrev  0x0000000000009b41      0x25b contiki-native.a(linuxradio-drv.)
 .debug_abbrev  0x0000000000009d9c      0x226 contiki-native.a(tapdev6.o)
 .debug_abbrev  0x0000000000009fc2      0x13f contiki-native.a(mtarch.o)
 .debug_abbrev  0x000000000000a101       0xe5 contiki-native.a(rtimer-arch.o)
 .debug_abbrev  0x000000000000a1e6       0xe1 contiki-native.a(elfloader-stub.)
 .debug_abbrev  0x000000000000a2c7       0x5a contiki-native.a(watchdog.o)
 .debug_abbrev  0x000000000000a321      0x101 contiki-native.a(eeprom.o)
 .debug_abbrev  0x000000000000a422      0x1e7 contiki-native.a(noncoresec.o)
 .debug_abbrev  0x000000000000a609      0x2c8 contiki-native.a(akes.o)
 .debug_abbrev  0x000000000000a8d1      0x1d5 contiki-native.a(akes-delete.o)
 .debug_abbrev  0x000000000000aaa6       0x26 contiki-native.a(coresec-strateg)
 .debug_abbrev  0x000000000000aacc      0x21d contiki-native.a(akes-trickle.o)
 .debug_abbrev  0x000000000000ace9      0x210 contiki-native.a(noncoresec-stra)
 .debug_abbrev  0x000000000000aef9      0x109 contiki-native.a(akes-single.o)
 .debug_abbrev  0x000000000000b002      0x2b9 contiki-native.a(adaptivesec.o)
 .debug_abbrev  0x000000000000b2bb      0x2a0 contiki-native.a(akes-nbr.o)
 .debug_abbrev  0x000000000000b55b      0x10c contiki-native.a(ip64-dns64.o)
 .debug_abbrev  0x000000000000b667      0x1d9 contiki-native.a(ip64-arp.o)
 .debug_abbrev  0x000000000000b840      0x1b8 contiki-native.a(ip64-addrmap.o)
 .debug_abbrev  0x000000000000b9f8      0x1da contiki-native.a(ip64-ipv4-dhcp.)
 .debug_abbrev  0x000000000000bbd2       0xdd contiki-native.a(ip64-null-drive)
 .debug_abbrev  0x000000000000bcaf      0x1af contiki-native.a(ip64-eth-interf)
 .debug_abbrev  0x000000000000be5e      0x2d7 contiki-native.a(ip64.o)
 .debug_abbrev  0x000000000000c135       0x26 contiki-native.a(ip64-special-po)
 .debug_abbrev  0x000000000000c15b      0x21a contiki-native.a(ip64-slip-inter)
 .debug_abbrev  0x000000000000c375      0x244 contiki-native.a(ip64-dhcpc.o)
 .debug_abbrev  0x000000000000c5b9       0xaa contiki-native.a(ip64-eth.o)
 .debug_abbrev  0x000000000000c663       0xfb contiki-native.a(autostart.o)
 .debug_abbrev  0x000000000000c75e       0xd9 contiki-native.a(stimer.o)
 .debug_abbrev  0x000000000000c837       0x96 contiki-native.a(energest.o)
 .debug_abbrev  0x000000000000c8cd       0xed contiki-native.a(arg.o)
 .debug_abbrev  0x000000000000c9ba      0x1a1 contiki-native.a(ctimer.o)
 .debug_abbrev  0x000000000000cb5b      0x1f8 contiki-native.a(etimer.o)
 .debug_abbrev  0x000000000000cd53      0x102 contiki-native.a(compower.o)
 .debug_abbrev  0x000000000000ce55      0x244 contiki-native.a(process.o)
 .debug_abbrev  0x000000000000d099      0x126 contiki-native.a(rtimer.o)
 .debug_abbrev  0x000000000000d1bf       0xb8 contiki-native.a(mt.o)
 .debug_abbrev  0x000000000000d277       0xf3 contiki-native.a(procinit.o)
 .debug_abbrev  0x000000000000d36a       0xf5 contiki-native.a(timer.o)
 .debug_abbrev  0x000000000000d45f      0x1b1 contiki-native.a(serial-line.o)
 .debug_abbrev  0x000000000000d610      0x26c contiki-native.a(slip.o)
 .debug_abbrev  0x000000000000d87c      0x155 contiki-native.a(nullradio.o)
 .debug_abbrev  0x000000000000d9d1       0x45 contiki-native.a(me_tabs.o)
 .debug_abbrev  0x000000000000da16       0x26 contiki-native.a(settings.o)
 .debug_abbrev  0x000000000000da3c       0x9f contiki-native.a(crc16.o)
 .debug_abbrev  0x000000000000dadb      0x109 contiki-native.a(mmem.o)
 .debug_abbrev  0x000000000000dbe4      0x17c contiki-native.a(iq-seeder.o)
 .debug_abbrev  0x000000000000dd60      0x115 contiki-native.a(ccm-star.o)
 .debug_abbrev  0x000000000000de75       0xe3 contiki-native.a(ifft.o)
 .debug_abbrev  0x000000000000df58       0xce contiki-native.a(null-seeder.o)
 .debug_abbrev  0x000000000000e026       0xe2 contiki-native.a(ringbufindex.o)
 .debug_abbrev  0x000000000000e108      0x145 contiki-native.a(list.o)
 .debug_abbrev  0x000000000000e24d       0xdf contiki-native.a(gcr.o)
 .debug_abbrev  0x000000000000e32c      0x120 contiki-native.a(aes-128.o)
 .debug_abbrev  0x000000000000e44c      0x205 contiki-native.a(trickle-timer.o)
 .debug_abbrev  0x000000000000e651       0xe4 contiki-native.a(memb.o)
 .debug_abbrev  0x000000000000e735       0x83 contiki-native.a(me.o)
 .debug_abbrev  0x000000000000e7b8       0x42 contiki-native.a(print-stats.o)
 .debug_abbrev  0x000000000000e7fa      0x115 contiki-native.a(csprng.o)
 .debug_abbrev  0x000000000000e90f       0x81 contiki-native.a(petsciiconv.o)
 .debug_abbrev  0x000000000000e990       0x6d contiki-native.a(random.o)
 .debug_abbrev  0x000000000000e9fd       0x61 contiki-native.a(assert.o)
 .debug_abbrev  0x000000000000ea5e       0xdb contiki-native.a(ringbuf.o)
 .debug_abbrev  0x000000000000eb39      0x2a3 contiki-native.a(websocket.o)
 .debug_abbrev  0x000000000000eddc      0x25d contiki-native.a(uip-icmp6.o)
 .debug_abbrev  0x000000000000f039      0x2ba contiki-native.a(uip-ds6.o)
 .debug_abbrev  0x000000000000f2f3      0x335 contiki-native.a(uip-ds6-route.o)
 .debug_abbrev  0x000000000000f628      0x2ed contiki-native.a(uip6.o)
 .debug_abbrev  0x000000000000f915      0x2a7 contiki-native.a(uip-ds6-nbr.o)
 .debug_abbrev  0x000000000000fbbc      0x2c3 contiki-native.a(uip-nd6.o)
 .debug_abbrev  0x000000000000fe7f      0x294 contiki-native.a(websocket-http-)
 .debug_abbrev  0x0000000000010113      0x28e contiki-native.a(sicslowpan.o)
 .debug_abbrev  0x00000000000103a1       0xe3 contiki-native.a(slipdev.o)
 .debug_abbrev  0x0000000000010484       0xe3 contiki-native.a(uip-debug.o)
 .debug_abbrev  0x0000000000010567      0x1d4 contiki-native.a(uip-packetqueue)
 .debug_abbrev  0x000000000001073b      0x23d contiki-native.a(tcp-socket.o)
 .debug_abbrev  0x0000000000010978       0xf4 contiki-native.a(ip64-addr.o)
 .debug_abbrev  0x0000000000010a6c      0x195 contiki-native.a(uip-udp-packet.)
 .debug_abbrev  0x0000000000010c01      0x234 contiki-native.a(psock.o)
 .debug_abbrev  0x0000000000010e35      0x224 contiki-native.a(dhcpc.o)
 .debug_abbrev  0x0000000000011059      0x39b contiki-native.a(tcpip.o)
 .debug_abbrev  0x00000000000113f4      0x2d6 contiki-native.a(resolv.o)
 .debug_abbrev  0x00000000000116ca       0xf2 contiki-native.a(uip-nameserver.)
 .debug_abbrev  0x00000000000117bc      0x103 contiki-native.a(uip-split.o)
 .debug_abbrev  0x00000000000118bf      0x206 contiki-native.a(udp-socket.o)
 .debug_abbrev  0x0000000000011ac5      0x1e8 contiki-native.a(simple-udp.o)
 .debug_abbrev  0x0000000000011cad       0xda contiki-native.a(uiplib.o)
 .debug_abbrev  0x0000000000011d87      0x23e contiki-native.a(rpl-nbr-policy.)
 .debug_abbrev  0x0000000000011fc5      0x203 contiki-native.a(rpl-of0.o)
 .debug_abbrev  0x00000000000121c8      0x3a1 contiki-native.a(rpl-dag.o)
 .debug_abbrev  0x0000000000012569      0x2bb contiki-native.a(rpl-timers.o)
 .debug_abbrev  0x0000000000012824      0x299 contiki-native.a(rpl-ext-header.)
 .debug_abbrev  0x0000000000012abd      0x289 contiki-native.a(rpl.o)
 .debug_abbrev  0x0000000000012d46      0x203 contiki-native.a(rpl-mrhof.o)
 .debug_abbrev  0x0000000000012f49      0x235 contiki-native.a(rpl-ns.o)
 .debug_abbrev  0x000000000001317e      0x343 contiki-native.a(rpl-icmp6.o)
 .debug_abbrev  0x00000000000134c1      0x255 contiki-native.a(rpl-dag-root.o)
 .debug_abbrev  0x0000000000013716      0x1a6 contiki-native.a(queuebuf.o)
 .debug_abbrev  0x00000000000138bc       0xfd contiki-native.a(cmd-broker.o)
 .debug_abbrev  0x00000000000139b9      0x1f8 contiki-native.a(nbr-table.o)
 .debug_abbrev  0x0000000000013bb1      0x1da contiki-native.a(packetbuf.o)
 .debug_abbrev  0x0000000000013d8b      0x113 contiki-native.a(netstack.o)
 .debug_abbrev  0x0000000000013e9e       0xf2 contiki-native.a(linkaddr.o)
 .debug_abbrev  0x0000000000013f90       0xb6 contiki-native.a(net-debug.o)
 .debug_abbrev  0x0000000000014046      0x1f9 contiki-native.a(link-stats.o)
 .debug_abbrev  0x000000000001423f      0x17d contiki-native.a(nullmac.o)
 .debug_abbrev  0x00000000000143bc      0x1b1 contiki-native.a(nullrdc-noframe)
 .debug_abbrev  0x000000000001456d      0x1ca contiki-native.a(frame802154e-ie)
 .debug_abbrev  0x0000000000014737       0xed contiki-native.a(mac-sequence.o)
 .debug_abbrev  0x0000000000014824      0x156 contiki-native.a(nordc.o)
 .debug_abbrev  0x000000000001497a      0x2ae contiki-native.a(csma.o)
 .debug_abbrev  0x0000000000014c28      0x1e1 contiki-native.a(frame802154.o)
 .debug_abbrev  0x0000000000014e09      0x104 contiki-native.a(framer-nullmac.)
 .debug_abbrev  0x0000000000014f0d       0xa5 contiki-native.a(mac.o)
 .debug_abbrev  0x0000000000014fb2      0x147 contiki-native.a(framer-802154.o)
 .debug_abbrev  0x00000000000150f9      0x1f6 contiki-native.a(phase.o)
 .debug_abbrev  0x00000000000152ef      0x24c contiki-native.a(nullrdc.o)
 .debug_abbrev  0x000000000001553b      0x14f contiki-native.a(ctk-textentry-c)
 .debug_abbrev  0x000000000001568a      0x1e5 contiki-native.a(ctk-filedialog.)
 .debug_abbrev  0x000000000001586f      0x13c contiki-native.a(ctk-textentry-c)
 .debug_abbrev  0x00000000000159ab      0x14b contiki-native.a(ctk-textentry-m)
 .debug_abbrev  0x0000000000015af6      0x2a8 contiki-native.a(ctk.o)
 .debug_abbrev  0x0000000000015d9e      0x13b contiki-native.a(nullsec.o)
 .debug_abbrev  0x0000000000015ed9      0x105 contiki-native.a(anti-replay.o)
 .debug_abbrev  0x0000000000015fde       0xee contiki-native.a(ccm-star-packet)
 .debug_abbrev  0x00000000000160cc       0x7e contiki-native.a(symbols.o)
 .debug_abbrev  0x000000000001614a      0x13a /usr/lib/x86_64-linux-gnu/libpthread_nonshared.a(pthread_atfork.oS)

.debug_line     0x0000000000000000    0x1e562
 *(.debug_line .debug_line.* .debug_line_end)
 .debug_line    0x0000000000000000      0x761 cetic-6lbr.co
 .debug_line    0x0000000000000761      0x385 obj_native/native-init.o
 .debug_line    0x0000000000000ae6      0x15e obj_native/native-nvm.o
 .debug_line    0x0000000000000c44       0x82 obj_native/native-config.o
 .debug_line    0x0000000000000cc6      0x1ac obj_native/native-config-file.o
 .debug_line    0x0000000000000e72      0x416 obj_native/native-config-handlers.o
 .debug_line    0x0000000000001288      0x253 obj_native/raw-tap-eth-drv.o
 .debug_line    0x00000000000014db      0x531 obj_native/raw-tap-dev.o
 .debug_line    0x0000000000001a0c      0x721 obj_native/native-rdc.o
 .debug_line    0x000000000000212d      0x245 obj_native/slip-cmds.o
 .debug_line    0x0000000000002372      0x280 obj_native/native-args.o
 .debug_line    0x00000000000025f2      0x914 obj_native/slip-dev.o
 .debug_line    0x0000000000002f06      0x1e4 obj_native/6lbr-watchdog.o
 .debug_line    0x00000000000030ea      0x284 obj_native/plugin.o
 .debug_line    0x000000000000336e       0x65 obj_native/lost-symbols.o
 .debug_line    0x00000000000033d3      0x1d2 obj_native/ini.o
 .debug_line    0x00000000000035a5      0x107 obj_native/log-6lbr.o
 .debug_line    0x00000000000036ac      0x216 obj_native/rio.o
 .debug_line    0x00000000000038c2      0x763 obj_native/packet-forwarding-engine.o
 .debug_line    0x0000000000004025      0x1bd obj_native/sicslow-ethernet.o
 .debug_line    0x00000000000041e2      0x1a5 obj_native/nvm-config.o
 .debug_line    0x0000000000004387      0x15e obj_native/mac-wrapper.o
 .debug_line    0x00000000000044e5      0x1e3 obj_native/switch-lookup.o
 .debug_line    0x00000000000046c8       0xf0 obj_native/network-itf.o
 .debug_line    0x00000000000047b8      0x1c5 obj_native/multi-radio.o
 .debug_line    0x000000000000497d      0x1ef obj_native/llsec-wrapper.o
 .debug_line    0x0000000000004b6c      0x1e7 obj_native/framer-wrapper.o
 .debug_line    0x0000000000004d53      0x217 obj_native/strategy-wrapper.o
 .debug_line    0x0000000000004f6a       0x93 obj_native/ip64-eth-driver.o
 .debug_line    0x0000000000004ffd       0x93 contiki-native.a(cmd.o)
 .debug_line    0x0000000000005090       0xdd contiki-native.a(packetutils.o)
 .debug_line    0x000000000000516d      0x3e8 contiki-native.a(httpd.o)
 .debug_line    0x0000000000005555      0x1eb contiki-native.a(httpd-cgi.o)
 .debug_line    0x0000000000005740       0x99 contiki-native.a(httpd-urlconv.o)
 .debug_line    0x00000000000057d9      0x184 contiki-native.a(webserver.o)
 .debug_line    0x000000000000595d      0x494 contiki-native.a(webserver-utils)
 .debug_line    0x0000000000005df1      0x1f4 contiki-native.a(webserver-main.)
 .debug_line    0x0000000000005fe5      0x662 contiki-native.a(webserver-netwo)
 .debug_line    0x0000000000006647     0x170a contiki-native.a(webserver-confi)
 .debug_line    0x0000000000007d51      0x4dd contiki-native.a(webserver-stati)
 .debug_line    0x000000000000822e      0x274 contiki-native.a(webserver-admin)
 .debug_line    0x00000000000084a2      0x44b contiki-native.a(webserver-log.o)
 .debug_line    0x00000000000088ed      0x362 contiki-native.a(webserver-rpl.o)
 .debug_line    0x0000000000008c4f      0x1b6 contiki-native.a(webserver-file.)
 .debug_line    0x0000000000008e05      0x648 contiki-native.a(webserver-senso)
 .debug_line    0x000000000000944d      0x2e6 contiki-native.a(webserver-senso)
 .debug_line    0x0000000000009733      0x20a contiki-native.a(webserver-node-)
 .debug_line    0x000000000000993d      0x1d9 contiki-native.a(udp-server.o)
 .debug_line    0x0000000000009b16      0x2af contiki-native.a(node-config.o)
 .debug_line    0x0000000000009dc5      0x1e8 contiki-native.a(node-config-ip6)
 .debug_line    0x0000000000009fad      0x3a0 contiki-native.a(node-config-fil)
 .debug_line    0x000000000000a34d      0x2fd contiki-native.a(node-info.o)
 .debug_line    0x000000000000a64a      0x439 contiki-native.a(node-info-expor)
 .debug_line    0x000000000000aa83      0x26e contiki-native.a(webserver-node-)
 .debug_line    0x000000000000acf1      0x1ac contiki-native.a(dns-proxy.o)
 .debug_line    0x000000000000ae9d      0x598 contiki-native.a(er-coap.o)
 .debug_line    0x000000000000b435      0x378 contiki-native.a(er-coap-engine.)
 .debug_line    0x000000000000b7ad      0x23d contiki-native.a(er-coap-transac)
 .debug_line    0x000000000000b9ea      0x352 contiki-native.a(er-coap-observe)
 .debug_line    0x000000000000bd3c      0x238 contiki-native.a(er-coap-separat)
 .debug_line    0x000000000000bf74      0x2ec contiki-native.a(er-coap-res-wel)
 .debug_line    0x000000000000c260      0x1bb contiki-native.a(er-coap-block1.)
 .debug_line    0x000000000000c41b       0x1d contiki-native.a(er-coap-observe)
 .debug_line    0x000000000000c438       0xf4 contiki-native.a(er-coap-udp.o)
 .debug_line    0x000000000000c52c      0x24a contiki-native.a(rest-engine.o)
 .debug_line    0x000000000000c776       0x60 contiki-native.a(coap-server.o)
 .debug_line    0x000000000000c7d6      0x28c contiki-native.a(block-transfer.)
 .debug_line    0x000000000000ca62      0x451 contiki-native.a(coap-common.o)
 .debug_line    0x000000000000ceb3      0x2ff contiki-native.a(coap-push.o)
 .debug_line    0x000000000000d1b2      0x400 contiki-native.a(core-interface.)
 .debug_line    0x000000000000d5b2      0x37f contiki-native.a(coap-binding.o)
 .debug_line    0x000000000000d931      0x13d contiki-native.a(coap-linked-bat)
 .debug_line    0x000000000000da6e      0x343 contiki-native.a(rd-client.o)
 .debug_line    0x000000000000ddb1      0x2d8 contiki-native.a(rest-type-text.)
 .debug_line    0x000000000000e089      0x392 contiki-native.a(rest-type-json.)
 .debug_line    0x000000000000e41b      0x328 contiki-native.a(rest-type-senml)
 .debug_line    0x000000000000e743      0x36b contiki-native.a(rest-type-xml.o)
 .debug_line    0x000000000000eaae      0x250 contiki-native.a(ctk-conio.o)
 .debug_line    0x000000000000ecfe      0x372 contiki-native.a(contiki-main.o)
 .debug_line    0x000000000000f070       0xef contiki-native.a(clock.o)
 .debug_line    0x000000000000f15f       0x6f contiki-native.a(leds.o)
 .debug_line    0x000000000000f1ce       0x63 contiki-native.a(leds-arch.o)
 .debug_line    0x000000000000f231       0x88 contiki-native.a(button-sensor.o)
 .debug_line    0x000000000000f2b9       0x89 contiki-native.a(pir-sensor.o)
 .debug_line    0x000000000000f342       0x88 contiki-native.a(vib-sensor.o)
 .debug_line    0x000000000000f3ca       0x6d contiki-native.a(xmem.o)
 .debug_line    0x000000000000f437      0x143 contiki-native.a(sensors.o)
 .debug_line    0x000000000000f57a       0x54 contiki-native.a(irq.o)
 .debug_line    0x000000000000f5ce       0x98 contiki-native.a(cfs-posix.o)
 .debug_line    0x000000000000f666       0xda contiki-native.a(cfs-posix-dir.o)
 .debug_line    0x000000000000f740      0x2b3 contiki-native.a(ctk-curses.o)
 .debug_line    0x000000000000f9f3      0x130 contiki-native.a(tapdev-drv.o)
 .debug_line    0x000000000000fb23      0x24f contiki-native.a(linuxradio-drv.)
 .debug_line    0x000000000000fd72      0x1e6 contiki-native.a(tapdev6.o)
 .debug_line    0x000000000000ff58      0x132 contiki-native.a(mtarch.o)
 .debug_line    0x000000000001008a       0xee contiki-native.a(rtimer-arch.o)
 .debug_line    0x0000000000010178       0x92 contiki-native.a(elfloader-stub.)
 .debug_line    0x000000000001020a       0x5c contiki-native.a(watchdog.o)
 .debug_line    0x0000000000010266      0x16e contiki-native.a(eeprom.o)
 .debug_line    0x00000000000103d4      0x222 contiki-native.a(noncoresec.o)
 .debug_line    0x00000000000105f6      0x376 contiki-native.a(akes.o)
 .debug_line    0x000000000001096c      0x216 contiki-native.a(akes-delete.o)
 .debug_line    0x0000000000010b82       0x1d contiki-native.a(coresec-strateg)
 .debug_line    0x0000000000010b9f      0x1e4 contiki-native.a(akes-trickle.o)
 .debug_line    0x0000000000010d83      0x1f5 contiki-native.a(noncoresec-stra)
 .debug_line    0x0000000000010f78       0xd1 contiki-native.a(akes-single.o)
 .debug_line    0x0000000000011049      0x2ee contiki-native.a(adaptivesec.o)
 .debug_line    0x0000000000011337      0x28c contiki-native.a(akes-nbr.o)
 .debug_line    0x00000000000115c3      0x197 contiki-native.a(ip64-dns64.o)
 .debug_line    0x000000000001175a      0x243 contiki-native.a(ip64-arp.o)
 .debug_line    0x000000000001199d      0x1dc contiki-native.a(ip64-addrmap.o)
 .debug_line    0x0000000000011b79      0x1bf contiki-native.a(ip64-ipv4-dhcp.)
 .debug_line    0x0000000000011d38       0x8a contiki-native.a(ip64-null-drive)
 .debug_line    0x0000000000011dc2      0x113 contiki-native.a(ip64-eth-interf)
 .debug_line    0x0000000000011ed5      0x392 contiki-native.a(ip64.o)
 .debug_line    0x0000000000012267       0x1d contiki-native.a(ip64-special-po)
 .debug_line    0x0000000000012284      0x14d contiki-native.a(ip64-slip-inter)
 .debug_line    0x00000000000123d1      0x2fa contiki-native.a(ip64-dhcpc.o)
 .debug_line    0x00000000000126cb       0x7e contiki-native.a(ip64-eth.o)
 .debug_line    0x0000000000012749       0xb3 contiki-native.a(autostart.o)
 .debug_line    0x00000000000127fc       0x8e contiki-native.a(stimer.o)
 .debug_line    0x000000000001288a       0x57 contiki-native.a(energest.o)
 .debug_line    0x00000000000128e1       0x5b contiki-native.a(arg.o)
 .debug_line    0x000000000001293c      0x18f contiki-native.a(ctimer.o)
 .debug_line    0x0000000000012acb      0x1bc contiki-native.a(etimer.o)
 .debug_line    0x0000000000012c87       0xda contiki-native.a(compower.o)
 .debug_line    0x0000000000012d61      0x1a8 contiki-native.a(process.o)
 .debug_line    0x0000000000012f09       0x8a contiki-native.a(rtimer.o)
 .debug_line    0x0000000000012f93       0xa1 contiki-native.a(mt.o)
 .debug_line    0x0000000000013034       0x9b contiki-native.a(procinit.o)
 .debug_line    0x00000000000130cf       0xb3 contiki-native.a(timer.o)
 .debug_line    0x0000000000013182      0x184 contiki-native.a(serial-line.o)
 .debug_line    0x0000000000013306      0x276 contiki-native.a(slip.o)
 .debug_line    0x000000000001357c       0xcc contiki-native.a(nullradio.o)
 .debug_line    0x0000000000013648       0x3b contiki-native.a(me_tabs.o)
 .debug_line    0x0000000000013683       0x1d contiki-native.a(settings.o)
 .debug_line    0x00000000000136a0       0x74 contiki-native.a(crc16.o)
 .debug_line    0x0000000000013714       0x96 contiki-native.a(mmem.o)
 .debug_line    0x00000000000137aa      0x1b1 contiki-native.a(iq-seeder.o)
 .debug_line    0x000000000001395b      0x168 contiki-native.a(ccm-star.o)
 .debug_line    0x0000000000013ac3      0x160 contiki-native.a(ifft.o)
 .debug_line    0x0000000000013c23       0x8b contiki-native.a(null-seeder.o)
 .debug_line    0x0000000000013cae       0xcd contiki-native.a(ringbufindex.o)
 .debug_line    0x0000000000013d7b      0x119 contiki-native.a(list.o)
 .debug_line    0x0000000000013e94       0x8d contiki-native.a(gcr.o)
 .debug_line    0x0000000000013f21      0x1a5 contiki-native.a(aes-128.o)
 .debug_line    0x00000000000140c6      0x1cd contiki-native.a(trickle-timer.o)
 .debug_line    0x0000000000014293       0xdc contiki-native.a(memb.o)
 .debug_line    0x000000000001436f       0x6e contiki-native.a(me.o)
 .debug_line    0x00000000000143dd       0x55 contiki-native.a(print-stats.o)
 .debug_line    0x0000000000014432       0xb6 contiki-native.a(csprng.o)
 .debug_line    0x00000000000144e8       0x98 contiki-native.a(petsciiconv.o)
 .debug_line    0x0000000000014580       0x52 contiki-native.a(random.o)
 .debug_line    0x00000000000145d2       0x50 contiki-native.a(assert.o)
 .debug_line    0x0000000000014622       0xb3 contiki-native.a(ringbuf.o)
 .debug_line    0x00000000000146d5      0x381 contiki-native.a(websocket.o)
 .debug_line    0x0000000000014a56      0x28f contiki-native.a(uip-icmp6.o)
 .debug_line    0x0000000000014ce5      0x40b contiki-native.a(uip-ds6.o)
 .debug_line    0x00000000000150f0      0x38e contiki-native.a(uip-ds6-route.o)
 .debug_line    0x000000000001547e      0x9c2 contiki-native.a(uip6.o)
 .debug_line    0x0000000000015e40      0x31f contiki-native.a(uip-ds6-nbr.o)
 .debug_line    0x000000000001615f      0x5f8 contiki-native.a(uip-nd6.o)
 .debug_line    0x0000000000016757      0x2bc contiki-native.a(websocket-http-)
 .debug_line    0x0000000000016a13      0x850 contiki-native.a(sicslowpan.o)
 .debug_line    0x0000000000017263       0xcd contiki-native.a(slipdev.o)
 .debug_line    0x0000000000017330       0xf6 contiki-native.a(uip-debug.o)
 .debug_line    0x0000000000017426      0x186 contiki-native.a(uip-packetqueue)
 .debug_line    0x00000000000175ac      0x26a contiki-native.a(tcp-socket.o)
 .debug_line    0x0000000000017816       0xad contiki-native.a(ip64-addr.o)
 .debug_line    0x00000000000178c3       0xf5 contiki-native.a(uip-udp-packet.)
 .debug_line    0x00000000000179b8      0x211 contiki-native.a(psock.o)
 .debug_line    0x0000000000017bc9      0x2e3 contiki-native.a(dhcpc.o)
 .debug_line    0x0000000000017eac      0x4f9 contiki-native.a(tcpip.o)
 .debug_line    0x00000000000183a5      0x92c contiki-native.a(resolv.o)
 .debug_line    0x0000000000018cd1       0xcf contiki-native.a(uip-nameserver.)
 .debug_line    0x0000000000018da0       0xca contiki-native.a(uip-split.o)
 .debug_line    0x0000000000018e6a      0x17a contiki-native.a(udp-socket.o)
 .debug_line    0x0000000000018fe4      0x15a contiki-native.a(simple-udp.o)
 .debug_line    0x000000000001913e      0x14e contiki-native.a(uiplib.o)
 .debug_line    0x000000000001928c      0x252 contiki-native.a(rpl-nbr-policy.)
 .debug_line    0x00000000000194de      0x2d8 contiki-native.a(rpl-of0.o)
 .debug_line    0x00000000000197b6      0x9f0 contiki-native.a(rpl-dag.o)
 .debug_line    0x000000000001a1a6      0x313 contiki-native.a(rpl-timers.o)
 .debug_line    0x000000000001a4b9      0x4fc contiki-native.a(rpl-ext-header.)
 .debug_line    0x000000000001a9b5      0x2ea contiki-native.a(rpl.o)
 .debug_line    0x000000000001ac9f      0x2c4 contiki-native.a(rpl-mrhof.o)
 .debug_line    0x000000000001af63      0x29f contiki-native.a(rpl-ns.o)
 .debug_line    0x000000000001b202      0x7d6 contiki-native.a(rpl-icmp6.o)
 .debug_line    0x000000000001b9d8      0x2e7 contiki-native.a(rpl-dag-root.o)
 .debug_line    0x000000000001bcbf      0x10f contiki-native.a(queuebuf.o)
 .debug_line    0x000000000001bdce       0xc1 contiki-native.a(cmd-broker.o)
 .debug_line    0x000000000001be8f      0x260 contiki-native.a(nbr-table.o)
 .debug_line    0x000000000001c0ef      0x147 contiki-native.a(packetbuf.o)
 .debug_line    0x000000000001c236      0x115 contiki-native.a(netstack.o)
 .debug_line    0x000000000001c34b       0x7a contiki-native.a(linkaddr.o)
 .debug_line    0x000000000001c3c5       0xa2 contiki-native.a(net-debug.o)
 .debug_line    0x000000000001c467      0x21b contiki-native.a(link-stats.o)
 .debug_line    0x000000000001c682       0xd2 contiki-native.a(nullmac.o)
 .debug_line    0x000000000001c754      0x118 contiki-native.a(nullrdc-noframe)
 .debug_line    0x000000000001c86c      0x335 contiki-native.a(frame802154e-ie)
 .debug_line    0x000000000001cba1      0x11c contiki-native.a(mac-sequence.o)
 .debug_line    0x000000000001ccbd       0x89 contiki-native.a(nordc.o)
 .debug_line    0x000000000001cd46      0x2ea contiki-native.a(csma.o)
 .debug_line    0x000000000001d030      0x2f5 contiki-native.a(frame802154.o)
 .debug_line    0x000000000001d325       0xc2 contiki-native.a(framer-nullmac.)
 .debug_line    0x000000000001d3e7       0x7b contiki-native.a(mac.o)
 .debug_line    0x000000000001d462      0x156 contiki-native.a(framer-802154.o)
 .debug_line    0x000000000001d5b8      0x21f contiki-native.a(phase.o)
 .debug_line    0x000000000001d7d7      0x165 contiki-native.a(nullrdc.o)
 .debug_line    0x000000000001d93c       0xb7 contiki-native.a(ctk-textentry-c)
 .debug_line    0x000000000001d9f3      0x183 contiki-native.a(ctk-filedialog.)
 .debug_line    0x000000000001db76       0xd0 contiki-native.a(ctk-textentry-c)
 .debug_line    0x000000000001dc46       0xdf contiki-native.a(ctk-textentry-m)
 .debug_line    0x000000000001dd25      0x41d contiki-native.a(ctk.o)
 .debug_line    0x000000000001e142       0xd6 contiki-native.a(nullsec.o)
 .debug_line    0x000000000001e218      0x117 contiki-native.a(anti-replay.o)
 .debug_line    0x000000000001e32f       0xe6 contiki-native.a(ccm-star-packet)
 .debug_line    0x000000000001e415       0x4d contiki-native.a(symbols.o)
 .debug_line    0x000000000001e462      0x100 /usr/lib/x86_64-linux-gnu/libpthread_nonshared.a(pthread_atfork.oS)

.debug_frame
 *(.debug_frame)

.debug_str      0x0000000000000000    0x10ccb
 *(.debug_str)
 .debug_str     0x0000000000000000      0xfef cetic-6lbr.co
                                       0x12e5 (size before relaxing)
 .debug_str     0x0000000000000fef      0x524 obj_native/native-init.o
                                        0xdc6 (size before relaxing)
 .debug_str     0x0000000000001513       0x5b obj_native/native-nvm.o
                                        0x6d5 (size before relaxing)
 .debug_str     0x000000000000156e      0x1c2 obj_native/native-config.o
                                        0x589 (size before relaxing)
 .debug_str     0x0000000000001730       0xf0 obj_native/native-config-file.o
                                        0x562 (size before relaxing)
 .debug_str     0x0000000000001820      0x24a obj_native/native-config-handlers.o
                                        0x91d (size before relaxing)
 .debug_str     0x0000000000001a6a       0xab obj_native/raw-tap-eth-drv.o
                                        0x879 (size before relaxing)
 .debug_str     0x0000000000001b15      0x48d obj_native/raw-tap-dev.o
                                        0xb09 (size before relaxing)
 .debug_str     0x0000000000001fa2      0x552 obj_native/native-rdc.o
                                       0x1121 (size before relaxing)
 .debug_str     0x00000000000024f4       0xbf obj_native/slip-cmds.o
                                        0x502 (size before relaxing)
 .debug_str     0x00000000000025b3       0x60 obj_native/native-args.o
                                        0x8d1 (size before relaxing)
 .debug_str     0x0000000000002613      0x240 obj_native/slip-dev.o
                                        0xe87 (size before relaxing)
 .debug_str     0x0000000000002853       0x63 obj_native/6lbr-watchdog.o
                                        0x64e (size before relaxing)
 .debug_str     0x00000000000028b6      0x150 obj_native/plugin.o
                                        0x58c (size before relaxing)
 .debug_str     0x0000000000002a06       0x8e obj_native/lost-symbols.o
                                        0x13c (size before relaxing)
 .debug_str     0x0000000000002a94      0x10a obj_native/ini.o
                                        0x3d5 (size before relaxing)
 .debug_str     0x0000000000002b9e       0xc4 obj_native/log-6lbr.o
                                        0x49c (size before relaxing)
 .debug_str     0x0000000000002c62      0x1bd obj_native/rio.o
                                        0x618 (size before relaxing)
 .debug_str     0x0000000000002e1f      0x218 obj_native/packet-forwarding-engine.o
                                       0x11c6 (size before relaxing)
 .debug_str     0x0000000000003037      0x10c obj_native/sicslow-ethernet.o
                                        0x5cd (size before relaxing)
 .debug_str     0x0000000000003143       0x5e obj_native/nvm-config.o
                                        0x741 (size before relaxing)
 .debug_str     0x00000000000031a1       0x65 obj_native/mac-wrapper.o
                                        0x765 (size before relaxing)
 .debug_str     0x0000000000003206       0xdd obj_native/switch-lookup.o
                                        0x5a2 (size before relaxing)
 .debug_str     0x00000000000032e3       0x9c obj_native/network-itf.o
                                        0x20b (size before relaxing)
 .debug_str     0x000000000000337f       0x47 obj_native/multi-radio.o
                                        0x7e3 (size before relaxing)
 .debug_str     0x00000000000033c6       0x86 obj_native/llsec-wrapper.o
                                        0x765 (size before relaxing)
 .debug_str     0x000000000000344c       0x7d obj_native/framer-wrapper.o
                                        0x73b (size before relaxing)
 .debug_str     0x00000000000034c9      0x1b7 obj_native/strategy-wrapper.o
                                        0x918 (size before relaxing)
 .debug_str     0x0000000000003680       0x35 obj_native/ip64-eth-driver.o
                                        0x15b (size before relaxing)
 .debug_str     0x00000000000036b5       0x2f contiki-native.a(cmd.o)
                                        0x15c (size before relaxing)
 .debug_str     0x00000000000036e4       0x5c contiki-native.a(packetutils.o)
                                        0x3cb (size before relaxing)
 .debug_str     0x0000000000003740      0x2c8 contiki-native.a(httpd.o)
                                        0xacf (size before relaxing)
 .debug_str     0x0000000000003a08       0xc2 contiki-native.a(httpd-cgi.o)
                                        0x61d (size before relaxing)
 .debug_str     0x0000000000003aca       0x3e contiki-native.a(httpd-urlconv.o)
                                        0x153 (size before relaxing)
 .debug_str     0x0000000000003b08      0x390 contiki-native.a(webserver.o)
                                        0x960 (size before relaxing)
 .debug_str     0x0000000000003e98      0x176 contiki-native.a(webserver-utils)
                                        0x705 (size before relaxing)
 .debug_str     0x000000000000400e       0x3d contiki-native.a(webserver-main.)
                                        0x64c (size before relaxing)
 .debug_str     0x000000000000404b      0x282 contiki-native.a(webserver-netwo)
                                       0x10e2 (size before relaxing)
 .debug_str     0x00000000000042cd       0x99 contiki-native.a(webserver-confi)
                                        0xb1d (size before relaxing)
 .debug_str     0x0000000000004366      0x229 contiki-native.a(webserver-stati)
                                        0xbbd (size before relaxing)
 .debug_str     0x000000000000458f       0x8c contiki-native.a(webserver-admin)
                                        0x5c5 (size before relaxing)
 .debug_str     0x000000000000461b       0xfb contiki-native.a(webserver-log.o)
                                        0x974 (size before relaxing)
 .debug_str     0x0000000000004716       0x7b contiki-native.a(webserver-rpl.o)
                                        0xb38 (size before relaxing)
 .debug_str     0x0000000000004791       0x31 contiki-native.a(webserver-file.)
                                        0x58e (size before relaxing)
 .debug_str     0x00000000000047c2      0x23e contiki-native.a(webserver-senso)
                                        0xa25 (size before relaxing)
 .debug_str     0x0000000000004a00       0x73 contiki-native.a(webserver-senso)
                                        0x53a (size before relaxing)
 .debug_str     0x0000000000004a73       0x46 contiki-native.a(webserver-node-)
                                        0x672 (size before relaxing)
 .debug_str     0x0000000000004ab9       0x77 contiki-native.a(udp-server.o)
                                        0x9b2 (size before relaxing)
 .debug_str     0x0000000000004b30       0xc5 contiki-native.a(node-config.o)
                                        0xcc3 (size before relaxing)
 .debug_str     0x0000000000004bf5       0xe4 contiki-native.a(node-config-ip6)
                                        0x828 (size before relaxing)
 .debug_str     0x0000000000004cd9      0x31a contiki-native.a(node-config-fil)
                                        0x882 (size before relaxing)
 .debug_str     0x0000000000004ff3      0x194 contiki-native.a(node-info.o)
                                        0x936 (size before relaxing)
 .debug_str     0x0000000000005187      0x23a contiki-native.a(node-info-expor)
                                        0xbe6 (size before relaxing)
 .debug_str     0x00000000000053c1       0x8c contiki-native.a(webserver-node-)
                                        0x741 (size before relaxing)
 .debug_str     0x000000000000544d       0x61 contiki-native.a(dns-proxy.o)
                                        0x88b (size before relaxing)
 .debug_str     0x00000000000054ae      0x95f contiki-native.a(er-coap.o)
                                        0xe59 (size before relaxing)
 .debug_str     0x0000000000005e0d      0x700 contiki-native.a(er-coap-engine.)
                                       0x1207 (size before relaxing)
 .debug_str     0x000000000000650d      0x17f contiki-native.a(er-coap-transac)
                                        0x633 (size before relaxing)
 .debug_str     0x000000000000668c      0x1c8 contiki-native.a(er-coap-observe)
                                        0xcf8 (size before relaxing)
 .debug_str     0x0000000000006854       0x94 contiki-native.a(er-coap-separat)
                                        0x84f (size before relaxing)
 .debug_str     0x00000000000068e8       0x8a contiki-native.a(er-coap-res-wel)
                                        0x925 (size before relaxing)
 .debug_str     0x0000000000006972       0x4a contiki-native.a(er-coap-block1.)
                                        0xe83 (size before relaxing)
 .debug_str     0x00000000000069bc       0x2e contiki-native.a(er-coap-observe)
                                        0x13f (size before relaxing)
 .debug_str     0x00000000000069ea       0x67 contiki-native.a(er-coap-udp.o)
                                        0x25d (size before relaxing)
 .debug_str     0x0000000000006a51      0x133 contiki-native.a(rest-engine.o)
                                        0x9dd (size before relaxing)
 .debug_str     0x0000000000006b84       0x38 contiki-native.a(coap-server.o)
                                        0x160 (size before relaxing)
 .debug_str     0x0000000000006bbc       0x72 contiki-native.a(block-transfer.)
                                        0x625 (size before relaxing)
 .debug_str     0x0000000000006c2e      0x316 contiki-native.a(coap-common.o)
                                        0xd87 (size before relaxing)
 .debug_str     0x0000000000006f44      0x146 contiki-native.a(coap-push.o)
                                        0xb25 (size before relaxing)
 .debug_str     0x000000000000708a      0x19a contiki-native.a(core-interface.)
                                        0xe89 (size before relaxing)
 .debug_str     0x0000000000007224      0x180 contiki-native.a(coap-binding.o)
                                        0x840 (size before relaxing)
 .debug_str     0x00000000000073a4       0x74 contiki-native.a(coap-linked-bat)
                                        0x3d2 (size before relaxing)
 .debug_str     0x0000000000007418      0x1f3 contiki-native.a(rd-client.o)
                                        0xbaf (size before relaxing)
 .debug_str     0x000000000000760b       0x46 contiki-native.a(rest-type-text.)
                                        0xb01 (size before relaxing)
 .debug_str     0x0000000000007651       0x4b contiki-native.a(rest-type-json.)
                                        0xb01 (size before relaxing)
 .debug_str     0x000000000000769c       0x4d contiki-native.a(rest-type-senml)
                                        0x43b (size before relaxing)
 .debug_str     0x00000000000076e9       0x49 contiki-native.a(rest-type-xml.o)
                                        0xaff (size before relaxing)
 .debug_str     0x0000000000007732      0x2c7 contiki-native.a(ctk-conio.o)
                                        0x4a3 (size before relaxing)
 .debug_str     0x00000000000079f9       0xf7 contiki-native.a(contiki-main.o)
                                        0x5a4 (size before relaxing)
 .debug_str     0x0000000000007af0       0x52 contiki-native.a(clock.o)
                                        0x1ac (size before relaxing)
 .debug_str     0x0000000000007b42       0x74 contiki-native.a(leds.o)
                                        0x17e (size before relaxing)
 .debug_str     0x0000000000007bb6       0x53 contiki-native.a(leds-arch.o)
                                        0x14f (size before relaxing)
 .debug_str     0x0000000000007c09       0x39 contiki-native.a(button-sensor.o)
                                        0x169 (size before relaxing)
 .debug_str     0x0000000000007c42       0x4f contiki-native.a(pir-sensor.o)
                                        0x17c (size before relaxing)
 .debug_str     0x0000000000007c91       0x3c contiki-native.a(vib-sensor.o)
                                        0x169 (size before relaxing)
 .debug_str     0x0000000000007ccd       0x5b contiki-native.a(xmem.o)
                                        0x15e (size before relaxing)
 .debug_str     0x0000000000007d28       0x9d contiki-native.a(sensors.o)
                                        0x25e (size before relaxing)
 .debug_str     0x0000000000007dc5       0x2b contiki-native.a(irq.o)
                                         0xb5 (size before relaxing)
 .debug_str     0x0000000000007df0       0x64 contiki-native.a(cfs-posix.o)
                                        0x160 (size before relaxing)
 .debug_str     0x0000000000007e54       0x67 contiki-native.a(cfs-posix-dir.o)
                                        0x1c6 (size before relaxing)
 .debug_str     0x0000000000007ebb      0x329 contiki-native.a(ctk-curses.o)
                                        0x4d5 (size before relaxing)
 .debug_str     0x00000000000081e4       0x4e contiki-native.a(tapdev-drv.o)
                                        0x249 (size before relaxing)
 .debug_str     0x0000000000008232      0x1a1 contiki-native.a(linuxradio-drv.)
                                        0x5b6 (size before relaxing)
 .debug_str     0x00000000000083d3       0x87 contiki-native.a(tapdev6.o)
                                        0x55a (size before relaxing)
 .debug_str     0x000000000000845a      0x1f2 contiki-native.a(mtarch.o)
                                        0x35a (size before relaxing)
 .debug_str     0x000000000000864c       0xb7 contiki-native.a(rtimer-arch.o)
                                        0x230 (size before relaxing)
 .debug_str     0x0000000000008703      0x105 contiki-native.a(elfloader-stub.)
                                        0x212 (size before relaxing)
 .debug_str     0x0000000000008808       0x6d contiki-native.a(watchdog.o)
                                        0x189 (size before relaxing)
 .debug_str     0x0000000000008875       0x7b contiki-native.a(eeprom.o)
                                        0x332 (size before relaxing)
 .debug_str     0x00000000000088f0      0x183 contiki-native.a(noncoresec.o)
                                        0xa3b (size before relaxing)
 .debug_str     0x0000000000008a73      0x319 contiki-native.a(akes.o)
                                        0xc99 (size before relaxing)
 .debug_str     0x0000000000008d8c       0xa0 contiki-native.a(akes-delete.o)
                                        0x3bb (size before relaxing)
 .debug_str     0x0000000000008e2c       0x36 contiki-native.a(coresec-strateg)
                                        0x147 (size before relaxing)
 .debug_str     0x0000000000008e62      0x15d contiki-native.a(akes-trickle.o)
                                        0x45a (size before relaxing)
 .debug_str     0x0000000000008fbf       0x39 contiki-native.a(noncoresec-stra)
                                        0x45d (size before relaxing)
 .debug_str     0x0000000000008ff8       0x41 contiki-native.a(akes-single.o)
                                        0x1cb (size before relaxing)
 .debug_str     0x0000000000009039      0x10a contiki-native.a(adaptivesec.o)
                                        0xc34 (size before relaxing)
 .debug_str     0x0000000000009143      0x236 contiki-native.a(akes-nbr.o)
                                        0x97c (size before relaxing)
 .debug_str     0x0000000000009379       0xc7 contiki-native.a(ip64-dns64.o)
                                        0x1fd (size before relaxing)
 .debug_str     0x0000000000009440      0x183 contiki-native.a(ip64-arp.o)
                                        0x374 (size before relaxing)
 .debug_str     0x00000000000095c3      0x139 contiki-native.a(ip64-addrmap.o)
                                        0x305 (size before relaxing)
 .debug_str     0x00000000000096fc       0x91 contiki-native.a(ip64-ipv4-dhcp.)
                                        0x3a4 (size before relaxing)
 .debug_str     0x000000000000978d       0x3a contiki-native.a(ip64-null-drive)
                                        0x17b (size before relaxing)
 .debug_str     0x00000000000097c7       0x57 contiki-native.a(ip64-eth-interf)
                                        0x22e (size before relaxing)
 .debug_str     0x000000000000981e      0x2e9 contiki-native.a(ip64.o)
                                        0x77a (size before relaxing)
 .debug_str     0x0000000000009b07       0x2b contiki-native.a(ip64-special-po)
                                        0x122 (size before relaxing)
 .debug_str     0x0000000000009b32       0x6e contiki-native.a(ip64-slip-inter)
                                        0x2eb (size before relaxing)
 .debug_str     0x0000000000009ba0      0x154 contiki-native.a(ip64-dhcpc.o)
                                        0x463 (size before relaxing)
 .debug_str     0x0000000000009cf4       0x33 contiki-native.a(ip64-eth.o)
                                        0x145 (size before relaxing)
 .debug_str     0x0000000000009d27       0x3c contiki-native.a(autostart.o)
                                        0x18a (size before relaxing)
 .debug_str     0x0000000000009d63       0x70 contiki-native.a(stimer.o)
                                        0x17d (size before relaxing)
 .debug_str     0x0000000000009dd3       0x5e contiki-native.a(energest.o)
                                        0x15a (size before relaxing)
 .debug_str     0x0000000000009e31       0x3f contiki-native.a(arg.o)
                                        0x140 (size before relaxing)
 .debug_str     0x0000000000009e70       0xbb contiki-native.a(ctimer.o)
                                        0x28b (size before relaxing)
 .debug_str     0x0000000000009f2b      0x144 contiki-native.a(etimer.o)
                                        0x2fe (size before relaxing)
 .debug_str     0x000000000000a06f      0x1e3 contiki-native.a(compower.o)
                                        0x550 (size before relaxing)
 .debug_str     0x000000000000a252      0x158 contiki-native.a(process.o)
                                        0x2c0 (size before relaxing)
 .debug_str     0x000000000000a3aa       0xaf contiki-native.a(rtimer.o)
                                        0x1cc (size before relaxing)
 .debug_str     0x000000000000a459       0x52 contiki-native.a(mt.o)
                                        0x184 (size before relaxing)
 .debug_str     0x000000000000a4ab       0x2a contiki-native.a(procinit.o)
                                        0x177 (size before relaxing)
 .debug_str     0x000000000000a4d5       0x19 contiki-native.a(timer.o)
                                        0x179 (size before relaxing)
 .debug_str     0x000000000000a4ee       0xcf contiki-native.a(serial-line.o)
                                        0x2b5 (size before relaxing)
 .debug_str     0x000000000000a5bd       0xf9 contiki-native.a(slip.o)
                                        0x2f7 (size before relaxing)
 .debug_str     0x000000000000a6b6       0x39 contiki-native.a(nullradio.o)
                                        0x2a2 (size before relaxing)
 .debug_str     0x000000000000a6ef       0x44 contiki-native.a(me_tabs.o)
                                         0xf8 (size before relaxing)
 .debug_str     0x000000000000a733       0x1c contiki-native.a(settings.o)
                                        0x113 (size before relaxing)
 .debug_str     0x000000000000a74f       0x2e contiki-native.a(crc16.o)
                                         0xde (size before relaxing)
 .debug_str     0x000000000000a77d       0x62 contiki-native.a(mmem.o)
                                        0x176 (size before relaxing)
 .debug_str     0x000000000000a7df      0x251 contiki-native.a(iq-seeder.o)
                                        0x4cf (size before relaxing)
 .debug_str     0x000000000000aa30       0x39 contiki-native.a(ccm-star.o)
                                        0x1a3 (size before relaxing)
 .debug_str     0x000000000000aa69       0x47 contiki-native.a(ifft.o)
                                        0x167 (size before relaxing)
 .debug_str     0x000000000000aab0       0x2b contiki-native.a(null-seeder.o)
                                        0x164 (size before relaxing)
 .debug_str     0x000000000000aadb       0xda contiki-native.a(ringbufindex.o)
                                        0x1f3 (size before relaxing)
 .debug_str     0x000000000000abb5       0xa0 contiki-native.a(list.o)
                                        0x14f (size before relaxing)
 .debug_str     0x000000000000ac55       0xa6 contiki-native.a(gcr.o)
                                        0x15a (size before relaxing)
 .debug_str     0x000000000000acfb       0x7d contiki-native.a(aes-128.o)
                                        0x1ad (size before relaxing)
 .debug_str     0x000000000000ad78      0x123 contiki-native.a(trickle-timer.o)
                                        0x2ce (size before relaxing)
 .debug_str     0x000000000000ae9b       0x59 contiki-native.a(memb.o)
                                        0x165 (size before relaxing)
 .debug_str     0x000000000000aef4       0x40 contiki-native.a(me.o)
                                        0x11d (size before relaxing)
 .debug_str     0x000000000000af34       0x2b contiki-native.a(print-stats.o)
                                        0x13c (size before relaxing)
 .debug_str     0x000000000000af5f       0x32 contiki-native.a(csprng.o)
                                        0x1a4 (size before relaxing)
 .debug_str     0x000000000000af91       0x57 contiki-native.a(petsciiconv.o)
                                        0x10a (size before relaxing)
 .debug_str     0x000000000000afe8       0x32 contiki-native.a(random.o)
                                        0x153 (size before relaxing)
 .debug_str     0x000000000000b01a       0x23 contiki-native.a(assert.o)
                                        0x126 (size before relaxing)
 .debug_str     0x000000000000b03d       0x5e contiki-native.a(ringbuf.o)
                                        0x18c (size before relaxing)
 .debug_str     0x000000000000b09b      0x691 contiki-native.a(websocket.o)
                                        0x98e (size before relaxing)
 .debug_str     0x000000000000b72c      0x21d contiki-native.a(uip-icmp6.o)
                                        0x61d (size before relaxing)
 .debug_str     0x000000000000b949      0x2ef contiki-native.a(uip-ds6.o)
                                        0xc71 (size before relaxing)
 .debug_str     0x000000000000bc38      0x383 contiki-native.a(uip-ds6-route.o)
                                        0xcf1 (size before relaxing)
 .debug_str     0x000000000000bfbb      0x30a contiki-native.a(uip6.o)
                                        0x8ec (size before relaxing)
 .debug_str     0x000000000000c2c5      0x21f contiki-native.a(uip-ds6-nbr.o)
                                        0xa1d (size before relaxing)
 .debug_str     0x000000000000c4e4      0x1e3 contiki-native.a(uip-nd6.o)
                                        0xc3a (size before relaxing)
 .debug_str     0x000000000000c6c7      0x1b4 contiki-native.a(websocket-http-)
                                        0x694 (size before relaxing)
 .debug_str     0x000000000000c87b      0x39e contiki-native.a(sicslowpan.o)
                                        0xaa0 (size before relaxing)
 .debug_str     0x000000000000cc19       0x4b contiki-native.a(slipdev.o)
                                        0x19a (size before relaxing)
 .debug_str     0x000000000000cc64       0x4e contiki-native.a(uip-debug.o)
                                        0x197 (size before relaxing)
 .debug_str     0x000000000000ccb2       0xbb contiki-native.a(uip-packetqueue)
                                        0x308 (size before relaxing)
 .debug_str     0x000000000000cd6d      0x1b9 contiki-native.a(tcp-socket.o)
                                        0x62c (size before relaxing)
 .debug_str     0x000000000000cf26       0xa7 contiki-native.a(ip64-addr.o)
                                        0x1ee (size before relaxing)
 .debug_str     0x000000000000cfcd       0x6d contiki-native.a(uip-udp-packet.)
                                        0x25a (size before relaxing)
 .debug_str     0x000000000000d03a       0xcd contiki-native.a(psock.o)
                                        0x36c (size before relaxing)
 .debug_str     0x000000000000d107       0x1c contiki-native.a(dhcpc.o)
                                        0x410 (size before relaxing)
 .debug_str     0x000000000000d123      0x1c4 contiki-native.a(tcpip.o)
                                       0x10c6 (size before relaxing)
 .debug_str     0x000000000000d2e7      0x4e7 contiki-native.a(resolv.o)
                                        0xac6 (size before relaxing)
 .debug_str     0x000000000000d7ce       0x9c contiki-native.a(uip-nameserver.)
                                        0x1f6 (size before relaxing)
 .debug_str     0x000000000000d86a       0x42 contiki-native.a(uip-split.o)
                                        0x212 (size before relaxing)
 .debug_str     0x000000000000d8ac       0xeb contiki-native.a(udp-socket.o)
                                        0x3e8 (size before relaxing)
 .debug_str     0x000000000000d997       0xee contiki-native.a(simple-udp.o)
                                        0x3f6 (size before relaxing)
 .debug_str     0x000000000000da85       0x55 contiki-native.a(uiplib.o)
                                        0x18b (size before relaxing)
 .debug_str     0x000000000000dada       0xe2 contiki-native.a(rpl-nbr-policy.)
                                        0x9d7 (size before relaxing)
 .debug_str     0x000000000000dbbc       0x83 contiki-native.a(rpl-of0.o)
                                        0x6c7 (size before relaxing)
 .debug_str     0x000000000000dc3f      0x515 contiki-native.a(rpl-dag.o)
                                       0x11ed (size before relaxing)
 .debug_str     0x000000000000e154      0x207 contiki-native.a(rpl-timers.o)
                                        0x955 (size before relaxing)
 .debug_str     0x000000000000e35b      0x19c contiki-native.a(rpl-ext-header.)
                                        0xe08 (size before relaxing)
 .debug_str     0x000000000000e4f7       0xe2 contiki-native.a(rpl.o)
                                        0x969 (size before relaxing)
 .debug_str     0x000000000000e5d9       0x21 contiki-native.a(rpl-mrhof.o)
                                        0x6d1 (size before relaxing)
 .debug_str     0x000000000000e5fa      0x15a contiki-native.a(rpl-ns.o)
                                        0x78b (size before relaxing)
 .debug_str     0x000000000000e754      0x231 contiki-native.a(rpl-icmp6.o)
                                       0x139a (size before relaxing)
 .debug_str     0x000000000000e985       0xd4 contiki-native.a(rpl-dag-root.o)
                                        0xb30 (size before relaxing)
 .debug_str     0x000000000000ea59      0x1a1 contiki-native.a(queuebuf.o)
                                        0x58e (size before relaxing)
 .debug_str     0x000000000000ebfa       0x98 contiki-native.a(cmd-broker.o)
                                        0x22f (size before relaxing)
 .debug_str     0x000000000000ec92      0x2a1 contiki-native.a(nbr-table.o)
                                        0x56e (size before relaxing)
 .debug_str     0x000000000000ef33      0x1c3 contiki-native.a(packetbuf.o)
                                        0x5da (size before relaxing)
 .debug_str     0x000000000000f0f6       0x2a contiki-native.a(netstack.o)
                                        0x337 (size before relaxing)
 .debug_str     0x000000000000f120       0x5a contiki-native.a(linkaddr.o)
                                        0x182 (size before relaxing)
 .debug_str     0x000000000000f17a       0x34 contiki-native.a(net-debug.o)
                                        0x159 (size before relaxing)
 .debug_str     0x000000000000f1ae       0xef contiki-native.a(link-stats.o)
                                        0x6f2 (size before relaxing)
 .debug_str     0x000000000000f29d       0x1f contiki-native.a(nullmac.o)
                                        0x21c (size before relaxing)
 .debug_str     0x000000000000f2bc       0x40 contiki-native.a(nullrdc-noframe)
                                        0x3b5 (size before relaxing)
 .debug_str     0x000000000000f2fc      0x881 contiki-native.a(frame802154e-ie)
                                        0x9e9 (size before relaxing)
 .debug_str     0x000000000000fb7d       0x6a contiki-native.a(mac-sequence.o)
                                        0x40f (size before relaxing)
 .debug_str     0x000000000000fbe7       0x2a contiki-native.a(nordc.o)
                                        0x1db (size before relaxing)
 .debug_str     0x000000000000fc11      0x210 contiki-native.a(csma.o)
                                        0x89e (size before relaxing)
 .debug_str     0x000000000000fe21      0x34d contiki-native.a(frame802154.o)
                                        0x50a (size before relaxing)
 .debug_str     0x000000000001016e       0x3d contiki-native.a(framer-nullmac.)
                                        0x3d6 (size before relaxing)
 .debug_str     0x00000000000101ab       0x39 contiki-native.a(mac.o)
                                        0x1b9 (size before relaxing)
 .debug_str     0x00000000000101e4       0x7a contiki-native.a(framer-802154.o)
                                        0x61c (size before relaxing)
 .debug_str     0x000000000001025e      0x16b contiki-native.a(phase.o)
                                        0x7bf (size before relaxing)
 .debug_str     0x00000000000103c9       0x4b contiki-native.a(nullrdc.o)
                                        0x66f (size before relaxing)
 .debug_str     0x0000000000010414       0x60 contiki-native.a(ctk-textentry-c)
                                        0x3a5 (size before relaxing)
 .debug_str     0x0000000000010474      0x10c contiki-native.a(ctk-filedialog.)
                                        0x4cb (size before relaxing)
 .debug_str     0x0000000000010580       0x47 contiki-native.a(ctk-textentry-c)
                                        0x38c (size before relaxing)
 .debug_str     0x00000000000105c7       0x49 contiki-native.a(ctk-textentry-m)
                                        0x38e (size before relaxing)
 .debug_str     0x0000000000010610      0x349 contiki-native.a(ctk.o)
                                        0x814 (size before relaxing)
 .debug_str     0x0000000000010959       0x21 contiki-native.a(nullsec.o)
                                        0x434 (size before relaxing)
 .debug_str     0x000000000001097a       0xf5 contiki-native.a(anti-replay.o)
                                        0x4e3 (size before relaxing)
 .debug_str     0x0000000000010a6f       0x6a contiki-native.a(ccm-star-packet)
                                        0x3f7 (size before relaxing)
 .debug_str     0x0000000000010ad9       0x16 contiki-native.a(symbols.o)
                                         0xc3 (size before relaxing)
 .debug_str     0x0000000000010aef      0x1dc /usr/lib/x86_64-linux-gnu/libpthread_nonshared.a(pthread_atfork.oS)
                                        0x3cb (size before relaxing)

.debug_loc      0x0000000000000000      0x126
 *(.debug_loc)
 .debug_loc     0x0000000000000000      0x126 /usr/lib/x86_64-linux-gnu/libpthread_nonshared.a(pthread_atfork.oS)

.debug_macinfo
 *(.debug_macinfo)

.debug_weaknames
 *(.debug_weaknames)

.debug_funcnames
 *(.debug_funcnames)

.debug_typenames
 *(.debug_typenames)

.debug_varnames
 *(.debug_varnames)

.debug_pubtypes
 *(.debug_pubtypes)

.debug_ranges   0x0000000000000000      0x790
 *(.debug_ranges)
 .debug_ranges  0x0000000000000000       0x30 obj_native/native-init.o
 .debug_ranges  0x0000000000000030       0x30 obj_native/native-rdc.o
 .debug_ranges  0x0000000000000060       0x30 obj_native/slip-dev.o
 .debug_ranges  0x0000000000000090       0x30 obj_native/rio.o
 .debug_ranges  0x00000000000000c0       0x30 obj_native/switch-lookup.o
 .debug_ranges  0x00000000000000f0       0x30 contiki-native.a(webserver-confi)
 .debug_ranges  0x0000000000000120       0x30 contiki-native.a(webserver-node-)
 .debug_ranges  0x0000000000000150       0x30 contiki-native.a(dns-proxy.o)
 .debug_ranges  0x0000000000000180       0x30 contiki-native.a(er-coap-engine.)
 .debug_ranges  0x00000000000001b0      0x100 contiki-native.a(coap-common.o)
 .debug_ranges  0x00000000000002b0       0x70 contiki-native.a(core-interface.)
 .debug_ranges  0x0000000000000320       0x30 contiki-native.a(rd-client.o)
 .debug_ranges  0x0000000000000350       0x30 contiki-native.a(ctk-curses.o)
 .debug_ranges  0x0000000000000380       0x30 contiki-native.a(ip64-slip-inter)
 .debug_ranges  0x00000000000003b0       0x30 contiki-native.a(etimer.o)
 .debug_ranges  0x00000000000003e0       0xe0 contiki-native.a(uip-nd6.o)
 .debug_ranges  0x00000000000004c0       0x90 contiki-native.a(sicslowpan.o)
 .debug_ranges  0x0000000000000550      0x150 contiki-native.a(resolv.o)
 .debug_ranges  0x00000000000006a0       0x30 contiki-native.a(rpl-dag.o)
 .debug_ranges  0x00000000000006d0       0x60 contiki-native.a(nbr-table.o)
 .debug_ranges  0x0000000000000730       0x30 contiki-native.a(csma.o)
 .debug_ranges  0x0000000000000760       0x30 contiki-native.a(nullrdc.o)

.debug_macro
 *(.debug_macro)

.gnu.attributes
 *(.gnu.attributes)

/DISCARD/
 *(.note.GNU-stack)
 *(.gnu_debuglink)
 *(.gnu.lto_*)
OUTPUT(cetic-6lbr.native elf64-x86-64)
